
/home/kutaybulun/corev/core-v-verif/cv32e40p/tests/programs/custom/riscv_arithmetic_basic_test_1/riscv_arithmetic_basic_test_1.elf:     file format elf32-littleriscv


Disassembly of section .text:

00000080 <_start>:
.section .text
.type _start, @function

_start:

    j _start_main
      80:	a009                	c.j	82 <_start_main>

00000082 <_start_main>:
.globl _start_main
.section .text
_start_main:          
# END: gtumbush
# BEGIN: riscv-dv
                  csrr x5, mhartid
      82:	f14022f3          	csrrs	x5,mhartid,x0
                  li x6, 0
      86:	4301                	c.li	x6,0
                  beq x5, x6, 0f
      88:	00628263          	beq	x5,x6,8c <_start_main+0xa>

0: j h0_start
      8c:	a009                	c.j	8e <h0_start>

0000008e <h0_start>:
h0_start:
                  li x10, 0x40001104
      8e:	40001537          	lui	x10,0x40001
      92:	10450513          	addi	x10,x10,260 # 40001104 <test_ret_val+0x20001104>
                  csrw misa, x10
      96:	30151073          	csrrw	x0,misa,x10

0000009a <kernel_sp>:
kernel_sp:        
                  la x31, kernel_stack_end
      9a:	7fc18f93          	addi	x31,x3,2044 # 12e24 <kernel_stack_end>

0000009e <trap_vec_init>:

trap_vec_init:    
                  la x10, mtvec_handler
      9e:	0000a517          	auipc	x10,0xa
      a2:	b9e50513          	addi	x10,x10,-1122 # 9c3c <mtvec_handler>
                  ori x10, x10, 1
      a6:	00156513          	ori	x10,x10,1
                  csrw 0x305, x10 # MTVEC
      aa:	30551073          	csrrw	x0,mtvec,x10

000000ae <mepc_setup>:

mepc_setup:       
                  la x10, init
      ae:	00000517          	auipc	x10,0x0
      b2:	01050513          	addi	x10,x10,16 # be <init>
                  csrw mepc, x10
      b6:	34151073          	csrrw	x0,mepc,x10
                  j init_machine_mode
      ba:	3a00906f          	jal	x0,945a <init_machine_mode>

000000be <init>:

init:             
                  li x0, 0xfd790eda
      be:	fd791037          	lui	x0,0xfd791
      c2:	eda00013          	addi	x0,x0,-294
                  li x1, 0x80000000
      c6:	800000b7          	lui	x1,0x80000
                  li x2, 0x6
      ca:	4119                	c.li	x2,6
                  li x3, 0x0
      cc:	4181                	c.li	x3,0
                  li x4, 0x80000000
      ce:	80000237          	lui	x4,0x80000
                  li x5, 0xe
      d2:	42b9                	c.li	x5,14
                  li x6, 0x87c36d9
      d4:	087c3337          	lui	x6,0x87c3
      d8:	6d930313          	addi	x6,x6,1753 # 87c36d9 <__heap_end+0x83c36d9>
                  li x7, 0xb
      dc:	43ad                	c.li	x7,11
                  li x8, 0x80000000
      de:	80000437          	lui	x8,0x80000
                  li x9, 0x9
      e2:	44a5                	c.li	x9,9
                  li x10, 0xf510029d
      e4:	f5100537          	lui	x10,0xf5100
      e8:	29d50513          	addi	x10,x10,669 # f510029d <test_ret_val+0xd510029d>
                  li x11, 0x47cc0565
      ec:	47cc05b7          	lui	x11,0x47cc0
      f0:	56558593          	addi	x11,x11,1381 # 47cc0565 <test_ret_val+0x27cc0565>
                  li x12, 0x80000000
      f4:	80000637          	lui	x12,0x80000
                  li x13, 0x80000000
      f8:	800006b7          	lui	x13,0x80000
                  li x14, 0x0
      fc:	4701                	c.li	x14,0
                  li x16, 0xf03e6cd8
      fe:	f03e7837          	lui	x16,0xf03e7
     102:	cd880813          	addi	x16,x16,-808 # f03e6cd8 <test_ret_val+0xd03e6cd8>
                  li x17, 0x9
     106:	48a5                	c.li	x17,9
                  li x18, 0x0
     108:	4901                	c.li	x18,0
                  li x19, 0x0
     10a:	4981                	c.li	x19,0
                  li x20, 0xfb21c919
     10c:	fb21da37          	lui	x20,0xfb21d
     110:	919a0a13          	addi	x20,x20,-1767 # fb21c919 <test_ret_val+0xdb21c919>
                  li x21, 0x8b56ef7a
     114:	8b56fab7          	lui	x21,0x8b56f
     118:	f7aa8a93          	addi	x21,x21,-134 # 8b56ef7a <test_ret_val+0x6b56ef7a>
                  li x22, 0xd10cbf06
     11c:	d10ccb37          	lui	x22,0xd10cc
     120:	f06b0b13          	addi	x22,x22,-250 # d10cbf06 <test_ret_val+0xb10cbf06>
                  li x23, 0xfdbec9f2
     124:	fdbedbb7          	lui	x23,0xfdbed
     128:	9f2b8b93          	addi	x23,x23,-1550 # fdbec9f2 <test_ret_val+0xddbec9f2>
                  li x24, 0xf34f30bf
     12c:	f34f3c37          	lui	x24,0xf34f3
     130:	0bfc0c13          	addi	x24,x24,191 # f34f30bf <test_ret_val+0xd34f30bf>
                  li x25, 0x7
     134:	4c9d                	c.li	x25,7
                  li x26, 0x0
     136:	4d01                	c.li	x26,0
                  li x27, 0xf61c9318
     138:	f61c9db7          	lui	x27,0xf61c9
     13c:	318d8d93          	addi	x27,x27,792 # f61c9318 <test_ret_val+0xd61c9318>
                  li x28, 0x5
     140:	4e15                	c.li	x28,5
                  li x29, 0xf7e30b15
     142:	f7e31eb7          	lui	x29,0xf7e31
     146:	b15e8e93          	addi	x29,x29,-1259 # f7e30b15 <test_ret_val+0xd7e30b15>
                  li x30, 0x15a65931
     14a:	15a66f37          	lui	x30,0x15a66
     14e:	931f0f13          	addi	x30,x30,-1743 # 15a65931 <print_port+0x5a65931>
                  la x15, user_stack_end
     152:	0000f797          	auipc	x15,0xf
     156:	e5278793          	addi	x15,x15,-430 # efa4 <user_stack_end>

0000015a <main>:
main:             li         s7, 0xffffffff #start riscv_int_numeric_corner_stream_10
     15a:	fff00b93          	addi	x23,x0,-1
                  li         t2, 0x80000000
     15e:	800003b7          	lui	x7,0x80000
                  li         tp, 0x80000000
     162:	80000237          	lui	x4,0x80000
                  li         a6, 0x3ac3aef8
     166:	3ac3b837          	lui	x16,0x3ac3b
     16a:	ef880813          	addi	x16,x16,-264 # 3ac3aef8 <test_ret_val+0x1ac3aef8>
                  li         s11, 0xffffffff
     16e:	fff00d93          	addi	x27,x0,-1
                  li         s6, 0x4ad1c1ff
     172:	4ad1cb37          	lui	x22,0x4ad1c
     176:	1ffb0b13          	addi	x22,x22,511 # 4ad1c1ff <test_ret_val+0x2ad1c1ff>
                  li         s8, 0x80000000
     17a:	80000c37          	lui	x24,0x80000
                  li         a2, 0x80000000
     17e:	80000637          	lui	x12,0x80000
                  li         a0, 0xffffffff
     182:	fff00513          	addi	x10,x0,-1
                  li         s10, 0x80000000
     186:	80000d37          	lui	x26,0x80000
                  auipc      a0, 11691
     18a:	02dab517          	auipc	x10,0x2dab
                  nop
     18e:	0001                	c.addi	x0,0
                  nop
     190:	0001                	c.addi	x0,0
                  add        s6, tp, s6
     192:	9b12                	c.add	x22,x4
                  divu       a0, s6, s8
     194:	038b5533          	divu	x10,x22,x24
                  div        a6, a2, t2
     198:	02764833          	div	x16,x12,x7
                  divu       a0, s6, s8
     19c:	038b5533          	divu	x10,x22,x24
                  nop
     1a0:	0001                	c.addi	x0,0
                  nop
     1a2:	0001                	c.addi	x0,0
                  divu       a0, s6, s8
     1a4:	038b5533          	divu	x10,x22,x24
                  mul        a2, tp, a0
     1a8:	02a20633          	mul	x12,x4,x10
                  divu       a0, s6, s8
     1ac:	038b5533          	divu	x10,x22,x24
                  sub        a0, a0, s8
     1b0:	41850533          	sub	x10,x10,x24
                  div        a6, a2, t2
     1b4:	02764833          	div	x16,x12,x7
                  lui        s6, 985951
     1b8:	f0b5fb37          	lui	x22,0xf0b5f
                  nop
     1bc:	0001                	c.addi	x0,0
                  nop
     1be:	0001                	c.addi	x0,0
                  nop
     1c0:	0001                	c.addi	x0,0
                  add        s6, tp, s6
     1c2:	9b12                	c.add	x22,x4
                  remu       s8, s6, a2
     1c4:	02cb7c33          	remu	x24,x22,x12
                  mul        a2, tp, a0
     1c8:	02a20633          	mul	x12,x4,x10
                  mulh       s8, s7, tp
     1cc:	024b9c33          	mulh	x24,x23,x4
                  mulhsu     tp, a2, s11
     1d0:	03b62233          	mulhsu	x4,x12,x27
                  div        a6, a2, t2
     1d4:	02764833          	div	x16,x12,x7
                  mul        a2, tp, a0 #end riscv_int_numeric_corner_stream_10
     1d8:	02a20633          	mul	x12,x4,x10
                  li         t5, 0x0 #start riscv_int_numeric_corner_stream_19
     1dc:	4f01                	c.li	x30,0
                  li         s3, 0x80000000
     1de:	800009b7          	lui	x19,0x80000
                  li         t4, 0xed3ad258
     1e2:	ed3adeb7          	lui	x29,0xed3ad
     1e6:	258e8e93          	addi	x29,x29,600 # ed3ad258 <test_ret_val+0xcd3ad258>
                  li         a7, 0xffffffff
     1ea:	fff00893          	addi	x17,x0,-1
                  li         s6, 0x0
     1ee:	4b01                	c.li	x22,0
                  li         s2, 0xffffffff
     1f0:	fff00913          	addi	x18,x0,-1
                  li         s7, 0x80000000
     1f4:	80000bb7          	lui	x23,0x80000
                  li         t0, 0xd203cab0
     1f8:	d203d2b7          	lui	x5,0xd203d
     1fc:	ab028293          	addi	x5,x5,-1360 # d203cab0 <test_ret_val+0xb203cab0>
                  li         a4, 0x9c87e90b
     200:	9c87f737          	lui	x14,0x9c87f
     204:	90b70713          	addi	x14,x14,-1781 # 9c87e90b <test_ret_val+0x7c87e90b>
                  li         s5, 0x80000000
     208:	80000ab7          	lui	x21,0x80000
                  divu       a7, a4, a7
     20c:	031758b3          	divu	x17,x14,x17
                  nop
     210:	0001                	c.addi	x0,0
                  auipc      t4, 11691
     212:	02dabe97          	auipc	x29,0x2dab
                  mulhsu     t4, t0, t0
     216:	0252aeb3          	mulhsu	x29,x5,x5
                  auipc      t4, 11691
     21a:	02dabe97          	auipc	x29,0x2dab
                  lui        s6, 985951
     21e:	f0b5fb37          	lui	x22,0xf0b5f
                  rem        a7, t0, a4
     222:	02e2e8b3          	rem	x17,x5,x14
                  lui        s6, 985951
     226:	f0b5fb37          	lui	x22,0xf0b5f
                  nop
     22a:	0001                	c.addi	x0,0
                  add        s3, s7, t5
     22c:	01eb89b3          	add	x19,x23,x30
                  add        s3, s7, t5
     230:	01eb89b3          	add	x19,x23,x30
                  addi       a4, s3, -40
     234:	fd898713          	addi	x14,x19,-40 # 7fffffd8 <test_ret_val+0x5fffffd8>
                  add        s3, s7, t5
     238:	01eb89b3          	add	x19,x23,x30
                  auipc      t4, 11691
     23c:	02dabe97          	auipc	x29,0x2dab
                  nop #end riscv_int_numeric_corner_stream_19
     240:	0001                	c.addi	x0,0
                  li         s4, 0x0 #start riscv_int_numeric_corner_stream_31
     242:	4a01                	c.li	x20,0
                  li         a6, 0x4efe2548
     244:	4efe2837          	lui	x16,0x4efe2
     248:	54880813          	addi	x16,x16,1352 # 4efe2548 <test_ret_val+0x2efe2548>
                  li         sp, 0x0
     24c:	4101                	c.li	x2,0
                  li         s11, 0x80000000
     24e:	80000db7          	lui	x27,0x80000
                  li         s9, 0x80000000
     252:	80000cb7          	lui	x25,0x80000
                  li         s3, 0xcacc4459
     256:	cacc49b7          	lui	x19,0xcacc4
     25a:	45998993          	addi	x19,x19,1113 # cacc4459 <test_ret_val+0xaacc4459>
                  li         a4, 0xffffffff
     25e:	fff00713          	addi	x14,x0,-1
                  li         a0, 0xffffffff
     262:	fff00513          	addi	x10,x0,-1
                  li         gp, 0x80000000
     266:	800001b7          	lui	x3,0x80000
                  li         t1, 0x3b7b50de
     26a:	3b7b5337          	lui	x6,0x3b7b5
     26e:	0de30313          	addi	x6,x6,222 # 3b7b50de <test_ret_val+0x1b7b50de>
                  mulh       s11, gp, gp
     272:	02319db3          	mulh	x27,x3,x3
                  add        s3, s11, a4
     276:	00ed89b3          	add	x19,x27,x14
                  rem        s4, a6, a4
     27a:	02e86a33          	rem	x20,x16,x14
                  lui        gp, 985951
     27e:	f0b5f1b7          	lui	x3,0xf0b5f
                  lui        gp, 985951
     282:	f0b5f1b7          	lui	x3,0xf0b5f
                  mulhsu     s4, a0, gp
     286:	02352a33          	mulhsu	x20,x10,x3
                  add        s3, s11, a4
     28a:	00ed89b3          	add	x19,x27,x14
                  nop
     28e:	0001                	c.addi	x0,0
                  mulhu      s9, a4, a4
     290:	02e73cb3          	mulhu	x25,x14,x14
                  lui        gp, 985951
     294:	f0b5f1b7          	lui	x3,0xf0b5f
                  lui        gp, 985951
     298:	f0b5f1b7          	lui	x3,0xf0b5f
                  addi       s9, s3, -40
     29c:	fd898c93          	addi	x25,x19,-40
                  sub        a0, s9, s9
     2a0:	419c8533          	sub	x10,x25,x25
                  nop
     2a4:	0001                	c.addi	x0,0
                  remu       s9, s4, a4
     2a6:	02ea7cb3          	remu	x25,x20,x14
                  mulhsu     s4, a0, gp
     2aa:	02352a33          	mulhsu	x20,x10,x3
                  addi       s9, s3, -40
     2ae:	fd898c93          	addi	x25,x19,-40
                  div        a0, s9, gp
     2b2:	023cc533          	div	x10,x25,x3
                  mul        t1, s4, a4
     2b6:	02ea0333          	mul	x6,x20,x14
                  divu       s4, a0, s9
     2ba:	03955a33          	divu	x20,x10,x25
                  nop
     2be:	0001                	c.addi	x0,0
                  mul        t1, s4, a4
     2c0:	02ea0333          	mul	x6,x20,x14
                  nop
     2c4:	0001                	c.addi	x0,0
                  addi       s9, s3, -40 #end riscv_int_numeric_corner_stream_31
     2c6:	fd898c93          	addi	x25,x19,-40
                  li         tp, 0x80000000 #start riscv_int_numeric_corner_stream_39
     2ca:	80000237          	lui	x4,0x80000
                  li         t1, 0xffffffff
     2ce:	fff00313          	addi	x6,x0,-1
                  li         s7, 0x80000000
     2d2:	80000bb7          	lui	x23,0x80000
                  li         a3, 0x80000000
     2d6:	800006b7          	lui	x13,0x80000
                  li         s2, 0x0
     2da:	4901                	c.li	x18,0
                  li         s6, 0x80000000
     2dc:	80000b37          	lui	x22,0x80000
                  li         sp, 0x80000000
     2e0:	80000137          	lui	x2,0x80000
                  li         gp, 0xdce02feb
     2e4:	dce031b7          	lui	x3,0xdce03
     2e8:	11ad                	c.addi	x3,-21 # dce02feb <test_ret_val+0xbce02feb>
                  li         s11, 0x0
     2ea:	4d81                	c.li	x27,0
                  li         s1, 0x80000000
     2ec:	800004b7          	lui	x9,0x80000
                  remu       a3, s11, s2
     2f0:	032df6b3          	remu	x13,x27,x18
                  rem        a3, s2, t1
     2f4:	026966b3          	rem	x13,x18,x6
                  sub        s6, a3, s11
     2f8:	41b68b33          	sub	x22,x13,x27
                  auipc      s1, 11691
     2fc:	02dab497          	auipc	x9,0x2dab
                  rem        a3, s2, t1
     300:	026966b3          	rem	x13,x18,x6
                  sub        s6, a3, s11
     304:	41b68b33          	sub	x22,x13,x27
                  addi       s11, s11, -40
     308:	fd8d8d93          	addi	x27,x27,-40 # 7fffffd8 <test_ret_val+0x5fffffd8>
                  auipc      s1, 11691
     30c:	02dab497          	auipc	x9,0x2dab
                  nop
     310:	0001                	c.addi	x0,0
                  lui        gp, 985951
     312:	f0b5f1b7          	lui	x3,0xf0b5f
                  rem        a3, s2, t1
     316:	026966b3          	rem	x13,x18,x6
                  div        tp, s11, gp
     31a:	023dc233          	div	x4,x27,x3
                  sub        s6, a3, s11
     31e:	41b68b33          	sub	x22,x13,x27
                  nop
     322:	0001                	c.addi	x0,0
                  add        t1, sp, s6
     324:	01610333          	add	x6,x2,x22
                  nop
     328:	0001                	c.addi	x0,0
                  mulhsu     s7, sp, gp
     32a:	02312bb3          	mulhsu	x23,x2,x3
                  sub        s6, a3, s11
     32e:	41b68b33          	sub	x22,x13,x27
                  nop
     332:	0001                	c.addi	x0,0
                  nop
     334:	0001                	c.addi	x0,0
                  addi       s11, s11, -40
     336:	fd8d8d93          	addi	x27,x27,-40
                  nop
     33a:	0001                	c.addi	x0,0
                  div        tp, s11, gp
     33c:	023dc233          	div	x4,x27,x3
                  add        t1, sp, s6
     340:	01610333          	add	x6,x2,x22
                  mulhsu     s7, sp, gp
     344:	02312bb3          	mulhsu	x23,x2,x3
                  mulhu      s1, a3, s7
     348:	0376b4b3          	mulhu	x9,x13,x23
                  mul        tp, tp, a3
     34c:	02d20233          	mul	x4,x4,x13
                  add        t1, sp, s6
     350:	01610333          	add	x6,x2,x22
                  div        tp, s11, gp
     354:	023dc233          	div	x4,x27,x3
                  addi       s11, s11, -40 #end riscv_int_numeric_corner_stream_39
     358:	fd8d8d93          	addi	x27,x27,-40
                  li         s8, 0xffffffff #start riscv_int_numeric_corner_stream_36
     35c:	fff00c13          	addi	x24,x0,-1
                  li         t3, 0xc9ee93a5
     360:	c9ee9e37          	lui	x28,0xc9ee9
     364:	3a5e0e13          	addi	x28,x28,933 # c9ee93a5 <test_ret_val+0xa9ee93a5>
                  li         a2, 0x80000000
     368:	80000637          	lui	x12,0x80000
                  li         t1, 0x98dfc66b
     36c:	98dfc337          	lui	x6,0x98dfc
     370:	66b30313          	addi	x6,x6,1643 # 98dfc66b <test_ret_val+0x78dfc66b>
                  li         t0, 0x1878354d
     374:	187832b7          	lui	x5,0x18783
     378:	54d28293          	addi	x5,x5,1357 # 1878354d <print_port+0x878354d>
                  li         s11, 0x80000000
     37c:	80000db7          	lui	x27,0x80000
                  li         t4, 0xffffffff
     380:	fff00e93          	addi	x29,x0,-1
                  li         gp, 0x80000000
     384:	800001b7          	lui	x3,0x80000
                  li         tp, 0x80000000
     388:	80000237          	lui	x4,0x80000
                  li         s9, 0xfc3b413b
     38c:	fc3b4cb7          	lui	x25,0xfc3b4
     390:	13bc8c93          	addi	x25,x25,315 # fc3b413b <test_ret_val+0xdc3b413b>
                  sub        gp, gp, s9
     394:	419181b3          	sub	x3,x3,x25
                  addi       a2, s11, -40
     398:	fd8d8613          	addi	x12,x27,-40 # 7fffffd8 <test_ret_val+0x5fffffd8>
                  auipc      a2, 11691
     39c:	02dab617          	auipc	x12,0x2dab
                  lui        t1, 985951
     3a0:	f0b5f337          	lui	x6,0xf0b5f
                  mulhsu     t1, t1, t0
     3a4:	02532333          	mulhsu	x6,x6,x5
                  addi       a2, s11, -40
     3a8:	fd8d8613          	addi	x12,x27,-40
                  divu       a2, t1, s9
     3ac:	03935633          	divu	x12,x6,x25
                  add        t4, t0, t1
     3b0:	00628eb3          	add	x29,x5,x6
                  mulhu      tp, a2, t4
     3b4:	03d63233          	mulhu	x4,x12,x29
                  mul        gp, t1, a2
     3b8:	02c301b3          	mul	x3,x6,x12
                  add        t4, t0, t1
     3bc:	00628eb3          	add	x29,x5,x6
                  nop
     3c0:	0001                	c.addi	x0,0
                  lui        t1, 985951
     3c2:	f0b5f337          	lui	x6,0xf0b5f
                  nop
     3c6:	0001                	c.addi	x0,0
                  div        a2, t4, gp #end riscv_int_numeric_corner_stream_36
     3c8:	023ec633          	div	x12,x29,x3
                  li         s1, 0xffffffff #start riscv_int_numeric_corner_stream_3
     3cc:	fff00493          	addi	x9,x0,-1
                  li         a6, 0x79e3b252
     3d0:	79e3b837          	lui	x16,0x79e3b
     3d4:	25280813          	addi	x16,x16,594 # 79e3b252 <test_ret_val+0x59e3b252>
                  li         s11, 0x0
     3d8:	4d81                	c.li	x27,0
                  li         s6, 0x80000000
     3da:	80000b37          	lui	x22,0x80000
                  li         a3, 0x80000000
     3de:	800006b7          	lui	x13,0x80000
                  li         gp, 0xffffffff
     3e2:	fff00193          	addi	x3,x0,-1
                  li         t2, 0x2004d0a7
     3e6:	2004d3b7          	lui	x7,0x2004d
     3ea:	0a738393          	addi	x7,x7,167 # 2004d0a7 <test_ret_val+0x4d0a7>
                  li         s3, 0x5a561351
     3ee:	5a5619b7          	lui	x19,0x5a561
     3f2:	35198993          	addi	x19,x19,849 # 5a561351 <test_ret_val+0x3a561351>
                  li         s2, 0xffffffff
     3f6:	fff00913          	addi	x18,x0,-1
                  li         t1, 0x80000000
     3fa:	80000337          	lui	x6,0x80000
                  mulhsu     s6, a3, gp
     3fe:	0236ab33          	mulhsu	x22,x13,x3
                  mulhu      s11, a6, s6
     402:	03683db3          	mulhu	x27,x16,x22
                  auipc      s1, 11691
     406:	02dab497          	auipc	x9,0x2dab
                  mulh       t2, t2, a3
     40a:	02d393b3          	mulh	x7,x7,x13
                  add        s6, t1, s6
     40e:	9b1a                	c.add	x22,x6
                  divu       s2, t2, a6
     410:	0303d933          	divu	x18,x7,x16
                  mulhsu     s6, a3, gp
     414:	0236ab33          	mulhsu	x22,x13,x3
                  nop
     418:	0001                	c.addi	x0,0
                  div        a6, s6, t2
     41a:	027b4833          	div	x16,x22,x7
                  mulhu      s11, a6, s6
     41e:	03683db3          	mulhu	x27,x16,x22
                  divu       s2, t2, a6
     422:	0303d933          	divu	x18,x7,x16
                  nop
     426:	0001                	c.addi	x0,0
                  mulhsu     s6, a3, gp
     428:	0236ab33          	mulhsu	x22,x13,x3
                  rem        a6, a6, t2
     42c:	02786833          	rem	x16,x16,x7
                  add        s6, t1, s6
     430:	9b1a                	c.add	x22,x6
                  auipc      s1, 11691
     432:	02dab497          	auipc	x9,0x2dab
                  lui        s3, 985951
     436:	f0b5f9b7          	lui	x19,0xf0b5f
                  addi       s11, s11, -40
     43a:	fd8d8d93          	addi	x27,x27,-40
                  add        s6, t1, s6
     43e:	9b1a                	c.add	x22,x6
                  nop
     440:	0001                	c.addi	x0,0
                  mulh       t2, t2, a3
     442:	02d393b3          	mulh	x7,x7,x13
                  div        a6, s6, t2
     446:	027b4833          	div	x16,x22,x7
                  add        s6, t1, s6
     44a:	9b1a                	c.add	x22,x6
                  mulhu      s11, a6, s6
     44c:	03683db3          	mulhu	x27,x16,x22
                  nop #end riscv_int_numeric_corner_stream_3
     450:	0001                	c.addi	x0,0
                  li         tp, 0x80000000 #start riscv_int_numeric_corner_stream_34
     452:	80000237          	lui	x4,0x80000
                  li         t1, 0xffffffff
     456:	fff00313          	addi	x6,x0,-1
                  li         s6, 0xbb2d7d7d
     45a:	bb2d8b37          	lui	x22,0xbb2d8
     45e:	d7db0b13          	addi	x22,x22,-643 # bb2d7d7d <test_ret_val+0x9b2d7d7d>
                  li         t5, 0x80000000
     462:	80000f37          	lui	x30,0x80000
                  li         a7, 0xbd53de38
     466:	bd53e8b7          	lui	x17,0xbd53e
     46a:	e3888893          	addi	x17,x17,-456 # bd53de38 <test_ret_val+0x9d53de38>
                  li         s4, 0x80000000
     46e:	80000a37          	lui	x20,0x80000
                  li         gp, 0x80000000
     472:	800001b7          	lui	x3,0x80000
                  li         a2, 0x80000000
     476:	80000637          	lui	x12,0x80000
                  li         t2, 0x80000000
     47a:	800003b7          	lui	x7,0x80000
                  li         t0, 0x80000000
     47e:	800002b7          	lui	x5,0x80000
                  nop
     482:	0001                	c.addi	x0,0
                  add        t2, t1, t5
     484:	01e303b3          	add	x7,x6,x30
                  nop
     488:	0001                	c.addi	x0,0
                  rem        a7, s4, t2
     48a:	027a68b3          	rem	x17,x20,x7
                  add        t2, t1, t5
     48e:	01e303b3          	add	x7,x6,x30
                  divu       tp, gp, a7
     492:	0311d233          	divu	x4,x3,x17
                  nop
     496:	0001                	c.addi	x0,0
                  div        s4, a7, t2
     498:	0278ca33          	div	x20,x17,x7
                  addi       t0, s6, -40
     49c:	fd8b0293          	addi	x5,x22,-40
                  addi       t0, s6, -40
     4a0:	fd8b0293          	addi	x5,x22,-40
                  add        t2, t1, t5
     4a4:	01e303b3          	add	x7,x6,x30
                  mulhu      t0, s6, t5
     4a8:	03eb32b3          	mulhu	x5,x22,x30
                  auipc      a2, 11691
     4ac:	02dab617          	auipc	x12,0x2dab
                  sub        t5, a7, t5
     4b0:	41e88f33          	sub	x30,x17,x30
                  addi       t0, s6, -40
     4b4:	fd8b0293          	addi	x5,x22,-40
                  addi       t0, s6, -40 #end riscv_int_numeric_corner_stream_34
     4b8:	fd8b0293          	addi	x5,x22,-40
                  li         s4, 0x80000000 #start riscv_int_numeric_corner_stream_28
     4bc:	80000a37          	lui	x20,0x80000
                  li         s10, 0x636d4c95
     4c0:	636d5d37          	lui	x26,0x636d5
     4c4:	c95d0d13          	addi	x26,x26,-875 # 636d4c95 <test_ret_val+0x436d4c95>
                  li         a4, 0x0
     4c8:	4701                	c.li	x14,0
                  li         t0, 0x8a8a1c6c
     4ca:	8a8a22b7          	lui	x5,0x8a8a2
     4ce:	c6c28293          	addi	x5,x5,-916 # 8a8a1c6c <test_ret_val+0x6a8a1c6c>
                  li         t3, 0x281c157a
     4d2:	281c1e37          	lui	x28,0x281c1
     4d6:	57ae0e13          	addi	x28,x28,1402 # 281c157a <test_ret_val+0x81c157a>
                  li         t5, 0x0
     4da:	4f01                	c.li	x30,0
                  li         a0, 0x9aabfa88
     4dc:	9aac0537          	lui	x10,0x9aac0
     4e0:	a8850513          	addi	x10,x10,-1400 # 9aabfa88 <test_ret_val+0x7aabfa88>
                  li         s6, 0x0
     4e4:	4b01                	c.li	x22,0
                  li         s3, 0x3fbbf7da
     4e6:	3fbbf9b7          	lui	x19,0x3fbbf
     4ea:	7da98993          	addi	x19,x19,2010 # 3fbbf7da <test_ret_val+0x1fbbf7da>
                  li         t2, 0x534dc5c2
     4ee:	534dc3b7          	lui	x7,0x534dc
     4f2:	5c238393          	addi	x7,x7,1474 # 534dc5c2 <test_ret_val+0x334dc5c2>
                  nop
     4f6:	0001                	c.addi	x0,0
                  mulhsu     t2, t5, s3
     4f8:	033f23b3          	mulhsu	x7,x30,x19
                  mulhu      s3, s6, t5
     4fc:	03eb39b3          	mulhu	x19,x22,x30
                  addi       a0, s10, -40
     500:	fd8d0513          	addi	x10,x26,-40
                  add        s3, t2, a4
     504:	00e389b3          	add	x19,x7,x14
                  divu       a0, a4, s3
     508:	03375533          	divu	x10,x14,x19
                  sub        s10, a4, s10
     50c:	41a70d33          	sub	x26,x14,x26
                  mul        t3, s6, t3
     510:	03cb0e33          	mul	x28,x22,x28
                  addi       a0, s10, -40
     514:	fd8d0513          	addi	x10,x26,-40
                  addi       a0, s10, -40
     518:	fd8d0513          	addi	x10,x26,-40
                  div        s4, s10, t2
     51c:	027d4a33          	div	x20,x26,x7
                  addi       a0, s10, -40
     520:	fd8d0513          	addi	x10,x26,-40
                  auipc      t3, 11691
     524:	02dabe17          	auipc	x28,0x2dab
                  addi       a0, s10, -40
     528:	fd8d0513          	addi	x10,x26,-40
                  sub        s10, a4, s10
     52c:	41a70d33          	sub	x26,x14,x26
                  nop #end riscv_int_numeric_corner_stream_28
     530:	0001                	c.addi	x0,0
                  li         s2, 0x80000000 #start riscv_int_numeric_corner_stream_7
     532:	80000937          	lui	x18,0x80000
                  li         s7, 0x80000000
     536:	80000bb7          	lui	x23,0x80000
                  li         s1, 0xffffffff
     53a:	fff00493          	addi	x9,x0,-1
                  li         a0, 0x80000000
     53e:	80000537          	lui	x10,0x80000
                  li         a7, 0x0
     542:	4881                	c.li	x17,0
                  li         s0, 0x80000000
     544:	80000437          	lui	x8,0x80000
                  li         a2, 0x689cd09d
     548:	689cd637          	lui	x12,0x689cd
     54c:	09d60613          	addi	x12,x12,157 # 689cd09d <test_ret_val+0x489cd09d>
                  li         s6, 0x3e6ea5e0
     550:	3e6eab37          	lui	x22,0x3e6ea
     554:	5e0b0b13          	addi	x22,x22,1504 # 3e6ea5e0 <test_ret_val+0x1e6ea5e0>
                  li         ra, 0x0
     558:	4081                	c.li	x1,0
                  li         a6, 0xffffffff
     55a:	fff00813          	addi	x16,x0,-1
                  lui        s6, 985951
     55e:	f0b5fb37          	lui	x22,0xf0b5f
                  div        a2, s7, ra
     562:	021bc633          	div	x12,x23,x1
                  mulhu      a7, s1, s7
     566:	0374b8b3          	mulhu	x17,x9,x23
                  nop
     56a:	0001                	c.addi	x0,0
                  divu       a0, s6, a7
     56c:	031b5533          	divu	x10,x22,x17
                  auipc      s0, 11691
     570:	02dab417          	auipc	x8,0x2dab
                  add        s7, a0, s6
     574:	01650bb3          	add	x23,x10,x22
                  nop
     578:	0001                	c.addi	x0,0
                  auipc      s0, 11691
     57a:	02dab417          	auipc	x8,0x2dab
                  auipc      s0, 11691
     57e:	02dab417          	auipc	x8,0x2dab
                  auipc      s0, 11691
     582:	02dab417          	auipc	x8,0x2dab
                  auipc      s0, 11691
     586:	02dab417          	auipc	x8,0x2dab
                  nop
     58a:	0001                	c.addi	x0,0
                  sub        s6, a0, a7
     58c:	41150b33          	sub	x22,x10,x17
                  nop #end riscv_int_numeric_corner_stream_7
     590:	0001                	c.addi	x0,0
                  li         a3, 0xffffffff #start riscv_int_numeric_corner_stream_29
     592:	fff00693          	addi	x13,x0,-1
                  li         t5, 0xde4c99ec
     596:	de4caf37          	lui	x30,0xde4ca
     59a:	9ecf0f13          	addi	x30,x30,-1556 # de4c99ec <test_ret_val+0xbe4c99ec>
                  li         t4, 0x0
     59e:	4e81                	c.li	x29,0
                  li         s5, 0xffffffff
     5a0:	fff00a93          	addi	x21,x0,-1
                  li         s7, 0x80000000
     5a4:	80000bb7          	lui	x23,0x80000
                  li         s11, 0x0
     5a8:	4d81                	c.li	x27,0
                  li         a7, 0x0
     5aa:	4881                	c.li	x17,0
                  li         s3, 0xce081e9d
     5ac:	ce0829b7          	lui	x19,0xce082
     5b0:	e9d98993          	addi	x19,x19,-355 # ce081e9d <test_ret_val+0xae081e9d>
                  li         ra, 0x3fa8bcfc
     5b4:	3fa8c0b7          	lui	x1,0x3fa8c
     5b8:	cfc08093          	addi	x1,x1,-772 # 3fa8bcfc <test_ret_val+0x1fa8bcfc>
                  li         t3, 0xffffffff
     5bc:	fff00e13          	addi	x28,x0,-1
                  mulhu      a7, ra, t5
     5c0:	03e0b8b3          	mulhu	x17,x1,x30
                  nop
     5c4:	0001                	c.addi	x0,0
                  mulhu      a7, ra, t5
     5c6:	03e0b8b3          	mulhu	x17,x1,x30
                  lui        s11, 985951
     5ca:	f0b5fdb7          	lui	x27,0xf0b5f
                  mul        s3, s7, a3
     5ce:	02db89b3          	mul	x19,x23,x13
                  remu       s11, s7, t3
     5d2:	03cbfdb3          	remu	x27,x23,x28
                  nop
     5d6:	0001                	c.addi	x0,0
                  lui        s11, 985951
     5d8:	f0b5fdb7          	lui	x27,0xf0b5f
                  auipc      a3, 11691
     5dc:	02dab697          	auipc	x13,0x2dab
                  nop
     5e0:	0001                	c.addi	x0,0
                  mul        s3, s7, a3
     5e2:	02db89b3          	mul	x19,x23,x13
                  lui        s11, 985951
     5e6:	f0b5fdb7          	lui	x27,0xf0b5f
                  nop
     5ea:	0001                	c.addi	x0,0
                  nop
     5ec:	0001                	c.addi	x0,0
                  div        t3, s5, s3
     5ee:	033ace33          	div	x28,x21,x19
                  nop
     5f2:	0001                	c.addi	x0,0
                  nop
     5f4:	0001                	c.addi	x0,0
                  add        t5, s7, t5
     5f6:	9f5e                	c.add	x30,x23
                  remu       s11, s7, t3
     5f8:	03cbfdb3          	remu	x27,x23,x28
                  remu       s11, s7, t3
     5fc:	03cbfdb3          	remu	x27,x23,x28
                  addi       t5, s7, -40
     600:	fd8b8f13          	addi	x30,x23,-40 # 7fffffd8 <test_ret_val+0x5fffffd8>
                  remu       s11, s7, t3
     604:	03cbfdb3          	remu	x27,x23,x28
                  remu       s11, s7, t3
     608:	03cbfdb3          	remu	x27,x23,x28
                  sub        s11, t5, t3
     60c:	41cf0db3          	sub	x27,x30,x28
                  nop #end riscv_int_numeric_corner_stream_29
     610:	0001                	c.addi	x0,0
                  li         t2, 0xae086eb9 #start riscv_int_numeric_corner_stream_22
     612:	ae0873b7          	lui	x7,0xae087
     616:	eb938393          	addi	x7,x7,-327 # ae086eb9 <test_ret_val+0x8e086eb9>
                  li         s0, 0x0
     61a:	4401                	c.li	x8,0
                  li         tp, 0x80000000
     61c:	80000237          	lui	x4,0x80000
                  li         t4, 0x80000000
     620:	80000eb7          	lui	x29,0x80000
                  li         ra, 0x0
     624:	4081                	c.li	x1,0
                  li         a0, 0x80000000
     626:	80000537          	lui	x10,0x80000
                  li         s4, 0x80000000
     62a:	80000a37          	lui	x20,0x80000
                  li         s7, 0x0
     62e:	4b81                	c.li	x23,0
                  li         a2, 0x0
     630:	4601                	c.li	x12,0
                  li         s11, 0x0
     632:	4d81                	c.li	x27,0
                  mulhu      ra, a2, t4
     634:	03d630b3          	mulhu	x1,x12,x29
                  addi       ra, s7, -40
     638:	fd8b8093          	addi	x1,x23,-40
                  addi       ra, s7, -40
     63c:	fd8b8093          	addi	x1,x23,-40
                  div        s4, tp, t2
     640:	02724a33          	div	x20,x4,x7
                  mul        a2, s4, a0
     644:	02aa0633          	mul	x12,x20,x10
                  add        s7, s7, a0
     648:	9baa                	c.add	x23,x10
                  add        s7, s7, a0
     64a:	9baa                	c.add	x23,x10
                  nop
     64c:	0001                	c.addi	x0,0
                  nop
     64e:	0001                	c.addi	x0,0
                  add        s7, s7, a0
     650:	9baa                	c.add	x23,x10
                  lui        s7, 985951
     652:	f0b5fbb7          	lui	x23,0xf0b5f
                  nop
     656:	0001                	c.addi	x0,0
                  nop
     658:	0001                	c.addi	x0,0
                  mulhsu     s7, s7, ra
     65a:	021babb3          	mulhsu	x23,x23,x1
                  divu       s0, a0, s11
     65e:	03b55433          	divu	x8,x10,x27
                  addi       ra, s7, -40
     662:	fd8b8093          	addi	x1,x23,-40 # f0b5efd8 <test_ret_val+0xd0b5efd8>
                  divu       s0, a0, s11
     666:	03b55433          	divu	x8,x10,x27
                  lui        s7, 985951
     66a:	f0b5fbb7          	lui	x23,0xf0b5f
                  nop
     66e:	0001                	c.addi	x0,0
                  mulhu      ra, a2, t4
     670:	03d630b3          	mulhu	x1,x12,x29
                  lui        s7, 985951
     674:	f0b5fbb7          	lui	x23,0xf0b5f
                  add        s7, s7, a0
     678:	9baa                	c.add	x23,x10
                  mulh       s4, t4, tp
     67a:	024e9a33          	mulh	x20,x29,x4
                  add        s7, s7, a0 #end riscv_int_numeric_corner_stream_22
     67e:	9baa                	c.add	x23,x10
                  li         s5, 0xffffffff #start riscv_int_numeric_corner_stream_4
     680:	fff00a93          	addi	x21,x0,-1
                  li         t5, 0x0
     684:	4f01                	c.li	x30,0
                  li         s7, 0x80000000
     686:	80000bb7          	lui	x23,0x80000
                  li         sp, 0xffffffff
     68a:	fff00113          	addi	x2,x0,-1
                  li         s2, 0x80000000
     68e:	80000937          	lui	x18,0x80000
                  li         a0, 0x0
     692:	4501                	c.li	x10,0
                  li         s1, 0x80000000
     694:	800004b7          	lui	x9,0x80000
                  li         s9, 0x0
     698:	4c81                	c.li	x25,0
                  li         s11, 0xffffffff
     69a:	fff00d93          	addi	x27,x0,-1
                  li         gp, 0xeaed74f6
     69e:	eaed71b7          	lui	x3,0xeaed7
     6a2:	4f618193          	addi	x3,x3,1270 # eaed74f6 <test_ret_val+0xcaed74f6>
                  divu       s9, a0, s9
     6a6:	03955cb3          	divu	x25,x10,x25
                  nop
     6aa:	0001                	c.addi	x0,0
                  mul        gp, s5, a0
     6ac:	02aa81b3          	mul	x3,x21,x10
                  lui        gp, 985951
     6b0:	f0b5f1b7          	lui	x3,0xf0b5f
                  rem        s9, s2, a0
     6b4:	02a96cb3          	rem	x25,x18,x10
                  mulhsu     s7, sp, gp
     6b8:	02312bb3          	mulhsu	x23,x2,x3
                  div        s5, s9, gp
     6bc:	023ccab3          	div	x21,x25,x3
                  addi       a0, s11, -40
     6c0:	fd8d8513          	addi	x10,x27,-40 # f0b5efd8 <test_ret_val+0xd0b5efd8>
                  div        s5, s9, gp
     6c4:	023ccab3          	div	x21,x25,x3
                  mulhu      s1, gp, t5
     6c8:	03e1b4b3          	mulhu	x9,x3,x30
                  lui        gp, 985951
     6cc:	f0b5f1b7          	lui	x3,0xf0b5f
                  lui        gp, 985951
     6d0:	f0b5f1b7          	lui	x3,0xf0b5f
                  divu       s9, a0, s9
     6d4:	03955cb3          	divu	x25,x10,x25
                  nop
     6d8:	0001                	c.addi	x0,0
                  add        t5, s2, t5
     6da:	9f4a                	c.add	x30,x18
                  div        s5, s9, gp #end riscv_int_numeric_corner_stream_4
     6dc:	023ccab3          	div	x21,x25,x3
                  li         t3, 0x407c80ae #start riscv_int_numeric_corner_stream_8
     6e0:	407c8e37          	lui	x28,0x407c8
     6e4:	0aee0e13          	addi	x28,x28,174 # 407c80ae <test_ret_val+0x207c80ae>
                  li         a4, 0x0
     6e8:	4701                	c.li	x14,0
                  li         s11, 0x0
     6ea:	4d81                	c.li	x27,0
                  li         s8, 0x9c296067
     6ec:	9c296c37          	lui	x24,0x9c296
     6f0:	067c0c13          	addi	x24,x24,103 # 9c296067 <test_ret_val+0x7c296067>
                  li         t5, 0x80000000
     6f4:	80000f37          	lui	x30,0x80000
                  li         gp, 0x80000000
     6f8:	800001b7          	lui	x3,0x80000
                  li         s9, 0x0
     6fc:	4c81                	c.li	x25,0
                  li         a0, 0x80000000
     6fe:	80000537          	lui	x10,0x80000
                  li         s3, 0x0
     702:	4981                	c.li	x19,0
                  li         s10, 0x80000000
     704:	80000d37          	lui	x26,0x80000
                  divu       s9, a4, s9
     708:	03975cb3          	divu	x25,x14,x25
                  nop
     70c:	0001                	c.addi	x0,0
                  mulhu      s9, a4, t5
     70e:	03e73cb3          	mulhu	x25,x14,x30
                  mulhu      s9, a4, t5
     712:	03e73cb3          	mulhu	x25,x14,x30
                  lui        s3, 985951
     716:	f0b5f9b7          	lui	x19,0xf0b5f
                  mulhu      s9, a4, t5
     71a:	03e73cb3          	mulhu	x25,x14,x30
                  lui        s3, 985951
     71e:	f0b5f9b7          	lui	x19,0xf0b5f
                  sub        s8, t5, s8
     722:	418f0c33          	sub	x24,x30,x24
                  add        gp, s11, t5
     726:	01ed81b3          	add	x3,x27,x30
                  mul        gp, t3, a4
     72a:	02ee01b3          	mul	x3,x28,x14
                  sub        s8, t5, s8
     72e:	418f0c33          	sub	x24,x30,x24
                  sub        s8, t5, s8
     732:	418f0c33          	sub	x24,x30,x24
                  divu       s9, a4, s9
     736:	03975cb3          	divu	x25,x14,x25
                  mul        gp, t3, a4
     73a:	02ee01b3          	mul	x3,x28,x14
                  mul        gp, t3, a4
     73e:	02ee01b3          	mul	x3,x28,x14
                  div        a0, t5, gp
     742:	023f4533          	div	x10,x30,x3
                  auipc      a0, 11691
     746:	02dab517          	auipc	x10,0x2dab
                  remu       gp, t5, s10
     74a:	03af71b3          	remu	x3,x30,x26
                  divu       s9, a4, s9
     74e:	03975cb3          	divu	x25,x14,x25
                  nop
     752:	0001                	c.addi	x0,0
                  add        gp, s11, t5
     754:	01ed81b3          	add	x3,x27,x30
                  nop
     758:	0001                	c.addi	x0,0
                  mulhu      s9, a4, t5
     75a:	03e73cb3          	mulhu	x25,x14,x30
                  sub        s8, t5, s8
     75e:	418f0c33          	sub	x24,x30,x24
                  mulh       s11, gp, gp
     762:	02319db3          	mulh	x27,x3,x3
                  mulhu      s9, a4, t5
     766:	03e73cb3          	mulhu	x25,x14,x30
                  mulhsu     s3, a0, gp #end riscv_int_numeric_corner_stream_8
     76a:	023529b3          	mulhsu	x19,x10,x3
                  li         ra, 0x80000000 #start riscv_int_numeric_corner_stream_12
     76e:	800000b7          	lui	x1,0x80000
                  li         t2, 0x80000000
     772:	800003b7          	lui	x7,0x80000
                  li         t4, 0x0
     776:	4e81                	c.li	x29,0
                  li         s5, 0xc8b5b745
     778:	c8b5bab7          	lui	x21,0xc8b5b
     77c:	745a8a93          	addi	x21,x21,1861 # c8b5b745 <test_ret_val+0xa8b5b745>
                  li         t0, 0x0
     780:	4281                	c.li	x5,0
                  li         s0, 0xaf19864a
     782:	af198437          	lui	x8,0xaf198
     786:	64a40413          	addi	x8,x8,1610 # af19864a <test_ret_val+0x8f19864a>
                  li         s9, 0x0
     78a:	4c81                	c.li	x25,0
                  li         s3, 0xffffffff
     78c:	fff00993          	addi	x19,x0,-1
                  li         s7, 0x80000000
     790:	80000bb7          	lui	x23,0x80000
                  li         s1, 0xdb76c9dc
     794:	db76d4b7          	lui	x9,0xdb76d
     798:	9dc48493          	addi	x9,x9,-1572 # db76c9dc <test_ret_val+0xbb76c9dc>
                  sub        s0, s0, s9
     79c:	41940433          	sub	x8,x8,x25
                  lui        t2, 985951
     7a0:	f0b5f3b7          	lui	x7,0xf0b5f
                  addi       s9, s3, -40
     7a4:	fd898c93          	addi	x25,x19,-40 # f0b5efd8 <test_ret_val+0xd0b5efd8>
                  addi       s9, s3, -40
     7a8:	fd898c93          	addi	x25,x19,-40
                  mulh       t0, s7, t0
     7ac:	025b92b3          	mulh	x5,x23,x5
                  mulhu      ra, s1, s7
     7b0:	0374b0b3          	mulhu	x1,x9,x23
                  nop
     7b4:	0001                	c.addi	x0,0
                  nop
     7b6:	0001                	c.addi	x0,0
                  nop
     7b8:	0001                	c.addi	x0,0
                  nop
     7ba:	0001                	c.addi	x0,0
                  remu       s7, s3, s0
     7bc:	0289fbb3          	remu	x23,x19,x8
                  add        t4, s5, s0
     7c0:	008a8eb3          	add	x29,x21,x8
                  remu       s7, s3, s0
     7c4:	0289fbb3          	remu	x23,x19,x8
                  divu       s0, t2, s9
     7c8:	0393d433          	divu	x8,x7,x25
                  auipc      s0, 11691
     7cc:	02dab417          	auipc	x8,0x2dab
                  mulhsu     s7, s7, ra
     7d0:	021babb3          	mulhsu	x23,x23,x1
                  addi       s9, s3, -40
     7d4:	fd898c93          	addi	x25,x19,-40
                  auipc      s0, 11691
     7d8:	02dab417          	auipc	x8,0x2dab
                  addi       s9, s3, -40
     7dc:	fd898c93          	addi	x25,x19,-40
                  add        t4, s5, s0
     7e0:	008a8eb3          	add	x29,x21,x8
                  nop
     7e4:	0001                	c.addi	x0,0
                  mulh       t0, s7, t0
     7e6:	025b92b3          	mulh	x5,x23,x5
                  mulh       t0, s7, t0
     7ea:	025b92b3          	mulh	x5,x23,x5
                  nop
     7ee:	0001                	c.addi	x0,0
                  nop
     7f0:	0001                	c.addi	x0,0
                  div        s9, s1, s3 #end riscv_int_numeric_corner_stream_12
     7f2:	0334ccb3          	div	x25,x9,x19
                  li         t4, 0x80000000 #start riscv_int_numeric_corner_stream_26
     7f6:	80000eb7          	lui	x29,0x80000
                  li         a3, 0x0
     7fa:	4681                	c.li	x13,0
                  li         s2, 0xa091fb6
     7fc:	0a092937          	lui	x18,0xa092
     800:	fb690913          	addi	x18,x18,-74 # a091fb6 <__heap_end+0x9c91fb6>
                  li         t5, 0xffffffff
     804:	fff00f13          	addi	x30,x0,-1
                  li         a4, 0x0
     808:	4701                	c.li	x14,0
                  li         s0, 0x80000000
     80a:	80000437          	lui	x8,0x80000
                  li         s3, 0x0
     80e:	4981                	c.li	x19,0
                  li         t2, 0xffffffff
     810:	fff00393          	addi	x7,x0,-1
                  li         s1, 0x80000000
     814:	800004b7          	lui	x9,0x80000
                  li         s9, 0x80000000
     818:	80000cb7          	lui	x25,0x80000
                  mulhsu     t2, s0, s3
     81c:	033423b3          	mulhsu	x7,x8,x19
                  nop
     820:	0001                	c.addi	x0,0
                  remu       a3, s3, a4
     822:	02e9f6b3          	remu	x13,x19,x14
                  nop
     826:	0001                	c.addi	x0,0
                  div        t4, a3, s3
     828:	0336ceb3          	div	x29,x13,x19
                  add        s2, t2, a4
     82c:	00e38933          	add	x18,x7,x14
                  lui        s3, 985951
     830:	f0b5f9b7          	lui	x19,0xf0b5f
                  mul        s0, a3, a4
     834:	02e68433          	mul	x8,x13,x14
                  add        s2, t2, a4
     838:	00e38933          	add	x18,x7,x14
                  mulh       a3, s3, a3
     83c:	02d996b3          	mulh	x13,x19,x13
                  div        t4, a3, s3
     840:	0336ceb3          	div	x29,x13,x19
                  mul        s0, a3, a4
     844:	02e68433          	mul	x8,x13,x14
                  add        s2, t2, a4
     848:	00e38933          	add	x18,x7,x14
                  divu       a3, a4, s9
     84c:	039756b3          	divu	x13,x14,x25
                  add        s2, t2, a4
     850:	00e38933          	add	x18,x7,x14
                  sub        s9, s9, t5
     854:	41ec8cb3          	sub	x25,x25,x30
                  nop #end riscv_int_numeric_corner_stream_26
     858:	0001                	c.addi	x0,0
                  li         t0, 0x0 #start riscv_int_numeric_corner_stream_30
     85a:	4281                	c.li	x5,0
                  li         t4, 0x0
     85c:	4e81                	c.li	x29,0
                  li         s0, 0x0
     85e:	4401                	c.li	x8,0
                  li         gp, 0x80000000
     860:	800001b7          	lui	x3,0x80000
                  li         t5, 0x0
     864:	4f01                	c.li	x30,0
                  li         t2, 0x0
     866:	4381                	c.li	x7,0
                  li         s2, 0x34fc9f73
     868:	34fca937          	lui	x18,0x34fca
     86c:	f7390913          	addi	x18,x18,-141 # 34fc9f73 <test_ret_val+0x14fc9f73>
                  li         t3, 0x80000000
     870:	80000e37          	lui	x28,0x80000
                  li         a3, 0x12997968
     874:	129986b7          	lui	x13,0x12998
     878:	96868693          	addi	x13,x13,-1688 # 12997968 <print_port+0x2997968>
                  li         a4, 0x80000000
     87c:	80000737          	lui	x14,0x80000
                  mul        t3, t3, a4
     880:	02ee0e33          	mul	x28,x28,x14
                  mulhsu     t2, s0, t0
     884:	025423b3          	mulhsu	x7,x8,x5
                  sub        gp, gp, t3
     888:	41c181b3          	sub	x3,x3,x28
                  sub        gp, gp, t3
     88c:	41c181b3          	sub	x3,x3,x28
                  nop
     890:	0001                	c.addi	x0,0
                  divu       s0, gp, s2
     892:	0321d433          	divu	x8,x3,x18
                  mulh       t3, t4, t0
     896:	025e9e33          	mulh	x28,x29,x5
                  nop
     89a:	0001                	c.addi	x0,0
                  lui        gp, 985951
     89c:	f0b5f1b7          	lui	x3,0xf0b5f
                  remu       t3, gp, a4
     8a0:	02e1fe33          	remu	x28,x3,x14
                  mulhu      t0, a3, t5
     8a4:	03e6b2b3          	mulhu	x5,x13,x30
                  nop
     8a8:	0001                	c.addi	x0,0
                  lui        gp, 985951
     8aa:	f0b5f1b7          	lui	x3,0xf0b5f
                  auipc      s0, 11691
     8ae:	02dab417          	auipc	x8,0x2dab
                  nop
     8b2:	0001                	c.addi	x0,0
                  mulh       t3, t4, t0
     8b4:	025e9e33          	mulh	x28,x29,x5
                  remu       t3, gp, a4
     8b8:	02e1fe33          	remu	x28,x3,x14
                  mulhu      t0, a3, t5
     8bc:	03e6b2b3          	mulhu	x5,x13,x30
                  mulhsu     t2, s0, t0
     8c0:	025423b3          	mulhsu	x7,x8,x5
                  addi       t4, s2, -40 #end riscv_int_numeric_corner_stream_30
     8c4:	fd890e93          	addi	x29,x18,-40
                  li         a2, 0xffffffff #start riscv_int_numeric_corner_stream_32
     8c8:	fff00613          	addi	x12,x0,-1
                  li         t3, 0xffffffff
     8cc:	fff00e13          	addi	x28,x0,-1
                  li         t4, 0x80000000
     8d0:	80000eb7          	lui	x29,0x80000
                  li         t1, 0xffffffff
     8d4:	fff00313          	addi	x6,x0,-1
                  li         a0, 0x96d8c8c7
     8d8:	96d8d537          	lui	x10,0x96d8d
     8dc:	8c750513          	addi	x10,x10,-1849 # 96d8c8c7 <test_ret_val+0x76d8c8c7>
                  li         sp, 0x80000000
     8e0:	80000137          	lui	x2,0x80000
                  li         s11, 0x75e0c140
     8e4:	75e0cdb7          	lui	x27,0x75e0c
     8e8:	140d8d93          	addi	x27,x27,320 # 75e0c140 <test_ret_val+0x55e0c140>
                  li         a4, 0xa697830b
     8ec:	a6978737          	lui	x14,0xa6978
     8f0:	30b70713          	addi	x14,x14,779 # a697830b <test_ret_val+0x8697830b>
                  li         s0, 0x80000000
     8f4:	80000437          	lui	x8,0x80000
                  li         s9, 0xffffffff
     8f8:	fff00c93          	addi	x25,x0,-1
                  divu       sp, a4, s9
     8fc:	03975133          	divu	x2,x14,x25
                  mulhu      t4, a0, t4
     900:	03d53eb3          	mulhu	x29,x10,x29
                  rem        t4, sp, a4
     904:	02e16eb3          	rem	x29,x2,x14
                  addi       sp, s11, -40
     908:	fd8d8113          	addi	x2,x27,-40
                  mul        a4, a2, a4
     90c:	02e60733          	mul	x14,x12,x14
                  mul        a4, a2, a4
     910:	02e60733          	mul	x14,x12,x14
                  div        a2, t4, sp
     914:	022ec633          	div	x12,x29,x2
                  add        t3, t4, a4
     918:	00ee8e33          	add	x28,x29,x14
                  addi       sp, s11, -40
     91c:	fd8d8113          	addi	x2,x27,-40
                  rem        t4, sp, a4
     920:	02e16eb3          	rem	x29,x2,x14
                  nop
     924:	0001                	c.addi	x0,0
                  add        t3, t4, a4
     926:	00ee8e33          	add	x28,x29,x14
                  add        t3, t4, a4
     92a:	00ee8e33          	add	x28,x29,x14
                  remu       s0, t4, a2
     92e:	02cef433          	remu	x8,x29,x12
                  divu       sp, a4, s9
     932:	03975133          	divu	x2,x14,x25
                  auipc      s0, 11691
     936:	02dab417          	auipc	x8,0x2dab
                  auipc      s0, 11691
     93a:	02dab417          	auipc	x8,0x2dab
                  divu       sp, a4, s9
     93e:	03975133          	divu	x2,x14,x25
                  divu       sp, a4, s9
     942:	03975133          	divu	x2,x14,x25
                  addi       sp, s11, -40
     946:	fd8d8113          	addi	x2,x27,-40
                  nop
     94a:	0001                	c.addi	x0,0
                  sub        t1, sp, s9
     94c:	41910333          	sub	x6,x2,x25
                  mulh       t4, s11, s0
     950:	028d9eb3          	mulh	x29,x27,x8
                  auipc      s0, 11691
     954:	02dab417          	auipc	x8,0x2dab
                  nop #end riscv_int_numeric_corner_stream_32
     958:	0001                	c.addi	x0,0
                  remu       s6, s3, t1
     95a:	0269fb33          	remu	x22,x19,x6
                  div        s7, gp, a4
     95e:	02e1cbb3          	div	x23,x3,x14
                  c.xor      a4, a5
     962:	8f3d                	c.xor	x14,x15
                  and        s6, t2, a4
     964:	00e3fb33          	and	x22,x7,x14
                  sra        s9, s4, t5
     968:	41ea5cb3          	sra	x25,x20,x30
                  c.slli     t5, 22
     96c:	0f5a                	c.slli	x30,0x16
                  c.or       a0, a2
     96e:	8d51                	c.or	x10,x12
                  srl        t1, tp, zero
     970:	00025333          	srl	x6,x4,x0
                  addi       gp, s8, -298
     974:	ed6c0193          	addi	x3,x24,-298
                  or         a4, a4, zero
     978:	00076733          	or	x14,x14,x0
                  addi       gp, s8, -298
     97c:	ed6c0193          	addi	x3,x24,-298
                  mulh       s1, t4, s11
     980:	03be94b3          	mulh	x9,x29,x27
                  or         a4, a4, zero
     984:	00076733          	or	x14,x14,x0
                  or         a4, a4, zero
     988:	00076733          	or	x14,x14,x0
                  c.li       s11, -1
     98c:	5dfd                	c.li	x27,-1
                  sltu       s3, a6, a4
     98e:	00e839b3          	sltu	x19,x16,x14
                  div        s7, gp, a4
     992:	02e1cbb3          	div	x23,x3,x14
                  mulhu      s4, a6, t3
     996:	03c83a33          	mulhu	x20,x16,x28
                  srl        t1, tp, zero
     99a:	00025333          	srl	x6,x4,x0
                  c.nop
     99e:	0001                	c.addi	x0,0
                  c.add      t3, t1
     9a0:	9e1a                	c.add	x28,x6
                  slt        a0, s5, s11
     9a2:	01baa533          	slt	x10,x21,x27
                  addi       gp, s8, -298
     9a6:	ed6c0193          	addi	x3,x24,-298
                  div        s7, gp, a4
     9aa:	02e1cbb3          	div	x23,x3,x14
                  srai       a4, a3, 0
     9ae:	4006d713          	srai	x14,x13,0x0
                  c.addi     s9, -1
     9b2:	1cfd                	c.addi	x25,-1 # 7fffffff <test_ret_val+0x5fffffff>
                  and        s6, t2, a4
     9b4:	00e3fb33          	and	x22,x7,x14
                  c.addi16sp sp, -16
     9b8:	717d                	c.addi16sp	x2,-16
                  slt        a0, s5, s11
     9ba:	01baa533          	slt	x10,x21,x27
                  srl        t1, tp, zero
     9be:	00025333          	srl	x6,x4,x0
                  c.sub      s0, s1
     9c2:	8c05                	c.sub	x8,x9
                  or         a4, a4, zero
     9c4:	00076733          	or	x14,x14,x0
                  srli       zero, a0, 13
     9c8:	00d55013          	srli	x0,x10,0xd
                  sub        s0, t3, gp
     9cc:	403e0433          	sub	x8,x28,x3
                  c.andi     s1, 31
     9d0:	88fd                	c.andi	x9,31
                  c.or       a0, a2
     9d2:	8d51                	c.or	x10,x12
                  c.srai     s1, 28
     9d4:	84f1                	c.srai	x9,0x1c
                  c.addi4spn a2, sp, 528
     9d6:	0c10                	c.addi4spn	x12,x2,528
                  c.addi     s9, -1
     9d8:	1cfd                	c.addi	x25,-1
                  nop
     9da:	0001                	c.addi	x0,0
                  sub        s0, t3, gp
     9dc:	403e0433          	sub	x8,x28,x3
                  c.sub      s0, s1
     9e0:	8c05                	c.sub	x8,x9
                  slti       tp, a1, -167
     9e2:	f595a213          	slti	x4,x11,-167
                  c.mv       a2, a0
     9e6:	862a                	c.mv	x12,x10
                  c.slli     t5, 22
     9e8:	0f5a                	c.slli	x30,0x16
                  sltiu      s3, tp, 300
     9ea:	12c23993          	sltiu	x19,x4,300
                  sltu       s3, a6, a4
     9ee:	00e839b3          	sltu	x19,x16,x14
                  sll        s8, s0, s6
     9f2:	01641c33          	sll	x24,x8,x22
                  auipc      s1, 11691
     9f6:	02dab497          	auipc	x9,0x2dab
                  sra        s9, s4, t5
     9fa:	41ea5cb3          	sra	x25,x20,x30
                  c.mv       a2, a0
     9fe:	862a                	c.mv	x12,x10
                  addi       gp, s8, -298
     a00:	ed6c0193          	addi	x3,x24,-298
                  mulhsu     tp, t5, a6
     a04:	030f2233          	mulhsu	x4,x30,x16
                  mulhsu     tp, t5, a6
     a08:	030f2233          	mulhsu	x4,x30,x16
                  mulhu      s4, a6, t3
     a0c:	03c83a33          	mulhu	x20,x16,x28
                  mulhu      s4, a6, t3
     a10:	03c83a33          	mulhu	x20,x16,x28
                  sll        s8, s0, s6
     a14:	01641c33          	sll	x24,x8,x22
                  c.srai     s1, 28
     a18:	84f1                	c.srai	x9,0x1c
                  slt        a0, s5, s11
     a1a:	01baa533          	slt	x10,x21,x27
                  xori       t3, t1, -721
     a1e:	d2f34e13          	xori	x28,x6,-721
                  c.xor      a4, a5
     a22:	8f3d                	c.xor	x14,x15
                  auipc      s1, 11691
     a24:	02dab497          	auipc	x9,0x2dab
                  slti       tp, a1, -167
     a28:	f595a213          	slti	x4,x11,-167
                  ori        tp, a0, -848
     a2c:	cb056213          	ori	x4,x10,-848
                  c.nop
     a30:	0001                	c.addi	x0,0
                  c.lui      a6, 24
     a32:	6861                	c.lui	x16,0x18
                  c.andi     s1, 31
     a34:	88fd                	c.andi	x9,31
                  sub        s0, t3, gp
     a36:	403e0433          	sub	x8,x28,x3
                  and        s6, t2, a4
     a3a:	00e3fb33          	and	x22,x7,x14
                  mulh       s1, t4, s11
     a3e:	03be94b3          	mulh	x9,x29,x27
                  c.add      t3, t1
     a42:	9e1a                	c.add	x28,x6
                  c.andi     s1, 31
     a44:	88fd                	c.andi	x9,31
                  sltiu      s3, tp, 300
     a46:	12c23993          	sltiu	x19,x4,300
                  c.mv       a2, a0
     a4a:	862a                	c.mv	x12,x10
                  c.mv       a2, a0
     a4c:	862a                	c.mv	x12,x10
                  sltu       s3, a6, a4
     a4e:	00e839b3          	sltu	x19,x16,x14
                  c.addi16sp sp, -16
     a52:	717d                	c.addi16sp	x2,-16
                  sra        s9, s4, t5
     a54:	41ea5cb3          	sra	x25,x20,x30
                  mulhu      s4, a6, t3
     a58:	03c83a33          	mulhu	x20,x16,x28
                  c.or       a0, a2
     a5c:	8d51                	c.or	x10,x12
                  andi       t0, a3, 147
     a5e:	0936f293          	andi	x5,x13,147
                  ori        tp, a0, -848
     a62:	cb056213          	ori	x4,x10,-848
                  slli       a2, a4, 25
     a66:	01971613          	slli	x12,x14,0x19
                  c.addi4spn a2, sp, 528
     a6a:	0c10                	c.addi4spn	x12,x2,528
                  remu       s6, s3, t1
     a6c:	0269fb33          	remu	x22,x19,x6
                  c.xor      a4, a5
     a70:	8f3d                	c.xor	x14,x15
                  c.sub      s0, s1
     a72:	8c05                	c.sub	x8,x9
                  mul        tp, s2, t5
     a74:	03e90233          	mul	x4,x18,x30
                  srl        t1, tp, zero
     a78:	00025333          	srl	x6,x4,x0
                  div        s7, gp, a4
     a7c:	02e1cbb3          	div	x23,x3,x14
                  mulhu      s4, a6, t3
     a80:	03c83a33          	mulhu	x20,x16,x28
                  andi       t0, a3, 147
     a84:	0936f293          	andi	x5,x13,147
                  mulhsu     tp, t5, a6
     a88:	030f2233          	mulhsu	x4,x30,x16
                  c.andi     s1, 31
     a8c:	88fd                	c.andi	x9,31
                  srai       a4, a3, 0
     a8e:	4006d713          	srai	x14,x13,0x0
                  rem        a2, s2, s9
     a92:	03996633          	rem	x12,x18,x25
                  c.slli     t5, 22
     a96:	0f5a                	c.slli	x30,0x16
                  rem        a2, s2, s9
     a98:	03996633          	rem	x12,x18,x25
                  c.and      a4, s1
     a9c:	8f65                	c.and	x14,x9
                  c.addi     s9, -1
     a9e:	1cfd                	c.addi	x25,-1
                  c.andi     s1, 31
     aa0:	88fd                	c.andi	x9,31
                  mul        tp, s2, t5
     aa2:	03e90233          	mul	x4,x18,x30
                  c.li       s11, -1
     aa6:	5dfd                	c.li	x27,-1
                  sub        s0, t3, gp
     aa8:	403e0433          	sub	x8,x28,x3
                  c.srli     a4, 9
     aac:	8325                	c.srli	x14,0x9
                  and        s6, t2, a4
     aae:	00e3fb33          	and	x22,x7,x14
                  andi       t0, a3, 147
     ab2:	0936f293          	andi	x5,x13,147
                  sll        s8, s0, s6
     ab6:	01641c33          	sll	x24,x8,x22
                  c.srli     a4, 9
     aba:	8325                	c.srli	x14,0x9
                  c.xor      a4, a5
     abc:	8f3d                	c.xor	x14,x15
                  sltiu      s3, tp, 300
     abe:	12c23993          	sltiu	x19,x4,300
                  srl        t1, tp, zero
     ac2:	00025333          	srl	x6,x4,x0
                  mul        tp, s2, t5
     ac6:	03e90233          	mul	x4,x18,x30
                  c.and      a4, s1
     aca:	8f65                	c.and	x14,x9
                  nop
     acc:	0001                	c.addi	x0,0
                  slti       tp, a1, -167
     ace:	f595a213          	slti	x4,x11,-167
                  slti       tp, a1, -167
     ad2:	f595a213          	slti	x4,x11,-167
                  add        s4, a7, s6
     ad6:	01688a33          	add	x20,x17,x22
                  c.mv       a2, a0
     ada:	862a                	c.mv	x12,x10
                  mulh       s1, t4, s11
     adc:	03be94b3          	mulh	x9,x29,x27
                  c.srai     s1, 28
     ae0:	84f1                	c.srai	x9,0x1c
                  srai       a4, a3, 0
     ae2:	4006d713          	srai	x14,x13,0x0
                  srli       zero, a0, 13
     ae6:	00d55013          	srli	x0,x10,0xd
                  srl        t1, tp, zero
     aea:	00025333          	srl	x6,x4,x0
                  c.or       a0, a2
     aee:	8d51                	c.or	x10,x12
                  andi       t0, a3, 147
     af0:	0936f293          	andi	x5,x13,147
                  c.nop
     af4:	0001                	c.addi	x0,0
                  divu       tp, s5, t4
     af6:	03dad233          	divu	x4,x21,x29
                  c.sub      s0, s1
     afa:	8c05                	c.sub	x8,x9
                  c.srli     a4, 9
     afc:	8325                	c.srli	x14,0x9
                  mulh       s1, t4, s11
     afe:	03be94b3          	mulh	x9,x29,x27
                  c.mv       a2, a0
     b02:	862a                	c.mv	x12,x10
                  nop
     b04:	0001                	c.addi	x0,0
                  addi       gp, s8, -298
     b06:	ed6c0193          	addi	x3,x24,-298
                  c.sub      s0, s1
     b0a:	8c05                	c.sub	x8,x9
                  c.lui      a6, 24
     b0c:	6861                	c.lui	x16,0x18
                  sltu       s3, a6, a4
     b0e:	00e839b3          	sltu	x19,x16,x14
                  sltiu      s3, tp, 300
     b12:	12c23993          	sltiu	x19,x4,300
                  slti       tp, a1, -167
     b16:	f595a213          	slti	x4,x11,-167
                  c.andi     s1, 31
     b1a:	88fd                	c.andi	x9,31
                  c.mv       a2, a0
     b1c:	862a                	c.mv	x12,x10
                  c.nop
     b1e:	0001                	c.addi	x0,0
                  slt        a0, s5, s11
     b20:	01baa533          	slt	x10,x21,x27
                  xor        s11, zero, s7
     b24:	01704db3          	xor	x27,x0,x23
                  addi       gp, s8, -298
     b28:	ed6c0193          	addi	x3,x24,-298
                  divu       tp, s5, t4
     b2c:	03dad233          	divu	x4,x21,x29
                  c.xor      a4, a5
     b30:	8f3d                	c.xor	x14,x15
                  c.li       s11, -1
     b32:	5dfd                	c.li	x27,-1
                  add        s4, a7, s6
     b34:	01688a33          	add	x20,x17,x22
                  sra        s9, s4, t5
     b38:	41ea5cb3          	sra	x25,x20,x30
                  addi       gp, s8, -298
     b3c:	ed6c0193          	addi	x3,x24,-298
                  c.andi     s1, 31
     b40:	88fd                	c.andi	x9,31
                  c.mv       a2, a0
     b42:	862a                	c.mv	x12,x10
                  addi       gp, s8, -298
     b44:	ed6c0193          	addi	x3,x24,-298
                  c.srli     a4, 9
     b48:	8325                	c.srli	x14,0x9
                  c.or       a0, a2
     b4a:	8d51                	c.or	x10,x12
                  srli       zero, a0, 13
     b4c:	00d55013          	srli	x0,x10,0xd
                  mulh       s1, t4, s11
     b50:	03be94b3          	mulh	x9,x29,x27
                  remu       s6, s3, t1
     b54:	0269fb33          	remu	x22,x19,x6
                  mulh       s1, t4, s11
     b58:	03be94b3          	mulh	x9,x29,x27
                  ori        tp, a0, -848
     b5c:	cb056213          	ori	x4,x10,-848
                  c.slli     t5, 22
     b60:	0f5a                	c.slli	x30,0x16
                  nop
     b62:	0001                	c.addi	x0,0
                  divu       tp, s5, t4
     b64:	03dad233          	divu	x4,x21,x29
                  sltiu      s3, tp, 300
     b68:	12c23993          	sltiu	x19,x4,300
                  mul        tp, s2, t5
     b6c:	03e90233          	mul	x4,x18,x30
                  sltiu      s3, tp, 300
     b70:	12c23993          	sltiu	x19,x4,300
                  c.addi16sp sp, -16
     b74:	717d                	c.addi16sp	x2,-16
                  rem        a2, s2, s9
     b76:	03996633          	rem	x12,x18,x25
                  srai       a4, a3, 0
     b7a:	4006d713          	srai	x14,x13,0x0
                  c.nop
     b7e:	0001                	c.addi	x0,0
                  ori        tp, a0, -848
     b80:	cb056213          	ori	x4,x10,-848
                  mul        tp, s2, t5
     b84:	03e90233          	mul	x4,x18,x30
                  srl        t1, tp, zero
     b88:	00025333          	srl	x6,x4,x0
                  lui        s3, 985951
     b8c:	f0b5f9b7          	lui	x19,0xf0b5f
                  mulhu      s4, a6, t3
     b90:	03c83a33          	mulhu	x20,x16,x28
                  andi       t0, a3, 147
     b94:	0936f293          	andi	x5,x13,147
                  add        s4, a7, s6
     b98:	01688a33          	add	x20,x17,x22
                  xori       t3, t1, -721
     b9c:	d2f34e13          	xori	x28,x6,-721
                  c.add      t3, t1
     ba0:	9e1a                	c.add	x28,x6
                  div        s7, gp, a4
     ba2:	02e1cbb3          	div	x23,x3,x14
                  c.slli     t5, 22
     ba6:	0f5a                	c.slli	x30,0x16
                  srai       a4, a3, 0
     ba8:	4006d713          	srai	x14,x13,0x0
                  c.addi16sp sp, -16
     bac:	717d                	c.addi16sp	x2,-16
                  c.sub      s0, s1
     bae:	8c05                	c.sub	x8,x9
                  slli       a2, a4, 25
     bb0:	01971613          	slli	x12,x14,0x19
                  lui        s3, 985951
     bb4:	f0b5f9b7          	lui	x19,0xf0b5f
                  sra        s9, s4, t5
     bb8:	41ea5cb3          	sra	x25,x20,x30
                  mul        tp, s2, t5
     bbc:	03e90233          	mul	x4,x18,x30
                  slt        a0, s5, s11
     bc0:	01baa533          	slt	x10,x21,x27
                  c.srli     a4, 9
     bc4:	8325                	c.srli	x14,0x9
                  c.srai     s1, 28
     bc6:	84f1                	c.srai	x9,0x1c
                  srli       zero, a0, 13
     bc8:	00d55013          	srli	x0,x10,0xd
                  remu       s6, s3, t1
     bcc:	0269fb33          	remu	x22,x19,x6
                  div        s7, gp, a4
     bd0:	02e1cbb3          	div	x23,x3,x14
                  xor        s11, zero, s7
     bd4:	01704db3          	xor	x27,x0,x23
                  div        s7, gp, a4
     bd8:	02e1cbb3          	div	x23,x3,x14
                  slt        a0, s5, s11
     bdc:	01baa533          	slt	x10,x21,x27
                  sub        s0, t3, gp
     be0:	403e0433          	sub	x8,x28,x3
                  c.li       s11, -1
     be4:	5dfd                	c.li	x27,-1
                  lui        s3, 985951
     be6:	f0b5f9b7          	lui	x19,0xf0b5f
                  srai       a4, a3, 0
     bea:	4006d713          	srai	x14,x13,0x0
                  c.li       s11, -1
     bee:	5dfd                	c.li	x27,-1
                  c.xor      a4, a5
     bf0:	8f3d                	c.xor	x14,x15
                  c.srli     a4, 9
     bf2:	8325                	c.srli	x14,0x9
                  c.xor      a4, a5
     bf4:	8f3d                	c.xor	x14,x15
                  c.mv       a2, a0
     bf6:	862a                	c.mv	x12,x10
                  c.nop
     bf8:	0001                	c.addi	x0,0
                  and        s6, t2, a4
     bfa:	00e3fb33          	and	x22,x7,x14
                  c.nop
     bfe:	0001                	c.addi	x0,0
                  c.addi4spn a2, sp, 528
     c00:	0c10                	c.addi4spn	x12,x2,528
                  c.andi     s1, 31
     c02:	88fd                	c.andi	x9,31
                  c.lui      a6, 24
     c04:	6861                	c.lui	x16,0x18
                  c.add      t3, t1
     c06:	9e1a                	c.add	x28,x6
                  add        s4, a7, s6
     c08:	01688a33          	add	x20,x17,x22
                  c.addi16sp sp, -16
     c0c:	717d                	c.addi16sp	x2,-16
                  c.srli     a4, 9
     c0e:	8325                	c.srli	x14,0x9
                  c.sub      s0, s1
     c10:	8c05                	c.sub	x8,x9
                  c.or       a0, a2
     c12:	8d51                	c.or	x10,x12
                  rem        a2, s2, s9
     c14:	03996633          	rem	x12,x18,x25
                  c.and      a4, s1
     c18:	8f65                	c.and	x14,x9
                  slt        a0, s5, s11
     c1a:	01baa533          	slt	x10,x21,x27
                  divu       tp, s5, t4
     c1e:	03dad233          	divu	x4,x21,x29
                  c.mv       a2, a0
     c22:	862a                	c.mv	x12,x10
                  sll        s8, s0, s6
     c24:	01641c33          	sll	x24,x8,x22
                  div        s7, gp, a4
     c28:	02e1cbb3          	div	x23,x3,x14
                  add        s4, a7, s6
     c2c:	01688a33          	add	x20,x17,x22
                  c.nop
     c30:	0001                	c.addi	x0,0
                  c.add      t3, t1
     c32:	9e1a                	c.add	x28,x6
                  c.lui      a6, 24
     c34:	6861                	c.lui	x16,0x18
                  c.li       s11, -1
     c36:	5dfd                	c.li	x27,-1
                  addi       gp, s8, -298
     c38:	ed6c0193          	addi	x3,x24,-298
                  div        s7, gp, a4
     c3c:	02e1cbb3          	div	x23,x3,x14
                  c.nop
     c40:	0001                	c.addi	x0,0
                  c.sub      s0, s1
     c42:	8c05                	c.sub	x8,x9
                  divu       tp, s5, t4
     c44:	03dad233          	divu	x4,x21,x29
                  or         a4, a4, zero
     c48:	00076733          	or	x14,x14,x0
                  addi       gp, s8, -298
     c4c:	ed6c0193          	addi	x3,x24,-298
                  c.nop
     c50:	0001                	c.addi	x0,0
                  c.addi     s9, -1
     c52:	1cfd                	c.addi	x25,-1
                  c.slli     t5, 22
     c54:	0f5a                	c.slli	x30,0x16
                  andi       t0, a3, 147
     c56:	0936f293          	andi	x5,x13,147
                  c.srai     s1, 28
     c5a:	84f1                	c.srai	x9,0x1c
                  c.add      t3, t1
     c5c:	9e1a                	c.add	x28,x6
                  c.nop
     c5e:	0001                	c.addi	x0,0
                  ori        tp, a0, -848
     c60:	cb056213          	ori	x4,x10,-848
                  xor        s11, zero, s7
     c64:	01704db3          	xor	x27,x0,x23
                  c.slli     t5, 22
     c68:	0f5a                	c.slli	x30,0x16
                  mulh       s1, t4, s11
     c6a:	03be94b3          	mulh	x9,x29,x27
                  c.addi4spn a2, sp, 528
     c6e:	0c10                	c.addi4spn	x12,x2,528
                  c.andi     s1, 31
     c70:	88fd                	c.andi	x9,31
                  srl        t1, tp, zero
     c72:	00025333          	srl	x6,x4,x0
                  auipc      s1, 11691
     c76:	02dab497          	auipc	x9,0x2dab
                  c.li       s11, -1
     c7a:	5dfd                	c.li	x27,-1
                  c.addi16sp sp, -16
     c7c:	717d                	c.addi16sp	x2,-16
                  slt        a0, s5, s11
     c7e:	01baa533          	slt	x10,x21,x27
                  add        s4, a7, s6
     c82:	01688a33          	add	x20,x17,x22
                  ori        tp, a0, -848
     c86:	cb056213          	ori	x4,x10,-848
                  sub        s0, t3, gp
     c8a:	403e0433          	sub	x8,x28,x3
                  srai       a4, a3, 0
     c8e:	4006d713          	srai	x14,x13,0x0
                  nop
     c92:	0001                	c.addi	x0,0
                  remu       s6, s3, t1
     c94:	0269fb33          	remu	x22,x19,x6
                  sll        s8, s0, s6
     c98:	01641c33          	sll	x24,x8,x22
                  c.addi4spn a2, sp, 528
     c9c:	0c10                	c.addi4spn	x12,x2,528
                  srai       a4, a3, 0
     c9e:	4006d713          	srai	x14,x13,0x0
                  slt        a0, s5, s11
     ca2:	01baa533          	slt	x10,x21,x27
                  add        s4, a7, s6
     ca6:	01688a33          	add	x20,x17,x22
                  add        s4, a7, s6
     caa:	01688a33          	add	x20,x17,x22
                  c.xor      a4, a5
     cae:	8f3d                	c.xor	x14,x15
                  lui        s3, 985951
     cb0:	f0b5f9b7          	lui	x19,0xf0b5f
                  c.srli     a4, 9
     cb4:	8325                	c.srli	x14,0x9
                  mulhu      s4, a6, t3
     cb6:	03c83a33          	mulhu	x20,x16,x28
                  c.srai     s1, 28
     cba:	84f1                	c.srai	x9,0x1c
                  lui        s3, 985951
     cbc:	f0b5f9b7          	lui	x19,0xf0b5f
                  srl        t1, tp, zero
     cc0:	00025333          	srl	x6,x4,x0
                  mul        tp, s2, t5
     cc4:	03e90233          	mul	x4,x18,x30
                  slt        a0, s5, s11
     cc8:	01baa533          	slt	x10,x21,x27
                  sra        s9, s4, t5
     ccc:	41ea5cb3          	sra	x25,x20,x30
                  sll        s8, s0, s6
     cd0:	01641c33          	sll	x24,x8,x22
                  slt        a0, s5, s11
     cd4:	01baa533          	slt	x10,x21,x27
                  ori        tp, a0, -848
     cd8:	cb056213          	ori	x4,x10,-848
                  addi       gp, s8, -298
     cdc:	ed6c0193          	addi	x3,x24,-298
                  remu       s6, s3, t1
     ce0:	0269fb33          	remu	x22,x19,x6
                  mulhu      s4, a6, t3
     ce4:	03c83a33          	mulhu	x20,x16,x28
                  and        s6, t2, a4
     ce8:	00e3fb33          	and	x22,x7,x14
                  c.srai     s1, 28
     cec:	84f1                	c.srai	x9,0x1c
                  c.xor      a4, a5
     cee:	8f3d                	c.xor	x14,x15
                  srl        t1, tp, zero
     cf0:	00025333          	srl	x6,x4,x0
                  c.addi16sp sp, -16
     cf4:	717d                	c.addi16sp	x2,-16
                  addi       gp, s8, -298
     cf6:	ed6c0193          	addi	x3,x24,-298
                  nop
     cfa:	0001                	c.addi	x0,0
                  remu       s6, s3, t1
     cfc:	0269fb33          	remu	x22,x19,x6
                  lui        s3, 985951
     d00:	f0b5f9b7          	lui	x19,0xf0b5f
                  c.li       s11, -1
     d04:	5dfd                	c.li	x27,-1
                  c.mv       a2, a0
     d06:	862a                	c.mv	x12,x10
                  add        s4, a7, s6
     d08:	01688a33          	add	x20,x17,x22
                  lui        s3, 985951
     d0c:	f0b5f9b7          	lui	x19,0xf0b5f
                  remu       s6, s3, t1
     d10:	0269fb33          	remu	x22,x19,x6
                  c.srai     s1, 28
     d14:	84f1                	c.srai	x9,0x1c
                  sub        s0, t3, gp
     d16:	403e0433          	sub	x8,x28,x3
                  slti       tp, a1, -167
     d1a:	f595a213          	slti	x4,x11,-167
                  slti       tp, a1, -167
     d1e:	f595a213          	slti	x4,x11,-167
                  srl        t1, tp, zero
     d22:	00025333          	srl	x6,x4,x0
                  lui        s3, 985951
     d26:	f0b5f9b7          	lui	x19,0xf0b5f
                  c.sub      s0, s1
     d2a:	8c05                	c.sub	x8,x9
                  sltu       s3, a6, a4
     d2c:	00e839b3          	sltu	x19,x16,x14
                  srai       a4, a3, 0
     d30:	4006d713          	srai	x14,x13,0x0
                  mulhu      s4, a6, t3
     d34:	03c83a33          	mulhu	x20,x16,x28
                  andi       t0, a3, 147
     d38:	0936f293          	andi	x5,x13,147
                  c.addi4spn a2, sp, 528
     d3c:	0c10                	c.addi4spn	x12,x2,528
                  mulhsu     tp, t5, a6
     d3e:	030f2233          	mulhsu	x4,x30,x16
                  c.slli     t5, 22
     d42:	0f5a                	c.slli	x30,0x16
                  c.lui      a6, 24
     d44:	6861                	c.lui	x16,0x18
                  sltiu      s3, tp, 300
     d46:	12c23993          	sltiu	x19,x4,300
                  ori        tp, a0, -848
     d4a:	cb056213          	ori	x4,x10,-848
                  li         s6, 0x7616aea9 #start riscv_int_numeric_corner_stream_0
     d4e:	7616bb37          	lui	x22,0x7616b
     d52:	ea9b0b13          	addi	x22,x22,-343 # 7616aea9 <test_ret_val+0x5616aea9>
                  li         t5, 0xffffffff
     d56:	fff00f13          	addi	x30,x0,-1
                  li         s5, 0x0
     d5a:	4a81                	c.li	x21,0
                  li         s4, 0xffffffff
     d5c:	fff00a13          	addi	x20,x0,-1
                  li         t2, 0x80000000
     d60:	800003b7          	lui	x7,0x80000
                  li         a4, 0x15ad0402
     d64:	15ad0737          	lui	x14,0x15ad0
     d68:	40270713          	addi	x14,x14,1026 # 15ad0402 <print_port+0x5ad0402>
                  li         s7, 0x80000000
     d6c:	80000bb7          	lui	x23,0x80000
                  li         t0, 0x53566214
     d70:	535662b7          	lui	x5,0x53566
     d74:	21428293          	addi	x5,x5,532 # 53566214 <test_ret_val+0x33566214>
                  li         t3, 0xa62661f
     d78:	0a626e37          	lui	x28,0xa626
     d7c:	61fe0e13          	addi	x28,x28,1567 # a62661f <__heap_end+0xa22661f>
                  li         gp, 0xffffffff
     d80:	fff00193          	addi	x3,x0,-1
                  rem        a4, s4, a4
     d84:	02ea6733          	rem	x14,x20,x14
                  mulhu      s7, s6, t5
     d88:	03eb3bb3          	mulhu	x23,x22,x30
                  nop
     d8c:	0001                	c.addi	x0,0
                  mulhsu     s7, t5, gp
     d8e:	023f2bb3          	mulhsu	x23,x30,x3
                  mulh       gp, s7, t0
     d92:	025b91b3          	mulh	x3,x23,x5
                  auipc      t3, 11691
     d96:	02dabe17          	auipc	x28,0x2dab
                  add        s5, s7, t5
     d9a:	01eb8ab3          	add	x21,x23,x30
                  nop
     d9e:	0001                	c.addi	x0,0
                  rem        a4, s4, a4
     da0:	02ea6733          	rem	x14,x20,x14
                  nop
     da4:	0001                	c.addi	x0,0
                  nop
     da6:	0001                	c.addi	x0,0
                  nop
     da8:	0001                	c.addi	x0,0
                  sub        gp, a4, s5
     daa:	415701b3          	sub	x3,x14,x21
                  addi       a4, s7, -40
     dae:	fd8b8713          	addi	x14,x23,-40 # 7fffffd8 <test_ret_val+0x5fffffd8>
                  remu       a4, gp, s6
     db2:	0361f733          	remu	x14,x3,x22
                  remu       a4, gp, s6
     db6:	0361f733          	remu	x14,x3,x22
                  nop #end riscv_int_numeric_corner_stream_0
     dba:	0001                	c.addi	x0,0
                  div        s7, gp, a4
     dbc:	02e1cbb3          	div	x23,x3,x14
                  sltiu      s3, tp, 300
     dc0:	12c23993          	sltiu	x19,x4,300
                  c.srai     s1, 28
     dc4:	84f1                	c.srai	x9,0x1c
                  c.srli     a4, 9
     dc6:	8325                	c.srli	x14,0x9
                  sll        s8, s0, s6
     dc8:	01641c33          	sll	x24,x8,x22
                  and        s6, t2, a4
     dcc:	00e3fb33          	and	x22,x7,x14
                  c.addi     s9, -1
     dd0:	1cfd                	c.addi	x25,-1
                  sltu       s3, a6, a4
     dd2:	00e839b3          	sltu	x19,x16,x14
                  c.add      t3, t1
     dd6:	9e1a                	c.add	x28,x6
                  c.slli     t5, 22
     dd8:	0f5a                	c.slli	x30,0x16
                  srai       a4, a3, 0
     dda:	4006d713          	srai	x14,x13,0x0
                  c.nop
     dde:	0001                	c.addi	x0,0
                  c.sub      s0, s1
     de0:	8c05                	c.sub	x8,x9
                  slli       a2, a4, 25
     de2:	01971613          	slli	x12,x14,0x19
                  c.andi     s1, 31
     de6:	88fd                	c.andi	x9,31
                  auipc      s1, 11691
     de8:	02dab497          	auipc	x9,0x2dab
                  c.andi     s1, 31
     dec:	88fd                	c.andi	x9,31
                  or         a4, a4, zero
     dee:	00076733          	or	x14,x14,x0
                  andi       t0, a3, 147
     df2:	0936f293          	andi	x5,x13,147
                  xori       t3, t1, -721
     df6:	d2f34e13          	xori	x28,x6,-721
                  c.sub      s0, s1
     dfa:	8c05                	c.sub	x8,x9
                  srai       a4, a3, 0
     dfc:	4006d713          	srai	x14,x13,0x0
                  sltiu      s3, tp, 300
     e00:	12c23993          	sltiu	x19,x4,300
                  srli       zero, a0, 13
     e04:	00d55013          	srli	x0,x10,0xd
                  div        s7, gp, a4
     e08:	02e1cbb3          	div	x23,x3,x14
                  slt        a0, s5, s11
     e0c:	01baa533          	slt	x10,x21,x27
                  c.andi     s1, 31
     e10:	88fd                	c.andi	x9,31
                  sub        s0, t3, gp
     e12:	403e0433          	sub	x8,x28,x3
                  lui        s3, 985951
     e16:	f0b5f9b7          	lui	x19,0xf0b5f
                  sltu       s3, a6, a4
     e1a:	00e839b3          	sltu	x19,x16,x14
                  mulhu      s4, a6, t3
     e1e:	03c83a33          	mulhu	x20,x16,x28
                  sltiu      s3, tp, 300
     e22:	12c23993          	sltiu	x19,x4,300
                  slti       tp, a1, -167
     e26:	f595a213          	slti	x4,x11,-167
                  sltiu      s3, tp, 300
     e2a:	12c23993          	sltiu	x19,x4,300
                  c.addi     s9, -1
     e2e:	1cfd                	c.addi	x25,-1
                  li         a6, 0x80000000 #start riscv_int_numeric_corner_stream_35
     e30:	80000837          	lui	x16,0x80000
                  li         s6, 0x80000000
     e34:	80000b37          	lui	x22,0x80000
                  li         a2, 0x0
     e38:	4601                	c.li	x12,0
                  li         gp, 0xffffffff
     e3a:	fff00193          	addi	x3,x0,-1
                  li         t5, 0x80000000
     e3e:	80000f37          	lui	x30,0x80000
                  li         a0, 0x33b488ff
     e42:	33b49537          	lui	x10,0x33b49
     e46:	8ff50513          	addi	x10,x10,-1793 # 33b488ff <test_ret_val+0x13b488ff>
                  li         s2, 0x80000000
     e4a:	80000937          	lui	x18,0x80000
                  li         s3, 0x0
     e4e:	4981                	c.li	x19,0
                  li         t1, 0xa27585b5
     e50:	a2758337          	lui	x6,0xa2758
     e54:	5b530313          	addi	x6,x6,1461 # a27585b5 <test_ret_val+0x827585b5>
                  li         sp, 0xffffffff
     e58:	fff00113          	addi	x2,x0,-1
                  rem        gp, s2, t1
     e5c:	026961b3          	rem	x3,x18,x6
                  add        s6, s3, t5
     e60:	01e98b33          	add	x22,x19,x30
                  nop
     e64:	0001                	c.addi	x0,0
                  nop
     e66:	0001                	c.addi	x0,0
                  sub        t5, a6, t5
     e68:	41e80f33          	sub	x30,x16,x30
                  remu       t1, t5, a2
     e6c:	02cf7333          	remu	x6,x30,x12
                  sub        t5, a6, t5
     e70:	41e80f33          	sub	x30,x16,x30
                  sub        t5, a6, t5
     e74:	41e80f33          	sub	x30,x16,x30
                  auipc      a2, 11691
     e78:	02dab617          	auipc	x12,0x2dab
                  div        a2, a0, gp
     e7c:	02354633          	div	x12,x10,x3
                  mul        a2, t1, a2
     e80:	02c30633          	mul	x12,x6,x12
                  add        s6, s3, t5
     e84:	01e98b33          	add	x22,x19,x30
                  mulhsu     t5, t5, gp
     e88:	023f2f33          	mulhsu	x30,x30,x3
                  nop
     e8c:	0001                	c.addi	x0,0
                  nop
     e8e:	0001                	c.addi	x0,0
                  mulhsu     t5, t5, gp
     e90:	023f2f33          	mulhsu	x30,x30,x3
                  mulhu      t5, s6, t5
     e94:	03eb3f33          	mulhu	x30,x22,x30
                  add        s6, s3, t5
     e98:	01e98b33          	add	x22,x19,x30
                  add        s6, s3, t5
     e9c:	01e98b33          	add	x22,x19,x30
                  nop #end riscv_int_numeric_corner_stream_35
     ea0:	0001                	c.addi	x0,0
                  slti       tp, a1, -167
     ea2:	f595a213          	slti	x4,x11,-167
                  auipc      s1, 11691
     ea6:	02dab497          	auipc	x9,0x2dab
                  srli       zero, a0, 13
     eaa:	00d55013          	srli	x0,x10,0xd
                  c.sub      s0, s1
     eae:	8c05                	c.sub	x8,x9
                  auipc      s1, 11691
     eb0:	02dab497          	auipc	x9,0x2dab
                  slt        a0, s5, s11
     eb4:	01baa533          	slt	x10,x21,x27
                  rem        a2, s2, s9
     eb8:	03996633          	rem	x12,x18,x25
                  c.lui      a6, 24
     ebc:	6861                	c.lui	x16,0x18
                  c.srai     s1, 28
     ebe:	84f1                	c.srai	x9,0x1c
                  andi       t0, a3, 147
     ec0:	0936f293          	andi	x5,x13,147
                  add        s4, a7, s6
     ec4:	01688a33          	add	x20,x17,x22
                  nop
     ec8:	0001                	c.addi	x0,0
                  xori       t3, t1, -721
     eca:	d2f34e13          	xori	x28,x6,-721
                  c.lui      a6, 24
     ece:	6861                	c.lui	x16,0x18
                  andi       t0, a3, 147
     ed0:	0936f293          	andi	x5,x13,147
                  c.srai     s1, 28
     ed4:	84f1                	c.srai	x9,0x1c
                  c.add      t3, t1
     ed6:	9e1a                	c.add	x28,x6
                  c.lui      a6, 24
     ed8:	6861                	c.lui	x16,0x18
                  c.srai     s1, 28
     eda:	84f1                	c.srai	x9,0x1c
                  ori        tp, a0, -848
     edc:	cb056213          	ori	x4,x10,-848
                  c.andi     s1, 31
     ee0:	88fd                	c.andi	x9,31
                  c.li       s11, -1
     ee2:	5dfd                	c.li	x27,-1
                  c.addi     s9, -1
     ee4:	1cfd                	c.addi	x25,-1
                  srli       zero, a0, 13
     ee6:	00d55013          	srli	x0,x10,0xd
                  sll        s8, s0, s6
     eea:	01641c33          	sll	x24,x8,x22
                  c.lui      a6, 24
     eee:	6861                	c.lui	x16,0x18
                  slt        a0, s5, s11
     ef0:	01baa533          	slt	x10,x21,x27
                  sll        s8, s0, s6
     ef4:	01641c33          	sll	x24,x8,x22
                  c.addi     s9, -1
     ef8:	1cfd                	c.addi	x25,-1
                  mulhu      s4, a6, t3
     efa:	03c83a33          	mulhu	x20,x16,x28
                  slti       tp, a1, -167
     efe:	f595a213          	slti	x4,x11,-167
                  div        s7, gp, a4
     f02:	02e1cbb3          	div	x23,x3,x14
                  c.xor      a4, a5
     f06:	8f3d                	c.xor	x14,x15
                  sll        s8, s0, s6
     f08:	01641c33          	sll	x24,x8,x22
                  remu       s6, s3, t1
     f0c:	0269fb33          	remu	x22,x19,x6
                  xor        s11, zero, s7
     f10:	01704db3          	xor	x27,x0,x23
                  nop
     f14:	0001                	c.addi	x0,0
                  lui        s3, 985951
     f16:	f0b5f9b7          	lui	x19,0xf0b5f
                  mul        tp, s2, t5
     f1a:	03e90233          	mul	x4,x18,x30
                  c.add      t3, t1
     f1e:	9e1a                	c.add	x28,x6
                  add        s4, a7, s6
     f20:	01688a33          	add	x20,x17,x22
                  sub        s0, t3, gp
     f24:	403e0433          	sub	x8,x28,x3
                  andi       t0, a3, 147
     f28:	0936f293          	andi	x5,x13,147
                  srai       a4, a3, 0
     f2c:	4006d713          	srai	x14,x13,0x0
                  remu       s6, s3, t1
     f30:	0269fb33          	remu	x22,x19,x6
                  c.add      t3, t1
     f34:	9e1a                	c.add	x28,x6
                  ori        tp, a0, -848
     f36:	cb056213          	ori	x4,x10,-848
                  c.sub      s0, s1
     f3a:	8c05                	c.sub	x8,x9
                  c.nop
     f3c:	0001                	c.addi	x0,0
                  add        s4, a7, s6
     f3e:	01688a33          	add	x20,x17,x22
                  c.addi     s9, -1
     f42:	1cfd                	c.addi	x25,-1
                  slti       tp, a1, -167
     f44:	f595a213          	slti	x4,x11,-167
                  mul        tp, s2, t5
     f48:	03e90233          	mul	x4,x18,x30
                  mulhu      s4, a6, t3
     f4c:	03c83a33          	mulhu	x20,x16,x28
                  sltiu      s3, tp, 300
     f50:	12c23993          	sltiu	x19,x4,300
                  divu       tp, s5, t4
     f54:	03dad233          	divu	x4,x21,x29
                  mulhu      s4, a6, t3
     f58:	03c83a33          	mulhu	x20,x16,x28
                  srli       zero, a0, 13
     f5c:	00d55013          	srli	x0,x10,0xd
                  sra        s9, s4, t5
     f60:	41ea5cb3          	sra	x25,x20,x30
                  c.li       s11, -1
     f64:	5dfd                	c.li	x27,-1
                  add        s4, a7, s6
     f66:	01688a33          	add	x20,x17,x22
                  rem        a2, s2, s9
     f6a:	03996633          	rem	x12,x18,x25
                  c.addi     s9, -1
     f6e:	1cfd                	c.addi	x25,-1
                  xor        s11, zero, s7
     f70:	01704db3          	xor	x27,x0,x23
                  c.nop
     f74:	0001                	c.addi	x0,0
                  addi       gp, s8, -298
     f76:	ed6c0193          	addi	x3,x24,-298
                  c.and      a4, s1
     f7a:	8f65                	c.and	x14,x9
                  mulhsu     tp, t5, a6
     f7c:	030f2233          	mulhsu	x4,x30,x16
                  mulhsu     tp, t5, a6
     f80:	030f2233          	mulhsu	x4,x30,x16
                  c.and      a4, s1
     f84:	8f65                	c.and	x14,x9
                  xori       t3, t1, -721
     f86:	d2f34e13          	xori	x28,x6,-721
                  div        s7, gp, a4
     f8a:	02e1cbb3          	div	x23,x3,x14
                  sltiu      s3, tp, 300
     f8e:	12c23993          	sltiu	x19,x4,300
                  c.mv       a2, a0
     f92:	862a                	c.mv	x12,x10
                  slti       tp, a1, -167
     f94:	f595a213          	slti	x4,x11,-167
                  sub        s0, t3, gp
     f98:	403e0433          	sub	x8,x28,x3
                  sub        s0, t3, gp
     f9c:	403e0433          	sub	x8,x28,x3
                  c.mv       a2, a0
     fa0:	862a                	c.mv	x12,x10
                  c.addi4spn a2, sp, 528
     fa2:	0c10                	c.addi4spn	x12,x2,528
                  c.and      a4, s1
     fa4:	8f65                	c.and	x14,x9
                  c.srli     a4, 9
     fa6:	8325                	c.srli	x14,0x9
                  remu       s6, s3, t1
     fa8:	0269fb33          	remu	x22,x19,x6
                  c.li       s11, -1
     fac:	5dfd                	c.li	x27,-1
                  srl        t1, tp, zero
     fae:	00025333          	srl	x6,x4,x0
                  remu       s6, s3, t1
     fb2:	0269fb33          	remu	x22,x19,x6
                  mulh       s1, t4, s11
     fb6:	03be94b3          	mulh	x9,x29,x27
                  mulhu      s4, a6, t3
     fba:	03c83a33          	mulhu	x20,x16,x28
                  remu       s6, s3, t1
     fbe:	0269fb33          	remu	x22,x19,x6
                  c.slli     t5, 22
     fc2:	0f5a                	c.slli	x30,0x16
                  c.sub      s0, s1
     fc4:	8c05                	c.sub	x8,x9
                  slli       a2, a4, 25
     fc6:	01971613          	slli	x12,x14,0x19
                  sll        s8, s0, s6
     fca:	01641c33          	sll	x24,x8,x22
                  slti       tp, a1, -167
     fce:	f595a213          	slti	x4,x11,-167
                  c.andi     s1, 31
     fd2:	88fd                	c.andi	x9,31
                  srai       a4, a3, 0
     fd4:	4006d713          	srai	x14,x13,0x0
                  c.addi16sp sp, -16
     fd8:	717d                	c.addi16sp	x2,-16
                  c.nop
     fda:	0001                	c.addi	x0,0
                  c.addi     s9, -1
     fdc:	1cfd                	c.addi	x25,-1
                  sll        s8, s0, s6
     fde:	01641c33          	sll	x24,x8,x22
                  c.addi16sp sp, -16
     fe2:	717d                	c.addi16sp	x2,-16
                  c.mv       a2, a0
     fe4:	862a                	c.mv	x12,x10
                  c.lui      a6, 24
     fe6:	6861                	c.lui	x16,0x18
                  mulh       s1, t4, s11
     fe8:	03be94b3          	mulh	x9,x29,x27
                  mulhsu     tp, t5, a6
     fec:	030f2233          	mulhsu	x4,x30,x16
                  auipc      s1, 11691
     ff0:	02dab497          	auipc	x9,0x2dab
                  c.sub      s0, s1
     ff4:	8c05                	c.sub	x8,x9
                  c.add      t3, t1
     ff6:	9e1a                	c.add	x28,x6
                  slt        a0, s5, s11
     ff8:	01baa533          	slt	x10,x21,x27
                  slt        a0, s5, s11
     ffc:	01baa533          	slt	x10,x21,x27
                  auipc      s1, 11691
    1000:	02dab497          	auipc	x9,0x2dab
                  mulhsu     tp, t5, a6
    1004:	030f2233          	mulhsu	x4,x30,x16
                  srai       a4, a3, 0
    1008:	4006d713          	srai	x14,x13,0x0
                  slli       a2, a4, 25
    100c:	01971613          	slli	x12,x14,0x19
                  c.addi16sp sp, -16
    1010:	717d                	c.addi16sp	x2,-16
                  mul        tp, s2, t5
    1012:	03e90233          	mul	x4,x18,x30
                  srl        t1, tp, zero
    1016:	00025333          	srl	x6,x4,x0
                  auipc      s1, 11691
    101a:	02dab497          	auipc	x9,0x2dab
                  slli       a2, a4, 25
    101e:	01971613          	slli	x12,x14,0x19
                  slti       tp, a1, -167
    1022:	f595a213          	slti	x4,x11,-167
                  sra        s9, s4, t5
    1026:	41ea5cb3          	sra	x25,x20,x30
                  div        s7, gp, a4
    102a:	02e1cbb3          	div	x23,x3,x14
                  sll        s8, s0, s6
    102e:	01641c33          	sll	x24,x8,x22
                  c.addi     s9, -1
    1032:	1cfd                	c.addi	x25,-1
                  slti       tp, a1, -167
    1034:	f595a213          	slti	x4,x11,-167
                  c.sub      s0, s1
    1038:	8c05                	c.sub	x8,x9
                  c.srai     s1, 28
    103a:	84f1                	c.srai	x9,0x1c
                  mulhu      s4, a6, t3
    103c:	03c83a33          	mulhu	x20,x16,x28
                  c.and      a4, s1
    1040:	8f65                	c.and	x14,x9
                  xor        s11, zero, s7
    1042:	01704db3          	xor	x27,x0,x23
                  slli       a2, a4, 25
    1046:	01971613          	slli	x12,x14,0x19
                  divu       tp, s5, t4
    104a:	03dad233          	divu	x4,x21,x29
                  c.srli     a4, 9
    104e:	8325                	c.srli	x14,0x9
                  c.addi4spn a2, sp, 528
    1050:	0c10                	c.addi4spn	x12,x2,528
                  rem        a2, s2, s9
    1052:	03996633          	rem	x12,x18,x25
                  mulhsu     tp, t5, a6
    1056:	030f2233          	mulhsu	x4,x30,x16
                  c.andi     s1, 31
    105a:	88fd                	c.andi	x9,31
                  srai       a4, a3, 0
    105c:	4006d713          	srai	x14,x13,0x0
                  ori        tp, a0, -848
    1060:	cb056213          	ori	x4,x10,-848
                  mul        tp, s2, t5
    1064:	03e90233          	mul	x4,x18,x30
                  sub        s0, t3, gp
    1068:	403e0433          	sub	x8,x28,x3
                  remu       s6, s3, t1
    106c:	0269fb33          	remu	x22,x19,x6
                  andi       t0, a3, 147
    1070:	0936f293          	andi	x5,x13,147
                  sltiu      s3, tp, 300
    1074:	12c23993          	sltiu	x19,x4,300
                  and        s6, t2, a4
    1078:	00e3fb33          	and	x22,x7,x14
                  c.and      a4, s1
    107c:	8f65                	c.and	x14,x9
                  sltu       s3, a6, a4
    107e:	00e839b3          	sltu	x19,x16,x14
                  sltiu      s3, tp, 300
    1082:	12c23993          	sltiu	x19,x4,300
                  slt        a0, s5, s11
    1086:	01baa533          	slt	x10,x21,x27
                  c.add      t3, t1
    108a:	9e1a                	c.add	x28,x6
                  nop
    108c:	0001                	c.addi	x0,0
                  or         a4, a4, zero
    108e:	00076733          	or	x14,x14,x0
                  xori       t3, t1, -721
    1092:	d2f34e13          	xori	x28,x6,-721
                  xor        s11, zero, s7
    1096:	01704db3          	xor	x27,x0,x23
                  c.lui      a6, 24
    109a:	6861                	c.lui	x16,0x18
                  c.slli     t5, 22
    109c:	0f5a                	c.slli	x30,0x16
                  xor        s11, zero, s7
    109e:	01704db3          	xor	x27,x0,x23
                  sra        s9, s4, t5
    10a2:	41ea5cb3          	sra	x25,x20,x30
                  slli       a2, a4, 25
    10a6:	01971613          	slli	x12,x14,0x19
                  divu       tp, s5, t4
    10aa:	03dad233          	divu	x4,x21,x29
                  srl        t1, tp, zero
    10ae:	00025333          	srl	x6,x4,x0
                  c.srli     a4, 9
    10b2:	8325                	c.srli	x14,0x9
                  srl        t1, tp, zero
    10b4:	00025333          	srl	x6,x4,x0
                  sltiu      s3, tp, 300
    10b8:	12c23993          	sltiu	x19,x4,300
                  mul        tp, s2, t5
    10bc:	03e90233          	mul	x4,x18,x30
                  c.and      a4, s1
    10c0:	8f65                	c.and	x14,x9
                  c.li       s11, -1
    10c2:	5dfd                	c.li	x27,-1
                  c.li       s11, -1
    10c4:	5dfd                	c.li	x27,-1
                  c.or       a0, a2
    10c6:	8d51                	c.or	x10,x12
                  c.srai     s1, 28
    10c8:	84f1                	c.srai	x9,0x1c
                  or         a4, a4, zero
    10ca:	00076733          	or	x14,x14,x0
                  c.xor      a4, a5
    10ce:	8f3d                	c.xor	x14,x15
                  mulh       s1, t4, s11
    10d0:	03be94b3          	mulh	x9,x29,x27
                  c.li       s11, -1
    10d4:	5dfd                	c.li	x27,-1
                  lui        s3, 985951
    10d6:	f0b5f9b7          	lui	x19,0xf0b5f
                  c.addi4spn a2, sp, 528
    10da:	0c10                	c.addi4spn	x12,x2,528
                  c.srli     a4, 9
    10dc:	8325                	c.srli	x14,0x9
                  andi       t0, a3, 147
    10de:	0936f293          	andi	x5,x13,147
                  c.mv       a2, a0
    10e2:	862a                	c.mv	x12,x10
                  and        s6, t2, a4
    10e4:	00e3fb33          	and	x22,x7,x14
                  slt        a0, s5, s11
    10e8:	01baa533          	slt	x10,x21,x27
                  nop
    10ec:	0001                	c.addi	x0,0
                  slli       a2, a4, 25
    10ee:	01971613          	slli	x12,x14,0x19
                  slti       tp, a1, -167
    10f2:	f595a213          	slti	x4,x11,-167
                  add        s4, a7, s6
    10f6:	01688a33          	add	x20,x17,x22
                  divu       tp, s5, t4
    10fa:	03dad233          	divu	x4,x21,x29
                  slti       tp, a1, -167
    10fe:	f595a213          	slti	x4,x11,-167
                  mul        tp, s2, t5
    1102:	03e90233          	mul	x4,x18,x30
                  ori        tp, a0, -848
    1106:	cb056213          	ori	x4,x10,-848
                  c.addi     s9, -1
    110a:	1cfd                	c.addi	x25,-1
                  sltu       s3, a6, a4
    110c:	00e839b3          	sltu	x19,x16,x14
                  c.addi4spn a2, sp, 528
    1110:	0c10                	c.addi4spn	x12,x2,528
                  slli       a2, a4, 25
    1112:	01971613          	slli	x12,x14,0x19
                  c.li       s11, -1
    1116:	5dfd                	c.li	x27,-1
                  mulhsu     tp, t5, a6
    1118:	030f2233          	mulhsu	x4,x30,x16
                  andi       t0, a3, 147
    111c:	0936f293          	andi	x5,x13,147
                  c.mv       a2, a0
    1120:	862a                	c.mv	x12,x10
                  c.srli     a4, 9
    1122:	8325                	c.srli	x14,0x9
                  slti       tp, a1, -167
    1124:	f595a213          	slti	x4,x11,-167
                  xori       t3, t1, -721
    1128:	d2f34e13          	xori	x28,x6,-721
                  c.addi     s9, -1
    112c:	1cfd                	c.addi	x25,-1
                  divu       tp, s5, t4
    112e:	03dad233          	divu	x4,x21,x29
                  sub        s0, t3, gp
    1132:	403e0433          	sub	x8,x28,x3
                  srai       a4, a3, 0
    1136:	4006d713          	srai	x14,x13,0x0
                  c.addi4spn a2, sp, 528
    113a:	0c10                	c.addi4spn	x12,x2,528
                  andi       t0, a3, 147
    113c:	0936f293          	andi	x5,x13,147
                  sltu       s3, a6, a4
    1140:	00e839b3          	sltu	x19,x16,x14
                  c.srli     a4, 9
    1144:	8325                	c.srli	x14,0x9
                  and        s6, t2, a4
    1146:	00e3fb33          	and	x22,x7,x14
                  c.nop
    114a:	0001                	c.addi	x0,0
                  mulhu      s4, a6, t3
    114c:	03c83a33          	mulhu	x20,x16,x28
                  c.sub      s0, s1
    1150:	8c05                	c.sub	x8,x9
                  sltu       s3, a6, a4
    1152:	00e839b3          	sltu	x19,x16,x14
                  and        s6, t2, a4
    1156:	00e3fb33          	and	x22,x7,x14
                  slti       tp, a1, -167
    115a:	f595a213          	slti	x4,x11,-167
                  c.and      a4, s1
    115e:	8f65                	c.and	x14,x9
                  c.lui      a6, 24
    1160:	6861                	c.lui	x16,0x18
                  c.srli     a4, 9
    1162:	8325                	c.srli	x14,0x9
                  div        s7, gp, a4
    1164:	02e1cbb3          	div	x23,x3,x14
                  addi       gp, s8, -298
    1168:	ed6c0193          	addi	x3,x24,-298
                  xori       t3, t1, -721
    116c:	d2f34e13          	xori	x28,x6,-721
                  sll        s8, s0, s6
    1170:	01641c33          	sll	x24,x8,x22
                  c.or       a0, a2
    1174:	8d51                	c.or	x10,x12
                  c.srai     s1, 28
    1176:	84f1                	c.srai	x9,0x1c
                  c.add      t3, t1
    1178:	9e1a                	c.add	x28,x6
                  mulhsu     tp, t5, a6
    117a:	030f2233          	mulhsu	x4,x30,x16
                  add        s4, a7, s6
    117e:	01688a33          	add	x20,x17,x22
                  mulhsu     tp, t5, a6
    1182:	030f2233          	mulhsu	x4,x30,x16
                  c.srai     s1, 28
    1186:	84f1                	c.srai	x9,0x1c
                  sra        s9, s4, t5
    1188:	41ea5cb3          	sra	x25,x20,x30
                  sll        s8, s0, s6
    118c:	01641c33          	sll	x24,x8,x22
                  xor        s11, zero, s7
    1190:	01704db3          	xor	x27,x0,x23
                  nop
    1194:	0001                	c.addi	x0,0
                  mulhsu     tp, t5, a6
    1196:	030f2233          	mulhsu	x4,x30,x16
                  lui        s3, 985951
    119a:	f0b5f9b7          	lui	x19,0xf0b5f
                  xor        s11, zero, s7
    119e:	01704db3          	xor	x27,x0,x23
                  mulh       s1, t4, s11
    11a2:	03be94b3          	mulh	x9,x29,x27
                  srai       a4, a3, 0
    11a6:	4006d713          	srai	x14,x13,0x0
                  c.lui      a6, 24
    11aa:	6861                	c.lui	x16,0x18
                  sra        s9, s4, t5
    11ac:	41ea5cb3          	sra	x25,x20,x30
                  and        s6, t2, a4
    11b0:	00e3fb33          	and	x22,x7,x14
                  c.li       s11, -1
    11b4:	5dfd                	c.li	x27,-1
                  li         s7, 0x0 #start riscv_int_numeric_corner_stream_38
    11b6:	4b81                	c.li	x23,0
                  li         s0, 0xedd3f26b
    11b8:	edd3f437          	lui	x8,0xedd3f
    11bc:	26b40413          	addi	x8,x8,619 # edd3f26b <test_ret_val+0xcdd3f26b>
                  li         tp, 0x0
    11c0:	4201                	c.li	x4,0
                  li         gp, 0x0
    11c2:	4181                	c.li	x3,0
                  li         t0, 0x0
    11c4:	4281                	c.li	x5,0
                  li         s8, 0xffffffff
    11c6:	fff00c13          	addi	x24,x0,-1
                  li         s6, 0xffffffff
    11ca:	fff00b13          	addi	x22,x0,-1
                  li         s11, 0x6e0f303b
    11ce:	6e0f3db7          	lui	x27,0x6e0f3
    11d2:	03bd8d93          	addi	x27,x27,59 # 6e0f303b <test_ret_val+0x4e0f303b>
                  li         t4, 0xffffffff
    11d6:	fff00e93          	addi	x29,x0,-1
                  li         t5, 0xce724ebd
    11da:	ce725f37          	lui	x30,0xce725
    11de:	ebdf0f13          	addi	x30,x30,-323 # ce724ebd <test_ret_val+0xae724ebd>
                  remu       s8, s11, tp
    11e2:	024dfc33          	remu	x24,x27,x4
                  sub        s11, gp, s8
    11e6:	41818db3          	sub	x27,x3,x24
                  mulhu      s7, s6, t5
    11ea:	03eb3bb3          	mulhu	x23,x22,x30
                  nop
    11ee:	0001                	c.addi	x0,0
                  div        s8, tp, t0
    11f0:	02524c33          	div	x24,x4,x5
                  nop
    11f4:	0001                	c.addi	x0,0
                  add        s6, tp, t5
    11f6:	01e20b33          	add	x22,x4,x30
                  nop
    11fa:	0001                	c.addi	x0,0
                  sub        s11, gp, s8
    11fc:	41818db3          	sub	x27,x3,x24
                  nop
    1200:	0001                	c.addi	x0,0
                  nop
    1202:	0001                	c.addi	x0,0
                  addi       t0, s11, -40
    1204:	fd8d8293          	addi	x5,x27,-40
                  nop
    1208:	0001                	c.addi	x0,0
                  add        s6, tp, t5
    120a:	01e20b33          	add	x22,x4,x30
                  divu       s0, gp, s8
    120e:	0381d433          	divu	x8,x3,x24
                  lui        gp, 985951
    1212:	f0b5f1b7          	lui	x3,0xf0b5f
                  sub        s11, gp, s8
    1216:	41818db3          	sub	x27,x3,x24
                  nop
    121a:	0001                	c.addi	x0,0
                  nop
    121c:	0001                	c.addi	x0,0
                  mulhu      s7, s6, t5
    121e:	03eb3bb3          	mulhu	x23,x22,x30
                  mul        s8, s6, s0
    1222:	028b0c33          	mul	x24,x22,x8
                  sub        s11, gp, s8
    1226:	41818db3          	sub	x27,x3,x24
                  mulh       t0, s7, tp
    122a:	024b92b3          	mulh	x5,x23,x4
                  rem        t4, s8, gp
    122e:	023c6eb3          	rem	x29,x24,x3
                  mulhsu     t5, s7, gp
    1232:	023baf33          	mulhsu	x30,x23,x3
                  nop
    1236:	0001                	c.addi	x0,0
                  mulhu      s7, s6, t5
    1238:	03eb3bb3          	mulhu	x23,x22,x30
                  addi       t0, s11, -40 #end riscv_int_numeric_corner_stream_38
    123c:	fd8d8293          	addi	x5,x27,-40
                  or         a4, a4, zero
    1240:	00076733          	or	x14,x14,x0
                  c.sub      s0, s1
    1244:	8c05                	c.sub	x8,x9
                  c.sub      s0, s1
    1246:	8c05                	c.sub	x8,x9
                  c.or       a0, a2
    1248:	8d51                	c.or	x10,x12
                  c.li       s11, -1
    124a:	5dfd                	c.li	x27,-1
                  c.srai     s1, 28
    124c:	84f1                	c.srai	x9,0x1c
                  rem        a2, s2, s9
    124e:	03996633          	rem	x12,x18,x25
                  c.slli     t5, 22
    1252:	0f5a                	c.slli	x30,0x16
                  c.andi     s1, 31
    1254:	88fd                	c.andi	x9,31
                  mulhsu     tp, t5, a6
    1256:	030f2233          	mulhsu	x4,x30,x16
                  div        s7, gp, a4
    125a:	02e1cbb3          	div	x23,x3,x14
                  srli       zero, a0, 13
    125e:	00d55013          	srli	x0,x10,0xd
                  srli       zero, a0, 13
    1262:	00d55013          	srli	x0,x10,0xd
                  c.addi16sp sp, -16
    1266:	717d                	c.addi16sp	x2,-16
                  c.or       a0, a2
    1268:	8d51                	c.or	x10,x12
                  rem        a2, s2, s9
    126a:	03996633          	rem	x12,x18,x25
                  xor        s11, zero, s7
    126e:	01704db3          	xor	x27,x0,x23
                  lui        s3, 985951
    1272:	f0b5f9b7          	lui	x19,0xf0b5f
                  xori       t3, t1, -721
    1276:	d2f34e13          	xori	x28,x6,-721
                  c.xor      a4, a5
    127a:	8f3d                	c.xor	x14,x15
                  c.slli     t5, 22
    127c:	0f5a                	c.slli	x30,0x16
                  sra        s9, s4, t5
    127e:	41ea5cb3          	sra	x25,x20,x30
                  sltiu      s3, tp, 300
    1282:	12c23993          	sltiu	x19,x4,300
                  li         s2, 0x0 #start riscv_int_numeric_corner_stream_2
    1286:	4901                	c.li	x18,0
                  li         sp, 0x80000000
    1288:	80000137          	lui	x2,0x80000
                  li         s10, 0x80000000
    128c:	80000d37          	lui	x26,0x80000
                  li         t4, 0x5378c6be
    1290:	5378ceb7          	lui	x29,0x5378c
    1294:	6bee8e93          	addi	x29,x29,1726 # 5378c6be <test_ret_val+0x3378c6be>
                  li         a4, 0x80000000
    1298:	80000737          	lui	x14,0x80000
                  li         s0, 0x80000000
    129c:	80000437          	lui	x8,0x80000
                  li         s8, 0x63562bed
    12a0:	63563c37          	lui	x24,0x63563
    12a4:	bedc0c13          	addi	x24,x24,-1043 # 63562bed <test_ret_val+0x43562bed>
                  li         s3, 0x80000000
    12a8:	800009b7          	lui	x19,0x80000
                  li         t1, 0xffffffff
    12ac:	fff00313          	addi	x6,x0,-1
                  li         s11, 0xffffffff
    12b0:	fff00d93          	addi	x27,x0,-1
                  remu       s2, s10, a4
    12b4:	02ed7933          	remu	x18,x26,x14
                  lui        s3, 985951
    12b8:	f0b5f9b7          	lui	x19,0xf0b5f
                  auipc      s0, 11691
    12bc:	02dab417          	auipc	x8,0x2dab
                  nop
    12c0:	0001                	c.addi	x0,0
                  nop
    12c2:	0001                	c.addi	x0,0
                  nop
    12c4:	0001                	c.addi	x0,0
                  nop
    12c6:	0001                	c.addi	x0,0
                  lui        s3, 985951
    12c8:	f0b5f9b7          	lui	x19,0xf0b5f
                  sub        t1, sp, s8
    12cc:	41810333          	sub	x6,x2,x24
                  auipc      s0, 11691
    12d0:	02dab417          	auipc	x8,0x2dab
                  mul        t1, t4, a4
    12d4:	02ee8333          	mul	x6,x29,x14
                  nop
    12d8:	0001                	c.addi	x0,0
                  sub        t1, sp, s8
    12da:	41810333          	sub	x6,x2,x24
                  add        t1, t4, a4
    12de:	00ee8333          	add	x6,x29,x14
                  rem        t1, s2, a4
    12e2:	02e96333          	rem	x6,x18,x14
                  nop
    12e6:	0001                	c.addi	x0,0
                  nop
    12e8:	0001                	c.addi	x0,0
                  mulhu      t4, t4, t4
    12ea:	03debeb3          	mulhu	x29,x29,x29
                  add        t1, t4, a4
    12ee:	00ee8333          	add	x6,x29,x14
                  nop
    12f2:	0001                	c.addi	x0,0
                  remu       s2, s10, a4
    12f4:	02ed7933          	remu	x18,x26,x14
                  nop
    12f8:	0001                	c.addi	x0,0
                  divu       t4, a4, s8
    12fa:	03875eb3          	divu	x29,x14,x24
                  lui        s3, 985951 #end riscv_int_numeric_corner_stream_2
    12fe:	f0b5f9b7          	lui	x19,0xf0b5f
                  c.addi     s9, -1
    1302:	1cfd                	c.addi	x25,-1
                  div        s7, gp, a4
    1304:	02e1cbb3          	div	x23,x3,x14
                  andi       t0, a3, 147
    1308:	0936f293          	andi	x5,x13,147
                  sltiu      s3, tp, 300
    130c:	12c23993          	sltiu	x19,x4,300
                  or         a4, a4, zero
    1310:	00076733          	or	x14,x14,x0
                  c.addi16sp sp, -16
    1314:	717d                	c.addi16sp	x2,-16
                  andi       t0, a3, 147
    1316:	0936f293          	andi	x5,x13,147
                  c.srai     s1, 28
    131a:	84f1                	c.srai	x9,0x1c
                  c.add      t3, t1
    131c:	9e1a                	c.add	x28,x6
                  auipc      s1, 11691
    131e:	02dab497          	auipc	x9,0x2dab
                  andi       t0, a3, 147
    1322:	0936f293          	andi	x5,x13,147
                  remu       s6, s3, t1
    1326:	0269fb33          	remu	x22,x19,x6
                  c.and      a4, s1
    132a:	8f65                	c.and	x14,x9
                  c.addi4spn a2, sp, 528
    132c:	0c10                	c.addi4spn	x12,x2,528
                  c.mv       a2, a0
    132e:	862a                	c.mv	x12,x10
                  c.srli     a4, 9
    1330:	8325                	c.srli	x14,0x9
                  c.slli     t5, 22
    1332:	0f5a                	c.slli	x30,0x16
                  mulhu      s4, a6, t3
    1334:	03c83a33          	mulhu	x20,x16,x28
                  mulh       s1, t4, s11
    1338:	03be94b3          	mulh	x9,x29,x27
                  or         a4, a4, zero
    133c:	00076733          	or	x14,x14,x0
                  c.li       s11, -1
    1340:	5dfd                	c.li	x27,-1
                  mulhu      s4, a6, t3
    1342:	03c83a33          	mulhu	x20,x16,x28
                  sll        s8, s0, s6
    1346:	01641c33          	sll	x24,x8,x22
                  div        s7, gp, a4
    134a:	02e1cbb3          	div	x23,x3,x14
                  slti       tp, a1, -167
    134e:	f595a213          	slti	x4,x11,-167
                  srli       zero, a0, 13
    1352:	00d55013          	srli	x0,x10,0xd
                  add        s4, a7, s6
    1356:	01688a33          	add	x20,x17,x22
                  divu       tp, s5, t4
    135a:	03dad233          	divu	x4,x21,x29
                  remu       s6, s3, t1
    135e:	0269fb33          	remu	x22,x19,x6
                  c.and      a4, s1
    1362:	8f65                	c.and	x14,x9
                  div        s7, gp, a4
    1364:	02e1cbb3          	div	x23,x3,x14
                  c.lui      a6, 24
    1368:	6861                	c.lui	x16,0x18
                  sltu       s3, a6, a4
    136a:	00e839b3          	sltu	x19,x16,x14
                  c.sub      s0, s1
    136e:	8c05                	c.sub	x8,x9
                  c.add      t3, t1
    1370:	9e1a                	c.add	x28,x6
                  c.and      a4, s1
    1372:	8f65                	c.and	x14,x9
                  sltu       s3, a6, a4
    1374:	00e839b3          	sltu	x19,x16,x14
                  c.lui      a6, 24
    1378:	6861                	c.lui	x16,0x18
                  or         a4, a4, zero
    137a:	00076733          	or	x14,x14,x0
                  mulh       s1, t4, s11
    137e:	03be94b3          	mulh	x9,x29,x27
                  rem        a2, s2, s9
    1382:	03996633          	rem	x12,x18,x25
                  c.andi     s1, 31
    1386:	88fd                	c.andi	x9,31
                  c.slli     t5, 22
    1388:	0f5a                	c.slli	x30,0x16
                  divu       tp, s5, t4
    138a:	03dad233          	divu	x4,x21,x29
                  xor        s11, zero, s7
    138e:	01704db3          	xor	x27,x0,x23
                  and        s6, t2, a4
    1392:	00e3fb33          	and	x22,x7,x14
                  sltiu      s3, tp, 300
    1396:	12c23993          	sltiu	x19,x4,300
                  mulh       s1, t4, s11
    139a:	03be94b3          	mulh	x9,x29,x27
                  xori       t3, t1, -721
    139e:	d2f34e13          	xori	x28,x6,-721
                  xor        s11, zero, s7
    13a2:	01704db3          	xor	x27,x0,x23
                  mulhu      s4, a6, t3
    13a6:	03c83a33          	mulhu	x20,x16,x28
                  c.srai     s1, 28
    13aa:	84f1                	c.srai	x9,0x1c
                  divu       tp, s5, t4
    13ac:	03dad233          	divu	x4,x21,x29
                  c.and      a4, s1
    13b0:	8f65                	c.and	x14,x9
                  xori       t3, t1, -721
    13b2:	d2f34e13          	xori	x28,x6,-721
                  c.or       a0, a2
    13b6:	8d51                	c.or	x10,x12
                  remu       s6, s3, t1
    13b8:	0269fb33          	remu	x22,x19,x6
                  c.srli     a4, 9
    13bc:	8325                	c.srli	x14,0x9
                  c.slli     t5, 22
    13be:	0f5a                	c.slli	x30,0x16
                  c.sub      s0, s1
    13c0:	8c05                	c.sub	x8,x9
                  c.andi     s1, 31
    13c2:	88fd                	c.andi	x9,31
                  c.li       s11, -1
    13c4:	5dfd                	c.li	x27,-1
                  xori       t3, t1, -721
    13c6:	d2f34e13          	xori	x28,x6,-721
                  divu       tp, s5, t4
    13ca:	03dad233          	divu	x4,x21,x29
                  mulhsu     tp, t5, a6
    13ce:	030f2233          	mulhsu	x4,x30,x16
                  xor        s11, zero, s7
    13d2:	01704db3          	xor	x27,x0,x23
                  c.addi16sp sp, -16
    13d6:	717d                	c.addi16sp	x2,-16
                  c.add      t3, t1
    13d8:	9e1a                	c.add	x28,x6
                  rem        a2, s2, s9
    13da:	03996633          	rem	x12,x18,x25
                  sra        s9, s4, t5
    13de:	41ea5cb3          	sra	x25,x20,x30
                  c.srai     s1, 28
    13e2:	84f1                	c.srai	x9,0x1c
                  slti       tp, a1, -167
    13e4:	f595a213          	slti	x4,x11,-167
                  sra        s9, s4, t5
    13e8:	41ea5cb3          	sra	x25,x20,x30
                  sll        s8, s0, s6
    13ec:	01641c33          	sll	x24,x8,x22
                  sltiu      s3, tp, 300
    13f0:	12c23993          	sltiu	x19,x4,300
                  andi       t0, a3, 147
    13f4:	0936f293          	andi	x5,x13,147
                  nop
    13f8:	0001                	c.addi	x0,0
                  c.addi     s9, -1
    13fa:	1cfd                	c.addi	x25,-1
                  c.or       a0, a2
    13fc:	8d51                	c.or	x10,x12
                  c.srai     s1, 28
    13fe:	84f1                	c.srai	x9,0x1c
                  ori        tp, a0, -848
    1400:	cb056213          	ori	x4,x10,-848
                  c.srai     s1, 28
    1404:	84f1                	c.srai	x9,0x1c
                  or         a4, a4, zero
    1406:	00076733          	or	x14,x14,x0
                  c.li       s11, -1
    140a:	5dfd                	c.li	x27,-1
                  mulh       s1, t4, s11
    140c:	03be94b3          	mulh	x9,x29,x27
                  c.addi4spn a2, sp, 528
    1410:	0c10                	c.addi4spn	x12,x2,528
                  c.li       s11, -1
    1412:	5dfd                	c.li	x27,-1
                  ori        tp, a0, -848
    1414:	cb056213          	ori	x4,x10,-848
                  c.or       a0, a2
    1418:	8d51                	c.or	x10,x12
                  c.addi     s9, -1
    141a:	1cfd                	c.addi	x25,-1
                  xor        s11, zero, s7
    141c:	01704db3          	xor	x27,x0,x23
                  add        s4, a7, s6
    1420:	01688a33          	add	x20,x17,x22
                  c.andi     s1, 31
    1424:	88fd                	c.andi	x9,31
                  remu       s6, s3, t1
    1426:	0269fb33          	remu	x22,x19,x6
                  mulh       s1, t4, s11
    142a:	03be94b3          	mulh	x9,x29,x27
                  xor        s11, zero, s7
    142e:	01704db3          	xor	x27,x0,x23
                  c.mv       a2, a0
    1432:	862a                	c.mv	x12,x10
                  c.add      t3, t1
    1434:	9e1a                	c.add	x28,x6
                  c.andi     s1, 31
    1436:	88fd                	c.andi	x9,31
                  nop
    1438:	0001                	c.addi	x0,0
                  c.srli     a4, 9
    143a:	8325                	c.srli	x14,0x9
                  addi       gp, s8, -298
    143c:	ed6c0193          	addi	x3,x24,-298
                  remu       s6, s3, t1
    1440:	0269fb33          	remu	x22,x19,x6
                  c.sub      s0, s1
    1444:	8c05                	c.sub	x8,x9
                  c.or       a0, a2
    1446:	8d51                	c.or	x10,x12
                  xor        s11, zero, s7
    1448:	01704db3          	xor	x27,x0,x23
                  ori        tp, a0, -848
    144c:	cb056213          	ori	x4,x10,-848
                  c.slli     t5, 22
    1450:	0f5a                	c.slli	x30,0x16
                  nop
    1452:	0001                	c.addi	x0,0
                  c.add      t3, t1
    1454:	9e1a                	c.add	x28,x6
                  c.srai     s1, 28
    1456:	84f1                	c.srai	x9,0x1c
                  c.srai     s1, 28
    1458:	84f1                	c.srai	x9,0x1c
                  slt        a0, s5, s11
    145a:	01baa533          	slt	x10,x21,x27
                  xor        s11, zero, s7
    145e:	01704db3          	xor	x27,x0,x23
                  c.addi16sp sp, -16
    1462:	717d                	c.addi16sp	x2,-16
                  or         a4, a4, zero
    1464:	00076733          	or	x14,x14,x0
                  c.lui      a6, 24
    1468:	6861                	c.lui	x16,0x18
                  mulhu      s4, a6, t3
    146a:	03c83a33          	mulhu	x20,x16,x28
                  slti       tp, a1, -167
    146e:	f595a213          	slti	x4,x11,-167
                  c.addi4spn a2, sp, 528
    1472:	0c10                	c.addi4spn	x12,x2,528
                  sub        s0, t3, gp
    1474:	403e0433          	sub	x8,x28,x3
                  c.mv       a2, a0
    1478:	862a                	c.mv	x12,x10
                  slti       tp, a1, -167
    147a:	f595a213          	slti	x4,x11,-167
                  and        s6, t2, a4
    147e:	00e3fb33          	and	x22,x7,x14
                  c.or       a0, a2
    1482:	8d51                	c.or	x10,x12
                  divu       tp, s5, t4
    1484:	03dad233          	divu	x4,x21,x29
                  c.nop
    1488:	0001                	c.addi	x0,0
                  mul        tp, s2, t5
    148a:	03e90233          	mul	x4,x18,x30
                  c.sub      s0, s1
    148e:	8c05                	c.sub	x8,x9
                  srai       a4, a3, 0
    1490:	4006d713          	srai	x14,x13,0x0
                  c.li       s11, -1
    1494:	5dfd                	c.li	x27,-1
                  c.lui      a6, 24
    1496:	6861                	c.lui	x16,0x18
                  c.xor      a4, a5
    1498:	8f3d                	c.xor	x14,x15
                  rem        a2, s2, s9
    149a:	03996633          	rem	x12,x18,x25
                  or         a4, a4, zero
    149e:	00076733          	or	x14,x14,x0
                  c.slli     t5, 22
    14a2:	0f5a                	c.slli	x30,0x16
                  sltu       s3, a6, a4
    14a4:	00e839b3          	sltu	x19,x16,x14
                  sltu       s3, a6, a4
    14a8:	00e839b3          	sltu	x19,x16,x14
                  div        s7, gp, a4
    14ac:	02e1cbb3          	div	x23,x3,x14
                  mulhsu     tp, t5, a6
    14b0:	030f2233          	mulhsu	x4,x30,x16
                  rem        a2, s2, s9
    14b4:	03996633          	rem	x12,x18,x25
                  c.addi16sp sp, -16
    14b8:	717d                	c.addi16sp	x2,-16
                  c.xor      a4, a5
    14ba:	8f3d                	c.xor	x14,x15
                  c.or       a0, a2
    14bc:	8d51                	c.or	x10,x12
                  c.or       a0, a2
    14be:	8d51                	c.or	x10,x12
                  addi       gp, s8, -298
    14c0:	ed6c0193          	addi	x3,x24,-298
                  auipc      s1, 11691
    14c4:	02dab497          	auipc	x9,0x2dab
                  srai       a4, a3, 0
    14c8:	4006d713          	srai	x14,x13,0x0
                  c.addi16sp sp, -16
    14cc:	717d                	c.addi16sp	x2,-16
                  srl        t1, tp, zero
    14ce:	00025333          	srl	x6,x4,x0
                  c.addi     s9, -1
    14d2:	1cfd                	c.addi	x25,-1
                  or         a4, a4, zero
    14d4:	00076733          	or	x14,x14,x0
                  lui        s3, 985951
    14d8:	f0b5f9b7          	lui	x19,0xf0b5f
                  srli       zero, a0, 13
    14dc:	00d55013          	srli	x0,x10,0xd
                  addi       gp, s8, -298
    14e0:	ed6c0193          	addi	x3,x24,-298
                  c.andi     s1, 31
    14e4:	88fd                	c.andi	x9,31
                  c.mv       a2, a0
    14e6:	862a                	c.mv	x12,x10
                  addi       gp, s8, -298
    14e8:	ed6c0193          	addi	x3,x24,-298
                  c.or       a0, a2
    14ec:	8d51                	c.or	x10,x12
                  andi       t0, a3, 147
    14ee:	0936f293          	andi	x5,x13,147
                  sltu       s3, a6, a4
    14f2:	00e839b3          	sltu	x19,x16,x14
                  sra        s9, s4, t5
    14f6:	41ea5cb3          	sra	x25,x20,x30
                  srl        t1, tp, zero
    14fa:	00025333          	srl	x6,x4,x0
                  sltu       s3, a6, a4
    14fe:	00e839b3          	sltu	x19,x16,x14
                  srai       a4, a3, 0
    1502:	4006d713          	srai	x14,x13,0x0
                  xori       t3, t1, -721
    1506:	d2f34e13          	xori	x28,x6,-721
                  mulhu      s4, a6, t3
    150a:	03c83a33          	mulhu	x20,x16,x28
                  sll        s8, s0, s6
    150e:	01641c33          	sll	x24,x8,x22
                  c.xor      a4, a5
    1512:	8f3d                	c.xor	x14,x15
                  div        s7, gp, a4
    1514:	02e1cbb3          	div	x23,x3,x14
                  c.addi4spn a2, sp, 528
    1518:	0c10                	c.addi4spn	x12,x2,528
                  div        s7, gp, a4
    151a:	02e1cbb3          	div	x23,x3,x14
                  c.li       s11, -1
    151e:	5dfd                	c.li	x27,-1
                  ori        tp, a0, -848
    1520:	cb056213          	ori	x4,x10,-848
                  c.addi16sp sp, -16
    1524:	717d                	c.addi16sp	x2,-16
                  c.slli     t5, 22
    1526:	0f5a                	c.slli	x30,0x16
                  sltiu      s3, tp, 300
    1528:	12c23993          	sltiu	x19,x4,300
                  c.slli     t5, 22
    152c:	0f5a                	c.slli	x30,0x16
                  c.addi16sp sp, -16
    152e:	717d                	c.addi16sp	x2,-16
                  slt        a0, s5, s11
    1530:	01baa533          	slt	x10,x21,x27
                  lui        s3, 985951
    1534:	f0b5f9b7          	lui	x19,0xf0b5f
                  remu       s6, s3, t1
    1538:	0269fb33          	remu	x22,x19,x6
                  c.addi     s9, -1
    153c:	1cfd                	c.addi	x25,-1
                  c.li       s11, -1
    153e:	5dfd                	c.li	x27,-1
                  mulh       s1, t4, s11
    1540:	03be94b3          	mulh	x9,x29,x27
                  c.srai     s1, 28
    1544:	84f1                	c.srai	x9,0x1c
                  c.addi4spn a2, sp, 528
    1546:	0c10                	c.addi4spn	x12,x2,528
                  and        s6, t2, a4
    1548:	00e3fb33          	and	x22,x7,x14
                  slti       tp, a1, -167
    154c:	f595a213          	slti	x4,x11,-167
                  div        s7, gp, a4
    1550:	02e1cbb3          	div	x23,x3,x14
                  c.andi     s1, 31
    1554:	88fd                	c.andi	x9,31
                  c.mv       a2, a0
    1556:	862a                	c.mv	x12,x10
                  div        s7, gp, a4
    1558:	02e1cbb3          	div	x23,x3,x14
                  ori        tp, a0, -848
    155c:	cb056213          	ori	x4,x10,-848
                  mulhsu     tp, t5, a6
    1560:	030f2233          	mulhsu	x4,x30,x16
                  sltiu      s3, tp, 300
    1564:	12c23993          	sltiu	x19,x4,300
                  add        s4, a7, s6
    1568:	01688a33          	add	x20,x17,x22
                  lui        s3, 985951
    156c:	f0b5f9b7          	lui	x19,0xf0b5f
                  ori        tp, a0, -848
    1570:	cb056213          	ori	x4,x10,-848
                  sra        s9, s4, t5
    1574:	41ea5cb3          	sra	x25,x20,x30
                  srai       a4, a3, 0
    1578:	4006d713          	srai	x14,x13,0x0
                  div        s7, gp, a4
    157c:	02e1cbb3          	div	x23,x3,x14
                  c.lui      a6, 24
    1580:	6861                	c.lui	x16,0x18
                  c.addi4spn a2, sp, 528
    1582:	0c10                	c.addi4spn	x12,x2,528
                  c.add      t3, t1
    1584:	9e1a                	c.add	x28,x6
                  c.li       s11, -1
    1586:	5dfd                	c.li	x27,-1
                  ori        tp, a0, -848
    1588:	cb056213          	ori	x4,x10,-848
                  rem        a2, s2, s9
    158c:	03996633          	rem	x12,x18,x25
                  srai       a4, a3, 0
    1590:	4006d713          	srai	x14,x13,0x0
                  c.addi16sp sp, -16
    1594:	717d                	c.addi16sp	x2,-16
                  remu       s6, s3, t1
    1596:	0269fb33          	remu	x22,x19,x6
                  mulhu      s4, a6, t3
    159a:	03c83a33          	mulhu	x20,x16,x28
                  slt        a0, s5, s11
    159e:	01baa533          	slt	x10,x21,x27
                  mulhsu     tp, t5, a6
    15a2:	030f2233          	mulhsu	x4,x30,x16
                  divu       tp, s5, t4
    15a6:	03dad233          	divu	x4,x21,x29
                  mulh       s1, t4, s11
    15aa:	03be94b3          	mulh	x9,x29,x27
                  div        s7, gp, a4
    15ae:	02e1cbb3          	div	x23,x3,x14
                  c.and      a4, s1
    15b2:	8f65                	c.and	x14,x9
                  c.srli     a4, 9
    15b4:	8325                	c.srli	x14,0x9
                  xor        s11, zero, s7
    15b6:	01704db3          	xor	x27,x0,x23
                  ori        tp, a0, -848
    15ba:	cb056213          	ori	x4,x10,-848
                  c.addi4spn a2, sp, 528
    15be:	0c10                	c.addi4spn	x12,x2,528
                  c.li       s11, -1
    15c0:	5dfd                	c.li	x27,-1
                  divu       tp, s5, t4
    15c2:	03dad233          	divu	x4,x21,x29
                  c.srli     a4, 9
    15c6:	8325                	c.srli	x14,0x9
                  auipc      s1, 11691
    15c8:	02dab497          	auipc	x9,0x2dab
                  or         a4, a4, zero
    15cc:	00076733          	or	x14,x14,x0
                  sltu       s3, a6, a4
    15d0:	00e839b3          	sltu	x19,x16,x14
                  c.mv       a2, a0
    15d4:	862a                	c.mv	x12,x10
                  auipc      s1, 11691
    15d6:	02dab497          	auipc	x9,0x2dab
                  and        s6, t2, a4
    15da:	00e3fb33          	and	x22,x7,x14
                  c.srai     s1, 28
    15de:	84f1                	c.srai	x9,0x1c
                  c.srli     a4, 9
    15e0:	8325                	c.srli	x14,0x9
                  c.li       s11, -1
    15e2:	5dfd                	c.li	x27,-1
                  srl        t1, tp, zero
    15e4:	00025333          	srl	x6,x4,x0
                  mulh       s1, t4, s11
    15e8:	03be94b3          	mulh	x9,x29,x27
                  c.andi     s1, 31
    15ec:	88fd                	c.andi	x9,31
                  andi       t0, a3, 147
    15ee:	0936f293          	andi	x5,x13,147
                  slt        a0, s5, s11
    15f2:	01baa533          	slt	x10,x21,x27
                  auipc      s1, 11691
    15f6:	02dab497          	auipc	x9,0x2dab
                  c.nop
    15fa:	0001                	c.addi	x0,0
                  c.slli     t5, 22
    15fc:	0f5a                	c.slli	x30,0x16
                  c.lui      a6, 24
    15fe:	6861                	c.lui	x16,0x18
                  mul        tp, s2, t5
    1600:	03e90233          	mul	x4,x18,x30
                  slt        a0, s5, s11
    1604:	01baa533          	slt	x10,x21,x27
                  nop
    1608:	0001                	c.addi	x0,0
                  auipc      s1, 11691
    160a:	02dab497          	auipc	x9,0x2dab
                  xori       t3, t1, -721
    160e:	d2f34e13          	xori	x28,x6,-721
                  mulhu      s4, a6, t3
    1612:	03c83a33          	mulhu	x20,x16,x28
                  c.addi16sp sp, -16
    1616:	717d                	c.addi16sp	x2,-16
                  mulh       s1, t4, s11
    1618:	03be94b3          	mulh	x9,x29,x27
                  or         a4, a4, zero
    161c:	00076733          	or	x14,x14,x0
                  add        s4, a7, s6
    1620:	01688a33          	add	x20,x17,x22
                  c.srli     a4, 9
    1624:	8325                	c.srli	x14,0x9
                  mulhsu     tp, t5, a6
    1626:	030f2233          	mulhsu	x4,x30,x16
                  sltu       s3, a6, a4
    162a:	00e839b3          	sltu	x19,x16,x14
                  ori        tp, a0, -848
    162e:	cb056213          	ori	x4,x10,-848
                  c.andi     s1, 31
    1632:	88fd                	c.andi	x9,31
                  sra        s9, s4, t5
    1634:	41ea5cb3          	sra	x25,x20,x30
                  srli       zero, a0, 13
    1638:	00d55013          	srli	x0,x10,0xd
                  sltiu      s3, tp, 300
    163c:	12c23993          	sltiu	x19,x4,300
                  or         a4, a4, zero
    1640:	00076733          	or	x14,x14,x0
                  srl        t1, tp, zero
    1644:	00025333          	srl	x6,x4,x0
                  sub        s0, t3, gp
    1648:	403e0433          	sub	x8,x28,x3
                  c.lui      a6, 24
    164c:	6861                	c.lui	x16,0x18
                  remu       s6, s3, t1
    164e:	0269fb33          	remu	x22,x19,x6
                  srli       zero, a0, 13
    1652:	00d55013          	srli	x0,x10,0xd
                  slt        a0, s5, s11
    1656:	01baa533          	slt	x10,x21,x27
                  c.srli     a4, 9
    165a:	8325                	c.srli	x14,0x9
                  c.addi4spn a2, sp, 528
    165c:	0c10                	c.addi4spn	x12,x2,528
                  mulh       s1, t4, s11
    165e:	03be94b3          	mulh	x9,x29,x27
                  add        s4, a7, s6
    1662:	01688a33          	add	x20,x17,x22
                  sll        s8, s0, s6
    1666:	01641c33          	sll	x24,x8,x22
                  c.addi4spn a2, sp, 528
    166a:	0c10                	c.addi4spn	x12,x2,528
                  srai       a4, a3, 0
    166c:	4006d713          	srai	x14,x13,0x0
                  c.addi16sp sp, -16
    1670:	717d                	c.addi16sp	x2,-16
                  sra        s9, s4, t5
    1672:	41ea5cb3          	sra	x25,x20,x30
                  c.and      a4, s1
    1676:	8f65                	c.and	x14,x9
                  c.add      t3, t1
    1678:	9e1a                	c.add	x28,x6
                  mulh       s1, t4, s11
    167a:	03be94b3          	mulh	x9,x29,x27
                  c.xor      a4, a5
    167e:	8f3d                	c.xor	x14,x15
                  sra        s9, s4, t5
    1680:	41ea5cb3          	sra	x25,x20,x30
                  srl        t1, tp, zero
    1684:	00025333          	srl	x6,x4,x0
                  rem        a2, s2, s9
    1688:	03996633          	rem	x12,x18,x25
                  andi       t0, a3, 147
    168c:	0936f293          	andi	x5,x13,147
                  c.add      t3, t1
    1690:	9e1a                	c.add	x28,x6
                  mul        tp, s2, t5
    1692:	03e90233          	mul	x4,x18,x30
                  c.addi4spn a2, sp, 528
    1696:	0c10                	c.addi4spn	x12,x2,528
                  c.xor      a4, a5
    1698:	8f3d                	c.xor	x14,x15
                  ori        tp, a0, -848
    169a:	cb056213          	ori	x4,x10,-848
                  sub        s0, t3, gp
    169e:	403e0433          	sub	x8,x28,x3
                  nop
    16a2:	0001                	c.addi	x0,0
                  c.srli     a4, 9
    16a4:	8325                	c.srli	x14,0x9
                  addi       gp, s8, -298
    16a6:	ed6c0193          	addi	x3,x24,-298
                  rem        a2, s2, s9
    16aa:	03996633          	rem	x12,x18,x25
                  remu       s6, s3, t1
    16ae:	0269fb33          	remu	x22,x19,x6
                  c.slli     t5, 22
    16b2:	0f5a                	c.slli	x30,0x16
                  c.addi     s9, -1
    16b4:	1cfd                	c.addi	x25,-1
                  auipc      s1, 11691
    16b6:	02dab497          	auipc	x9,0x2dab
                  c.srai     s1, 28
    16ba:	84f1                	c.srai	x9,0x1c
                  slt        a0, s5, s11
    16bc:	01baa533          	slt	x10,x21,x27
                  andi       t0, a3, 147
    16c0:	0936f293          	andi	x5,x13,147
                  c.srli     a4, 9
    16c4:	8325                	c.srli	x14,0x9
                  sll        s8, s0, s6
    16c6:	01641c33          	sll	x24,x8,x22
                  slt        a0, s5, s11
    16ca:	01baa533          	slt	x10,x21,x27
                  slt        a0, s5, s11
    16ce:	01baa533          	slt	x10,x21,x27
                  c.mv       a2, a0
    16d2:	862a                	c.mv	x12,x10
                  add        s4, a7, s6
    16d4:	01688a33          	add	x20,x17,x22
                  c.slli     t5, 22
    16d8:	0f5a                	c.slli	x30,0x16
                  sltiu      s3, tp, 300
    16da:	12c23993          	sltiu	x19,x4,300
                  andi       t0, a3, 147
    16de:	0936f293          	andi	x5,x13,147
                  srli       zero, a0, 13
    16e2:	00d55013          	srli	x0,x10,0xd
                  srai       a4, a3, 0
    16e6:	4006d713          	srai	x14,x13,0x0
                  c.li       s11, -1
    16ea:	5dfd                	c.li	x27,-1
                  div        s7, gp, a4
    16ec:	02e1cbb3          	div	x23,x3,x14
                  sub        s0, t3, gp
    16f0:	403e0433          	sub	x8,x28,x3
                  mulhu      s4, a6, t3
    16f4:	03c83a33          	mulhu	x20,x16,x28
                  srai       a4, a3, 0
    16f8:	4006d713          	srai	x14,x13,0x0
                  add        s4, a7, s6
    16fc:	01688a33          	add	x20,x17,x22
                  sltu       s3, a6, a4
    1700:	00e839b3          	sltu	x19,x16,x14
                  andi       t0, a3, 147
    1704:	0936f293          	andi	x5,x13,147
                  addi       gp, s8, -298
    1708:	ed6c0193          	addi	x3,x24,-298
                  mul        tp, s2, t5
    170c:	03e90233          	mul	x4,x18,x30
                  c.mv       a2, a0
    1710:	862a                	c.mv	x12,x10
                  c.addi     s9, -1
    1712:	1cfd                	c.addi	x25,-1
                  nop
    1714:	0001                	c.addi	x0,0
                  mulh       s1, t4, s11
    1716:	03be94b3          	mulh	x9,x29,x27
                  c.sub      s0, s1
    171a:	8c05                	c.sub	x8,x9
                  xor        s11, zero, s7
    171c:	01704db3          	xor	x27,x0,x23
                  mulhsu     tp, t5, a6
    1720:	030f2233          	mulhsu	x4,x30,x16
                  slli       a2, a4, 25
    1724:	01971613          	slli	x12,x14,0x19
                  srli       zero, a0, 13
    1728:	00d55013          	srli	x0,x10,0xd
                  srl        t1, tp, zero
    172c:	00025333          	srl	x6,x4,x0
                  slt        a0, s5, s11
    1730:	01baa533          	slt	x10,x21,x27
                  c.sub      s0, s1
    1734:	8c05                	c.sub	x8,x9
                  c.addi4spn a2, sp, 528
    1736:	0c10                	c.addi4spn	x12,x2,528
                  sltiu      s3, tp, 300
    1738:	12c23993          	sltiu	x19,x4,300
                  c.mv       a2, a0
    173c:	862a                	c.mv	x12,x10
                  c.or       a0, a2
    173e:	8d51                	c.or	x10,x12
                  sll        s8, s0, s6
    1740:	01641c33          	sll	x24,x8,x22
                  c.srai     s1, 28
    1744:	84f1                	c.srai	x9,0x1c
                  div        s7, gp, a4
    1746:	02e1cbb3          	div	x23,x3,x14
                  xor        s11, zero, s7
    174a:	01704db3          	xor	x27,x0,x23
                  xor        s11, zero, s7
    174e:	01704db3          	xor	x27,x0,x23
                  srli       zero, a0, 13
    1752:	00d55013          	srli	x0,x10,0xd
                  c.addi16sp sp, -16
    1756:	717d                	c.addi16sp	x2,-16
                  sub        s0, t3, gp
    1758:	403e0433          	sub	x8,x28,x3
                  mulh       s1, t4, s11
    175c:	03be94b3          	mulh	x9,x29,x27
                  slli       a2, a4, 25
    1760:	01971613          	slli	x12,x14,0x19
                  mulhsu     tp, t5, a6
    1764:	030f2233          	mulhsu	x4,x30,x16
                  remu       s6, s3, t1
    1768:	0269fb33          	remu	x22,x19,x6
                  c.li       s11, -1
    176c:	5dfd                	c.li	x27,-1
                  sltu       s3, a6, a4
    176e:	00e839b3          	sltu	x19,x16,x14
                  c.addi16sp sp, -16
    1772:	717d                	c.addi16sp	x2,-16
                  c.lui      a6, 24
    1774:	6861                	c.lui	x16,0x18
                  sll        s8, s0, s6
    1776:	01641c33          	sll	x24,x8,x22
                  c.nop
    177a:	0001                	c.addi	x0,0
                  c.xor      a4, a5
    177c:	8f3d                	c.xor	x14,x15
                  addi       gp, s8, -298
    177e:	ed6c0193          	addi	x3,x24,-298
                  slti       tp, a1, -167
    1782:	f595a213          	slti	x4,x11,-167
                  xor        s11, zero, s7
    1786:	01704db3          	xor	x27,x0,x23
                  xori       t3, t1, -721
    178a:	d2f34e13          	xori	x28,x6,-721
                  c.slli     t5, 22
    178e:	0f5a                	c.slli	x30,0x16
                  sltiu      s3, tp, 300
    1790:	12c23993          	sltiu	x19,x4,300
                  c.lui      a6, 24
    1794:	6861                	c.lui	x16,0x18
                  and        s6, t2, a4
    1796:	00e3fb33          	and	x22,x7,x14
                  andi       t0, a3, 147
    179a:	0936f293          	andi	x5,x13,147
                  c.sub      s0, s1
    179e:	8c05                	c.sub	x8,x9
                  div        s7, gp, a4
    17a0:	02e1cbb3          	div	x23,x3,x14
                  c.srai     s1, 28
    17a4:	84f1                	c.srai	x9,0x1c
                  mulhsu     tp, t5, a6
    17a6:	030f2233          	mulhsu	x4,x30,x16
                  c.and      a4, s1
    17aa:	8f65                	c.and	x14,x9
                  c.add      t3, t1
    17ac:	9e1a                	c.add	x28,x6
                  c.or       a0, a2
    17ae:	8d51                	c.or	x10,x12
                  c.addi     s9, -1
    17b0:	1cfd                	c.addi	x25,-1
                  sra        s9, s4, t5
    17b2:	41ea5cb3          	sra	x25,x20,x30
                  xori       t3, t1, -721
    17b6:	d2f34e13          	xori	x28,x6,-721
                  sll        s8, s0, s6
    17ba:	01641c33          	sll	x24,x8,x22
                  sll        s8, s0, s6
    17be:	01641c33          	sll	x24,x8,x22
                  sub        s0, t3, gp
    17c2:	403e0433          	sub	x8,x28,x3
                  c.or       a0, a2
    17c6:	8d51                	c.or	x10,x12
                  sltu       s3, a6, a4
    17c8:	00e839b3          	sltu	x19,x16,x14
                  xor        s11, zero, s7
    17cc:	01704db3          	xor	x27,x0,x23
                  xor        s11, zero, s7
    17d0:	01704db3          	xor	x27,x0,x23
                  c.srli     a4, 9
    17d4:	8325                	c.srli	x14,0x9
                  xor        s11, zero, s7
    17d6:	01704db3          	xor	x27,x0,x23
                  c.slli     t5, 22
    17da:	0f5a                	c.slli	x30,0x16
                  xor        s11, zero, s7
    17dc:	01704db3          	xor	x27,x0,x23
                  c.or       a0, a2
    17e0:	8d51                	c.or	x10,x12
                  c.or       a0, a2
    17e2:	8d51                	c.or	x10,x12
                  sltu       s3, a6, a4
    17e4:	00e839b3          	sltu	x19,x16,x14
                  remu       s6, s3, t1
    17e8:	0269fb33          	remu	x22,x19,x6
                  c.andi     s1, 31
    17ec:	88fd                	c.andi	x9,31
                  slti       tp, a1, -167
    17ee:	f595a213          	slti	x4,x11,-167
                  srl        t1, tp, zero
    17f2:	00025333          	srl	x6,x4,x0
                  c.andi     s1, 31
    17f6:	88fd                	c.andi	x9,31
                  addi       gp, s8, -298
    17f8:	ed6c0193          	addi	x3,x24,-298
                  c.nop
    17fc:	0001                	c.addi	x0,0
                  mulh       s1, t4, s11
    17fe:	03be94b3          	mulh	x9,x29,x27
                  add        s4, a7, s6
    1802:	01688a33          	add	x20,x17,x22
                  c.addi     s9, -1
    1806:	1cfd                	c.addi	x25,-1
                  srl        t1, tp, zero
    1808:	00025333          	srl	x6,x4,x0
                  c.li       s11, -1
    180c:	5dfd                	c.li	x27,-1
                  mulh       s1, t4, s11
    180e:	03be94b3          	mulh	x9,x29,x27
                  c.mv       a2, a0
    1812:	862a                	c.mv	x12,x10
                  sltu       s3, a6, a4
    1814:	00e839b3          	sltu	x19,x16,x14
                  mulh       s1, t4, s11
    1818:	03be94b3          	mulh	x9,x29,x27
                  xori       t3, t1, -721
    181c:	d2f34e13          	xori	x28,x6,-721
                  srai       a4, a3, 0
    1820:	4006d713          	srai	x14,x13,0x0
                  remu       s6, s3, t1
    1824:	0269fb33          	remu	x22,x19,x6
                  slli       a2, a4, 25
    1828:	01971613          	slli	x12,x14,0x19
                  c.addi16sp sp, -16
    182c:	717d                	c.addi16sp	x2,-16
                  lui        s3, 985951
    182e:	f0b5f9b7          	lui	x19,0xf0b5f
                  c.sub      s0, s1
    1832:	8c05                	c.sub	x8,x9
                  addi       gp, s8, -298
    1834:	ed6c0193          	addi	x3,x24,-298
                  add        s4, a7, s6
    1838:	01688a33          	add	x20,x17,x22
                  addi       gp, s8, -298
    183c:	ed6c0193          	addi	x3,x24,-298
                  add        s4, a7, s6
    1840:	01688a33          	add	x20,x17,x22
                  div        s7, gp, a4
    1844:	02e1cbb3          	div	x23,x3,x14
                  sub        s0, t3, gp
    1848:	403e0433          	sub	x8,x28,x3
                  sub        s0, t3, gp
    184c:	403e0433          	sub	x8,x28,x3
                  c.andi     s1, 31
    1850:	88fd                	c.andi	x9,31
                  c.or       a0, a2
    1852:	8d51                	c.or	x10,x12
                  c.lui      a6, 24
    1854:	6861                	c.lui	x16,0x18
                  slli       a2, a4, 25
    1856:	01971613          	slli	x12,x14,0x19
                  ori        tp, a0, -848
    185a:	cb056213          	ori	x4,x10,-848
                  ori        tp, a0, -848
    185e:	cb056213          	ori	x4,x10,-848
                  or         a4, a4, zero
    1862:	00076733          	or	x14,x14,x0
                  addi       gp, s8, -298
    1866:	ed6c0193          	addi	x3,x24,-298
                  sra        s9, s4, t5
    186a:	41ea5cb3          	sra	x25,x20,x30
                  or         a4, a4, zero
    186e:	00076733          	or	x14,x14,x0
                  srl        t1, tp, zero
    1872:	00025333          	srl	x6,x4,x0
                  xor        s11, zero, s7
    1876:	01704db3          	xor	x27,x0,x23
                  c.sub      s0, s1
    187a:	8c05                	c.sub	x8,x9
                  c.mv       a2, a0
    187c:	862a                	c.mv	x12,x10
                  sub        s0, t3, gp
    187e:	403e0433          	sub	x8,x28,x3
                  add        s4, a7, s6
    1882:	01688a33          	add	x20,x17,x22
                  ori        tp, a0, -848
    1886:	cb056213          	ori	x4,x10,-848
                  rem        a2, s2, s9
    188a:	03996633          	rem	x12,x18,x25
                  sll        s8, s0, s6
    188e:	01641c33          	sll	x24,x8,x22
                  sub        s0, t3, gp
    1892:	403e0433          	sub	x8,x28,x3
                  remu       s6, s3, t1
    1896:	0269fb33          	remu	x22,x19,x6
                  sub        s0, t3, gp
    189a:	403e0433          	sub	x8,x28,x3
                  srai       a4, a3, 0
    189e:	4006d713          	srai	x14,x13,0x0
                  xori       t3, t1, -721
    18a2:	d2f34e13          	xori	x28,x6,-721
                  srl        t1, tp, zero
    18a6:	00025333          	srl	x6,x4,x0
                  c.add      t3, t1
    18aa:	9e1a                	c.add	x28,x6
                  c.or       a0, a2
    18ac:	8d51                	c.or	x10,x12
                  ori        tp, a0, -848
    18ae:	cb056213          	ori	x4,x10,-848
                  and        s6, t2, a4
    18b2:	00e3fb33          	and	x22,x7,x14
                  sra        s9, s4, t5
    18b6:	41ea5cb3          	sra	x25,x20,x30
                  srai       a4, a3, 0
    18ba:	4006d713          	srai	x14,x13,0x0
                  xor        s11, zero, s7
    18be:	01704db3          	xor	x27,x0,x23
                  c.mv       a2, a0
    18c2:	862a                	c.mv	x12,x10
                  srl        t1, tp, zero
    18c4:	00025333          	srl	x6,x4,x0
                  andi       t0, a3, 147
    18c8:	0936f293          	andi	x5,x13,147
                  remu       s6, s3, t1
    18cc:	0269fb33          	remu	x22,x19,x6
                  c.lui      a6, 24
    18d0:	6861                	c.lui	x16,0x18
                  c.and      a4, s1
    18d2:	8f65                	c.and	x14,x9
                  xor        s11, zero, s7
    18d4:	01704db3          	xor	x27,x0,x23
                  c.slli     t5, 22
    18d8:	0f5a                	c.slli	x30,0x16
                  rem        a2, s2, s9
    18da:	03996633          	rem	x12,x18,x25
                  mul        tp, s2, t5
    18de:	03e90233          	mul	x4,x18,x30
                  c.sub      s0, s1
    18e2:	8c05                	c.sub	x8,x9
                  auipc      s1, 11691
    18e4:	02dab497          	auipc	x9,0x2dab
                  add        s4, a7, s6
    18e8:	01688a33          	add	x20,x17,x22
                  div        s7, gp, a4
    18ec:	02e1cbb3          	div	x23,x3,x14
                  xori       t3, t1, -721
    18f0:	d2f34e13          	xori	x28,x6,-721
                  mulhu      s4, a6, t3
    18f4:	03c83a33          	mulhu	x20,x16,x28
                  c.addi     s9, -1
    18f8:	1cfd                	c.addi	x25,-1
                  c.and      a4, s1
    18fa:	8f65                	c.and	x14,x9
                  c.andi     s1, 31
    18fc:	88fd                	c.andi	x9,31
                  c.mv       a2, a0
    18fe:	862a                	c.mv	x12,x10
                  xori       t3, t1, -721
    1900:	d2f34e13          	xori	x28,x6,-721
                  mulhsu     tp, t5, a6
    1904:	030f2233          	mulhsu	x4,x30,x16
                  c.mv       a2, a0
    1908:	862a                	c.mv	x12,x10
                  andi       t0, a3, 147
    190a:	0936f293          	andi	x5,x13,147
                  slli       a2, a4, 25
    190e:	01971613          	slli	x12,x14,0x19
                  rem        a2, s2, s9
    1912:	03996633          	rem	x12,x18,x25
                  sub        s0, t3, gp
    1916:	403e0433          	sub	x8,x28,x3
                  c.andi     s1, 31
    191a:	88fd                	c.andi	x9,31
                  c.nop
    191c:	0001                	c.addi	x0,0
                  slli       a2, a4, 25
    191e:	01971613          	slli	x12,x14,0x19
                  ori        tp, a0, -848
    1922:	cb056213          	ori	x4,x10,-848
                  add        s4, a7, s6
    1926:	01688a33          	add	x20,x17,x22
                  srli       zero, a0, 13
    192a:	00d55013          	srli	x0,x10,0xd
                  c.srli     a4, 9
    192e:	8325                	c.srli	x14,0x9
                  ori        tp, a0, -848
    1930:	cb056213          	ori	x4,x10,-848
                  mulhu      s4, a6, t3
    1934:	03c83a33          	mulhu	x20,x16,x28
                  c.sub      s0, s1
    1938:	8c05                	c.sub	x8,x9
                  remu       s6, s3, t1
    193a:	0269fb33          	remu	x22,x19,x6
                  xor        s11, zero, s7
    193e:	01704db3          	xor	x27,x0,x23
                  or         a4, a4, zero
    1942:	00076733          	or	x14,x14,x0
                  lui        s3, 985951
    1946:	f0b5f9b7          	lui	x19,0xf0b5f
                  c.addi16sp sp, -16
    194a:	717d                	c.addi16sp	x2,-16
                  c.srai     s1, 28
    194c:	84f1                	c.srai	x9,0x1c
                  c.mv       a2, a0
    194e:	862a                	c.mv	x12,x10
                  rem        a2, s2, s9
    1950:	03996633          	rem	x12,x18,x25
                  slti       tp, a1, -167
    1954:	f595a213          	slti	x4,x11,-167
                  remu       s6, s3, t1
    1958:	0269fb33          	remu	x22,x19,x6
                  slti       tp, a1, -167
    195c:	f595a213          	slti	x4,x11,-167
                  divu       tp, s5, t4
    1960:	03dad233          	divu	x4,x21,x29
                  srai       a4, a3, 0
    1964:	4006d713          	srai	x14,x13,0x0
                  remu       s6, s3, t1
    1968:	0269fb33          	remu	x22,x19,x6
                  c.mv       a2, a0
    196c:	862a                	c.mv	x12,x10
                  c.andi     s1, 31
    196e:	88fd                	c.andi	x9,31
                  sll        s8, s0, s6
    1970:	01641c33          	sll	x24,x8,x22
                  c.or       a0, a2
    1974:	8d51                	c.or	x10,x12
                  c.addi16sp sp, -16
    1976:	717d                	c.addi16sp	x2,-16
                  c.xor      a4, a5
    1978:	8f3d                	c.xor	x14,x15
                  sltiu      s3, tp, 300
    197a:	12c23993          	sltiu	x19,x4,300
                  mul        tp, s2, t5
    197e:	03e90233          	mul	x4,x18,x30
                  auipc      s1, 11691
    1982:	02dab497          	auipc	x9,0x2dab
                  c.mv       a2, a0
    1986:	862a                	c.mv	x12,x10
                  c.xor      a4, a5
    1988:	8f3d                	c.xor	x14,x15
                  mul        tp, s2, t5
    198a:	03e90233          	mul	x4,x18,x30
                  c.srli     a4, 9
    198e:	8325                	c.srli	x14,0x9
                  sll        s8, s0, s6
    1990:	01641c33          	sll	x24,x8,x22
                  c.addi16sp sp, -16
    1994:	717d                	c.addi16sp	x2,-16
                  or         a4, a4, zero
    1996:	00076733          	or	x14,x14,x0
                  c.sub      s0, s1
    199a:	8c05                	c.sub	x8,x9
                  sll        s8, s0, s6
    199c:	01641c33          	sll	x24,x8,x22
                  divu       tp, s5, t4
    19a0:	03dad233          	divu	x4,x21,x29
                  rem        a2, s2, s9
    19a4:	03996633          	rem	x12,x18,x25
                  c.addi4spn a2, sp, 528
    19a8:	0c10                	c.addi4spn	x12,x2,528
                  c.and      a4, s1
    19aa:	8f65                	c.and	x14,x9
                  c.andi     s1, 31
    19ac:	88fd                	c.andi	x9,31
                  sub        s0, t3, gp
    19ae:	403e0433          	sub	x8,x28,x3
                  c.slli     t5, 22
    19b2:	0f5a                	c.slli	x30,0x16
                  sub        s0, t3, gp
    19b4:	403e0433          	sub	x8,x28,x3
                  c.addi4spn a2, sp, 528
    19b8:	0c10                	c.addi4spn	x12,x2,528
                  sltiu      s3, tp, 300
    19ba:	12c23993          	sltiu	x19,x4,300
                  c.xor      a4, a5
    19be:	8f3d                	c.xor	x14,x15
                  c.lui      a6, 24
    19c0:	6861                	c.lui	x16,0x18
                  c.nop
    19c2:	0001                	c.addi	x0,0
                  c.mv       a2, a0
    19c4:	862a                	c.mv	x12,x10
                  addi       gp, s8, -298
    19c6:	ed6c0193          	addi	x3,x24,-298
                  slli       a2, a4, 25
    19ca:	01971613          	slli	x12,x14,0x19
                  c.mv       a2, a0
    19ce:	862a                	c.mv	x12,x10
                  addi       gp, s8, -298
    19d0:	ed6c0193          	addi	x3,x24,-298
                  ori        tp, a0, -848
    19d4:	cb056213          	ori	x4,x10,-848
                  mulhu      s4, a6, t3
    19d8:	03c83a33          	mulhu	x20,x16,x28
                  add        s4, a7, s6
    19dc:	01688a33          	add	x20,x17,x22
                  divu       tp, s5, t4
    19e0:	03dad233          	divu	x4,x21,x29
                  nop
    19e4:	0001                	c.addi	x0,0
                  lui        s3, 985951
    19e6:	f0b5f9b7          	lui	x19,0xf0b5f
                  c.srli     a4, 9
    19ea:	8325                	c.srli	x14,0x9
                  sub        s0, t3, gp
    19ec:	403e0433          	sub	x8,x28,x3
                  c.addi4spn a2, sp, 528
    19f0:	0c10                	c.addi4spn	x12,x2,528
                  slli       a2, a4, 25
    19f2:	01971613          	slli	x12,x14,0x19
                  c.nop
    19f6:	0001                	c.addi	x0,0
                  srl        t1, tp, zero
    19f8:	00025333          	srl	x6,x4,x0
                  c.add      t3, t1
    19fc:	9e1a                	c.add	x28,x6
                  c.addi16sp sp, -16
    19fe:	717d                	c.addi16sp	x2,-16
                  c.addi16sp sp, -16
    1a00:	717d                	c.addi16sp	x2,-16
                  sltiu      s3, tp, 300
    1a02:	12c23993          	sltiu	x19,x4,300
                  slti       tp, a1, -167
    1a06:	f595a213          	slti	x4,x11,-167
                  c.addi4spn a2, sp, 528
    1a0a:	0c10                	c.addi4spn	x12,x2,528
                  rem        a2, s2, s9
    1a0c:	03996633          	rem	x12,x18,x25
                  or         a4, a4, zero
    1a10:	00076733          	or	x14,x14,x0
                  mulhu      s4, a6, t3
    1a14:	03c83a33          	mulhu	x20,x16,x28
                  c.slli     t5, 22
    1a18:	0f5a                	c.slli	x30,0x16
                  c.and      a4, s1
    1a1a:	8f65                	c.and	x14,x9
                  c.mv       a2, a0
    1a1c:	862a                	c.mv	x12,x10
                  mulhu      s4, a6, t3
    1a1e:	03c83a33          	mulhu	x20,x16,x28
                  mulhu      s4, a6, t3
    1a22:	03c83a33          	mulhu	x20,x16,x28
                  sra        s9, s4, t5
    1a26:	41ea5cb3          	sra	x25,x20,x30
                  slti       tp, a1, -167
    1a2a:	f595a213          	slti	x4,x11,-167
                  srl        t1, tp, zero
    1a2e:	00025333          	srl	x6,x4,x0
                  auipc      s1, 11691
    1a32:	02dab497          	auipc	x9,0x2dab
                  c.lui      a6, 24
    1a36:	6861                	c.lui	x16,0x18
                  addi       gp, s8, -298
    1a38:	ed6c0193          	addi	x3,x24,-298
                  sltiu      s3, tp, 300
    1a3c:	12c23993          	sltiu	x19,x4,300
                  c.or       a0, a2
    1a40:	8d51                	c.or	x10,x12
                  remu       s6, s3, t1
    1a42:	0269fb33          	remu	x22,x19,x6
                  mulh       s1, t4, s11
    1a46:	03be94b3          	mulh	x9,x29,x27
                  divu       tp, s5, t4
    1a4a:	03dad233          	divu	x4,x21,x29
                  div        s7, gp, a4
    1a4e:	02e1cbb3          	div	x23,x3,x14
                  srai       a4, a3, 0
    1a52:	4006d713          	srai	x14,x13,0x0
                  sltiu      s3, tp, 300
    1a56:	12c23993          	sltiu	x19,x4,300
                  c.addi4spn a2, sp, 528
    1a5a:	0c10                	c.addi4spn	x12,x2,528
                  lui        s3, 985951
    1a5c:	f0b5f9b7          	lui	x19,0xf0b5f
                  c.srli     a4, 9
    1a60:	8325                	c.srli	x14,0x9
                  divu       tp, s5, t4
    1a62:	03dad233          	divu	x4,x21,x29
                  nop
    1a66:	0001                	c.addi	x0,0
                  ori        tp, a0, -848
    1a68:	cb056213          	ori	x4,x10,-848
                  c.or       a0, a2
    1a6c:	8d51                	c.or	x10,x12
                  c.srli     a4, 9
    1a6e:	8325                	c.srli	x14,0x9
                  lui        s3, 985951
    1a70:	f0b5f9b7          	lui	x19,0xf0b5f
                  c.mv       a2, a0
    1a74:	862a                	c.mv	x12,x10
                  c.add      t3, t1
    1a76:	9e1a                	c.add	x28,x6
                  auipc      s1, 11691
    1a78:	02dab497          	auipc	x9,0x2dab
                  c.srli     a4, 9
    1a7c:	8325                	c.srli	x14,0x9
                  c.li       s11, -1
    1a7e:	5dfd                	c.li	x27,-1
                  sra        s9, s4, t5
    1a80:	41ea5cb3          	sra	x25,x20,x30
                  c.xor      a4, a5
    1a84:	8f3d                	c.xor	x14,x15
                  c.and      a4, s1
    1a86:	8f65                	c.and	x14,x9
                  srl        t1, tp, zero
    1a88:	00025333          	srl	x6,x4,x0
                  mulhu      s4, a6, t3
    1a8c:	03c83a33          	mulhu	x20,x16,x28
                  c.andi     s1, 31
    1a90:	88fd                	c.andi	x9,31
                  mul        tp, s2, t5
    1a92:	03e90233          	mul	x4,x18,x30
                  c.slli     t5, 22
    1a96:	0f5a                	c.slli	x30,0x16
                  srai       a4, a3, 0
    1a98:	4006d713          	srai	x14,x13,0x0
                  rem        a2, s2, s9
    1a9c:	03996633          	rem	x12,x18,x25
                  sra        s9, s4, t5
    1aa0:	41ea5cb3          	sra	x25,x20,x30
                  auipc      s1, 11691
    1aa4:	02dab497          	auipc	x9,0x2dab
                  c.addi16sp sp, -16
    1aa8:	717d                	c.addi16sp	x2,-16
                  xor        s11, zero, s7
    1aaa:	01704db3          	xor	x27,x0,x23
                  c.srli     a4, 9
    1aae:	8325                	c.srli	x14,0x9
                  xor        s11, zero, s7
    1ab0:	01704db3          	xor	x27,x0,x23
                  xor        s11, zero, s7
    1ab4:	01704db3          	xor	x27,x0,x23
                  divu       tp, s5, t4
    1ab8:	03dad233          	divu	x4,x21,x29
                  slli       a2, a4, 25
    1abc:	01971613          	slli	x12,x14,0x19
                  c.nop
    1ac0:	0001                	c.addi	x0,0
                  lui        s3, 985951
    1ac2:	f0b5f9b7          	lui	x19,0xf0b5f
                  mulh       s1, t4, s11
    1ac6:	03be94b3          	mulh	x9,x29,x27
                  addi       gp, s8, -298
    1aca:	ed6c0193          	addi	x3,x24,-298
                  remu       s6, s3, t1
    1ace:	0269fb33          	remu	x22,x19,x6
                  c.srai     s1, 28
    1ad2:	84f1                	c.srai	x9,0x1c
                  c.addi16sp sp, -16
    1ad4:	717d                	c.addi16sp	x2,-16
                  c.add      t3, t1
    1ad6:	9e1a                	c.add	x28,x6
                  c.li       s11, -1
    1ad8:	5dfd                	c.li	x27,-1
                  mulh       s1, t4, s11
    1ada:	03be94b3          	mulh	x9,x29,x27
                  rem        a2, s2, s9
    1ade:	03996633          	rem	x12,x18,x25
                  sltu       s3, a6, a4
    1ae2:	00e839b3          	sltu	x19,x16,x14
                  mulhsu     tp, t5, a6
    1ae6:	030f2233          	mulhsu	x4,x30,x16
                  srl        t1, tp, zero
    1aea:	00025333          	srl	x6,x4,x0
                  nop
    1aee:	0001                	c.addi	x0,0
                  c.or       a0, a2
    1af0:	8d51                	c.or	x10,x12
                  c.xor      a4, a5
    1af2:	8f3d                	c.xor	x14,x15
                  and        s6, t2, a4
    1af4:	00e3fb33          	and	x22,x7,x14
                  srli       zero, a0, 13
    1af8:	00d55013          	srli	x0,x10,0xd
                  remu       s6, s3, t1
    1afc:	0269fb33          	remu	x22,x19,x6
                  rem        a2, s2, s9
    1b00:	03996633          	rem	x12,x18,x25
                  or         a4, a4, zero
    1b04:	00076733          	or	x14,x14,x0
                  xori       t3, t1, -721
    1b08:	d2f34e13          	xori	x28,x6,-721
                  and        s6, t2, a4
    1b0c:	00e3fb33          	and	x22,x7,x14
                  srl        t1, tp, zero
    1b10:	00025333          	srl	x6,x4,x0
                  c.slli     t5, 22
    1b14:	0f5a                	c.slli	x30,0x16
                  c.add      t3, t1
    1b16:	9e1a                	c.add	x28,x6
                  slti       tp, a1, -167
    1b18:	f595a213          	slti	x4,x11,-167
                  nop
    1b1c:	0001                	c.addi	x0,0
                  mulhu      s4, a6, t3
    1b1e:	03c83a33          	mulhu	x20,x16,x28
                  c.or       a0, a2
    1b22:	8d51                	c.or	x10,x12
                  sub        s0, t3, gp
    1b24:	403e0433          	sub	x8,x28,x3
                  c.srai     s1, 28
    1b28:	84f1                	c.srai	x9,0x1c
                  mul        tp, s2, t5
    1b2a:	03e90233          	mul	x4,x18,x30
                  c.srai     s1, 28
    1b2e:	84f1                	c.srai	x9,0x1c
                  c.srai     s1, 28
    1b30:	84f1                	c.srai	x9,0x1c
                  c.slli     t5, 22
    1b32:	0f5a                	c.slli	x30,0x16
                  c.andi     s1, 31
    1b34:	88fd                	c.andi	x9,31
                  c.and      a4, s1
    1b36:	8f65                	c.and	x14,x9
                  and        s6, t2, a4
    1b38:	00e3fb33          	and	x22,x7,x14
                  c.or       a0, a2
    1b3c:	8d51                	c.or	x10,x12
                  sltiu      s3, tp, 300
    1b3e:	12c23993          	sltiu	x19,x4,300
                  auipc      s1, 11691
    1b42:	02dab497          	auipc	x9,0x2dab
                  divu       tp, s5, t4
    1b46:	03dad233          	divu	x4,x21,x29
                  c.and      a4, s1
    1b4a:	8f65                	c.and	x14,x9
                  srli       zero, a0, 13
    1b4c:	00d55013          	srli	x0,x10,0xd
                  c.addi4spn a2, sp, 528
    1b50:	0c10                	c.addi4spn	x12,x2,528
                  slli       a2, a4, 25
    1b52:	01971613          	slli	x12,x14,0x19
                  and        s6, t2, a4
    1b56:	00e3fb33          	and	x22,x7,x14
                  srl        t1, tp, zero
    1b5a:	00025333          	srl	x6,x4,x0
                  ori        tp, a0, -848
    1b5e:	cb056213          	ori	x4,x10,-848
                  slli       a2, a4, 25
    1b62:	01971613          	slli	x12,x14,0x19
                  and        s6, t2, a4
    1b66:	00e3fb33          	and	x22,x7,x14
                  c.mv       a2, a0
    1b6a:	862a                	c.mv	x12,x10
                  srli       zero, a0, 13
    1b6c:	00d55013          	srli	x0,x10,0xd
                  c.and      a4, s1
    1b70:	8f65                	c.and	x14,x9
                  nop
    1b72:	0001                	c.addi	x0,0
                  auipc      s1, 11691
    1b74:	02dab497          	auipc	x9,0x2dab
                  addi       gp, s8, -298
    1b78:	ed6c0193          	addi	x3,x24,-298
                  remu       s6, s3, t1
    1b7c:	0269fb33          	remu	x22,x19,x6
                  slli       a2, a4, 25
    1b80:	01971613          	slli	x12,x14,0x19
                  mulh       s1, t4, s11
    1b84:	03be94b3          	mulh	x9,x29,x27
                  c.addi4spn a2, sp, 528
    1b88:	0c10                	c.addi4spn	x12,x2,528
                  add        s4, a7, s6
    1b8a:	01688a33          	add	x20,x17,x22
                  slt        a0, s5, s11
    1b8e:	01baa533          	slt	x10,x21,x27
                  remu       s6, s3, t1
    1b92:	0269fb33          	remu	x22,x19,x6
                  srli       zero, a0, 13
    1b96:	00d55013          	srli	x0,x10,0xd
                  sltiu      s3, tp, 300
    1b9a:	12c23993          	sltiu	x19,x4,300
                  auipc      s1, 11691
    1b9e:	02dab497          	auipc	x9,0x2dab
                  srli       zero, a0, 13
    1ba2:	00d55013          	srli	x0,x10,0xd
                  srli       zero, a0, 13
    1ba6:	00d55013          	srli	x0,x10,0xd
                  mul        tp, s2, t5
    1baa:	03e90233          	mul	x4,x18,x30
                  ori        tp, a0, -848
    1bae:	cb056213          	ori	x4,x10,-848
                  c.or       a0, a2
    1bb2:	8d51                	c.or	x10,x12
                  srai       a4, a3, 0
    1bb4:	4006d713          	srai	x14,x13,0x0
                  sltiu      s3, tp, 300
    1bb8:	12c23993          	sltiu	x19,x4,300
                  slti       tp, a1, -167
    1bbc:	f595a213          	slti	x4,x11,-167
                  sub        s0, t3, gp
    1bc0:	403e0433          	sub	x8,x28,x3
                  mul        tp, s2, t5
    1bc4:	03e90233          	mul	x4,x18,x30
                  c.addi4spn a2, sp, 528
    1bc8:	0c10                	c.addi4spn	x12,x2,528
                  auipc      s1, 11691
    1bca:	02dab497          	auipc	x9,0x2dab
                  mul        tp, s2, t5
    1bce:	03e90233          	mul	x4,x18,x30
                  c.xor      a4, a5
    1bd2:	8f3d                	c.xor	x14,x15
                  andi       t0, a3, 147
    1bd4:	0936f293          	andi	x5,x13,147
                  xori       t3, t1, -721
    1bd8:	d2f34e13          	xori	x28,x6,-721
                  c.add      t3, t1
    1bdc:	9e1a                	c.add	x28,x6
                  div        s7, gp, a4
    1bde:	02e1cbb3          	div	x23,x3,x14
                  c.srli     a4, 9
    1be2:	8325                	c.srli	x14,0x9
                  or         a4, a4, zero
    1be4:	00076733          	or	x14,x14,x0
                  c.srli     a4, 9
    1be8:	8325                	c.srli	x14,0x9
                  div        s7, gp, a4
    1bea:	02e1cbb3          	div	x23,x3,x14
                  c.andi     s1, 31
    1bee:	88fd                	c.andi	x9,31
                  slti       tp, a1, -167
    1bf0:	f595a213          	slti	x4,x11,-167
                  sra        s9, s4, t5
    1bf4:	41ea5cb3          	sra	x25,x20,x30
                  andi       t0, a3, 147
    1bf8:	0936f293          	andi	x5,x13,147
                  divu       tp, s5, t4
    1bfc:	03dad233          	divu	x4,x21,x29
                  srli       zero, a0, 13
    1c00:	00d55013          	srli	x0,x10,0xd
                  slt        a0, s5, s11
    1c04:	01baa533          	slt	x10,x21,x27
                  c.add      t3, t1
    1c08:	9e1a                	c.add	x28,x6
                  mulh       s1, t4, s11
    1c0a:	03be94b3          	mulh	x9,x29,x27
                  slti       tp, a1, -167
    1c0e:	f595a213          	slti	x4,x11,-167
                  srli       zero, a0, 13
    1c12:	00d55013          	srli	x0,x10,0xd
                  addi       gp, s8, -298
    1c16:	ed6c0193          	addi	x3,x24,-298
                  srl        t1, tp, zero
    1c1a:	00025333          	srl	x6,x4,x0
                  slti       tp, a1, -167
    1c1e:	f595a213          	slti	x4,x11,-167
                  nop
    1c22:	0001                	c.addi	x0,0
                  c.sub      s0, s1
    1c24:	8c05                	c.sub	x8,x9
                  c.xor      a4, a5
    1c26:	8f3d                	c.xor	x14,x15
                  c.addi16sp sp, -16
    1c28:	717d                	c.addi16sp	x2,-16
                  mulh       s1, t4, s11
    1c2a:	03be94b3          	mulh	x9,x29,x27
                  andi       t0, a3, 147
    1c2e:	0936f293          	andi	x5,x13,147
                  auipc      s1, 11691
    1c32:	02dab497          	auipc	x9,0x2dab
                  c.sub      s0, s1
    1c36:	8c05                	c.sub	x8,x9
                  mulhsu     tp, t5, a6
    1c38:	030f2233          	mulhsu	x4,x30,x16
                  or         a4, a4, zero
    1c3c:	00076733          	or	x14,x14,x0
                  c.xor      a4, a5
    1c40:	8f3d                	c.xor	x14,x15
                  c.slli     t5, 22
    1c42:	0f5a                	c.slli	x30,0x16
                  and        s6, t2, a4
    1c44:	00e3fb33          	and	x22,x7,x14
                  mulhu      s4, a6, t3
    1c48:	03c83a33          	mulhu	x20,x16,x28
                  srai       a4, a3, 0
    1c4c:	4006d713          	srai	x14,x13,0x0
                  sub        s0, t3, gp
    1c50:	403e0433          	sub	x8,x28,x3
                  c.nop
    1c54:	0001                	c.addi	x0,0
                  srl        t1, tp, zero
    1c56:	00025333          	srl	x6,x4,x0
                  xori       t3, t1, -721
    1c5a:	d2f34e13          	xori	x28,x6,-721
                  mulhu      s4, a6, t3
    1c5e:	03c83a33          	mulhu	x20,x16,x28
                  lui        s3, 985951
    1c62:	f0b5f9b7          	lui	x19,0xf0b5f
                  c.nop
    1c66:	0001                	c.addi	x0,0
                  c.li       s11, -1
    1c68:	5dfd                	c.li	x27,-1
                  mulh       s1, t4, s11
    1c6a:	03be94b3          	mulh	x9,x29,x27
                  lui        s3, 985951
    1c6e:	f0b5f9b7          	lui	x19,0xf0b5f
                  mul        tp, s2, t5
    1c72:	03e90233          	mul	x4,x18,x30
                  c.lui      a6, 24
    1c76:	6861                	c.lui	x16,0x18
                  c.sub      s0, s1
    1c78:	8c05                	c.sub	x8,x9
                  rem        a2, s2, s9
    1c7a:	03996633          	rem	x12,x18,x25
                  c.and      a4, s1
    1c7e:	8f65                	c.and	x14,x9
                  slt        a0, s5, s11
    1c80:	01baa533          	slt	x10,x21,x27
                  slli       a2, a4, 25
    1c84:	01971613          	slli	x12,x14,0x19
                  sltiu      s3, tp, 300
    1c88:	12c23993          	sltiu	x19,x4,300
                  slli       a2, a4, 25
    1c8c:	01971613          	slli	x12,x14,0x19
                  andi       t0, a3, 147
    1c90:	0936f293          	andi	x5,x13,147
                  lui        s3, 985951
    1c94:	f0b5f9b7          	lui	x19,0xf0b5f
                  addi       gp, s8, -298
    1c98:	ed6c0193          	addi	x3,x24,-298
                  remu       s6, s3, t1
    1c9c:	0269fb33          	remu	x22,x19,x6
                  c.or       a0, a2
    1ca0:	8d51                	c.or	x10,x12
                  auipc      s1, 11691
    1ca2:	02dab497          	auipc	x9,0x2dab
                  c.andi     s1, 31
    1ca6:	88fd                	c.andi	x9,31
                  c.addi     s9, -1
    1ca8:	1cfd                	c.addi	x25,-1
                  c.add      t3, t1
    1caa:	9e1a                	c.add	x28,x6
                  c.addi     s9, -1
    1cac:	1cfd                	c.addi	x25,-1
                  c.or       a0, a2
    1cae:	8d51                	c.or	x10,x12
                  c.sub      s0, s1
    1cb0:	8c05                	c.sub	x8,x9
                  c.addi     s9, -1
    1cb2:	1cfd                	c.addi	x25,-1
                  c.nop
    1cb4:	0001                	c.addi	x0,0
                  lui        s3, 985951
    1cb6:	f0b5f9b7          	lui	x19,0xf0b5f
                  sra        s9, s4, t5
    1cba:	41ea5cb3          	sra	x25,x20,x30
                  andi       t0, a3, 147
    1cbe:	0936f293          	andi	x5,x13,147
                  sltiu      s3, tp, 300
    1cc2:	12c23993          	sltiu	x19,x4,300
                  c.add      t3, t1
    1cc6:	9e1a                	c.add	x28,x6
                  xor        s11, zero, s7
    1cc8:	01704db3          	xor	x27,x0,x23
                  div        s7, gp, a4
    1ccc:	02e1cbb3          	div	x23,x3,x14
                  c.li       s11, -1
    1cd0:	5dfd                	c.li	x27,-1
                  sll        s8, s0, s6
    1cd2:	01641c33          	sll	x24,x8,x22
                  addi       gp, s8, -298
    1cd6:	ed6c0193          	addi	x3,x24,-298
                  c.srai     s1, 28
    1cda:	84f1                	c.srai	x9,0x1c
                  c.nop
    1cdc:	0001                	c.addi	x0,0
                  c.srli     a4, 9
    1cde:	8325                	c.srli	x14,0x9
                  andi       t0, a3, 147
    1ce0:	0936f293          	andi	x5,x13,147
                  c.li       s11, -1
    1ce4:	5dfd                	c.li	x27,-1
                  addi       gp, s8, -298
    1ce6:	ed6c0193          	addi	x3,x24,-298
                  c.add      t3, t1
    1cea:	9e1a                	c.add	x28,x6
                  andi       t0, a3, 147
    1cec:	0936f293          	andi	x5,x13,147
                  sltu       s3, a6, a4
    1cf0:	00e839b3          	sltu	x19,x16,x14
                  c.addi16sp sp, -16
    1cf4:	717d                	c.addi16sp	x2,-16
                  sltiu      s3, tp, 300
    1cf6:	12c23993          	sltiu	x19,x4,300
                  sub        s0, t3, gp
    1cfa:	403e0433          	sub	x8,x28,x3
                  slt        a0, s5, s11
    1cfe:	01baa533          	slt	x10,x21,x27
                  c.and      a4, s1
    1d02:	8f65                	c.and	x14,x9
                  or         a4, a4, zero
    1d04:	00076733          	or	x14,x14,x0
                  c.add      t3, t1
    1d08:	9e1a                	c.add	x28,x6
                  sub        s0, t3, gp
    1d0a:	403e0433          	sub	x8,x28,x3
                  sll        s8, s0, s6
    1d0e:	01641c33          	sll	x24,x8,x22
                  xori       t3, t1, -721
    1d12:	d2f34e13          	xori	x28,x6,-721
                  c.addi     s9, -1
    1d16:	1cfd                	c.addi	x25,-1
                  slli       a2, a4, 25
    1d18:	01971613          	slli	x12,x14,0x19
                  add        s4, a7, s6
    1d1c:	01688a33          	add	x20,x17,x22
                  sltiu      s3, tp, 300
    1d20:	12c23993          	sltiu	x19,x4,300
                  slt        a0, s5, s11
    1d24:	01baa533          	slt	x10,x21,x27
                  or         a4, a4, zero
    1d28:	00076733          	or	x14,x14,x0
                  c.addi16sp sp, -16
    1d2c:	717d                	c.addi16sp	x2,-16
                  mulhsu     tp, t5, a6
    1d2e:	030f2233          	mulhsu	x4,x30,x16
                  nop
    1d32:	0001                	c.addi	x0,0
                  srl        t1, tp, zero
    1d34:	00025333          	srl	x6,x4,x0
                  sll        s8, s0, s6
    1d38:	01641c33          	sll	x24,x8,x22
                  c.slli     t5, 22
    1d3c:	0f5a                	c.slli	x30,0x16
                  srli       zero, a0, 13
    1d3e:	00d55013          	srli	x0,x10,0xd
                  addi       gp, s8, -298
    1d42:	ed6c0193          	addi	x3,x24,-298
                  c.andi     s1, 31
    1d46:	88fd                	c.andi	x9,31
                  xor        s11, zero, s7
    1d48:	01704db3          	xor	x27,x0,x23
                  c.srli     a4, 9
    1d4c:	8325                	c.srli	x14,0x9
                  c.andi     s1, 31
    1d4e:	88fd                	c.andi	x9,31
                  sub        s0, t3, gp
    1d50:	403e0433          	sub	x8,x28,x3
                  c.andi     s1, 31
    1d54:	88fd                	c.andi	x9,31
                  add        s4, a7, s6
    1d56:	01688a33          	add	x20,x17,x22
                  xor        s11, zero, s7
    1d5a:	01704db3          	xor	x27,x0,x23
                  c.add      t3, t1
    1d5e:	9e1a                	c.add	x28,x6
                  remu       s6, s3, t1
    1d60:	0269fb33          	remu	x22,x19,x6
                  c.sub      s0, s1
    1d64:	8c05                	c.sub	x8,x9
                  add        s4, a7, s6
    1d66:	01688a33          	add	x20,x17,x22
                  auipc      s1, 11691
    1d6a:	02dab497          	auipc	x9,0x2dab
                  xor        s11, zero, s7
    1d6e:	01704db3          	xor	x27,x0,x23
                  c.sub      s0, s1
    1d72:	8c05                	c.sub	x8,x9
                  slti       tp, a1, -167
    1d74:	f595a213          	slti	x4,x11,-167
                  c.addi4spn a2, sp, 528
    1d78:	0c10                	c.addi4spn	x12,x2,528
                  auipc      s1, 11691
    1d7a:	02dab497          	auipc	x9,0x2dab
                  c.or       a0, a2
    1d7e:	8d51                	c.or	x10,x12
                  srli       zero, a0, 13
    1d80:	00d55013          	srli	x0,x10,0xd
                  remu       s6, s3, t1
    1d84:	0269fb33          	remu	x22,x19,x6
                  c.addi4spn a2, sp, 528
    1d88:	0c10                	c.addi4spn	x12,x2,528
                  slt        a0, s5, s11
    1d8a:	01baa533          	slt	x10,x21,x27
                  mul        tp, s2, t5
    1d8e:	03e90233          	mul	x4,x18,x30
                  sub        s0, t3, gp
    1d92:	403e0433          	sub	x8,x28,x3
                  c.and      a4, s1
    1d96:	8f65                	c.and	x14,x9
                  and        s6, t2, a4
    1d98:	00e3fb33          	and	x22,x7,x14
                  srl        t1, tp, zero
    1d9c:	00025333          	srl	x6,x4,x0
                  c.li       s11, -1
    1da0:	5dfd                	c.li	x27,-1
                  slti       tp, a1, -167
    1da2:	f595a213          	slti	x4,x11,-167
                  c.addi4spn a2, sp, 528
    1da6:	0c10                	c.addi4spn	x12,x2,528
                  c.addi4spn a2, sp, 528
    1da8:	0c10                	c.addi4spn	x12,x2,528
                  nop
    1daa:	0001                	c.addi	x0,0
                  sltiu      s3, tp, 300
    1dac:	12c23993          	sltiu	x19,x4,300
                  sub        s0, t3, gp
    1db0:	403e0433          	sub	x8,x28,x3
                  mulhu      s4, a6, t3
    1db4:	03c83a33          	mulhu	x20,x16,x28
                  slli       a2, a4, 25
    1db8:	01971613          	slli	x12,x14,0x19
                  sra        s9, s4, t5
    1dbc:	41ea5cb3          	sra	x25,x20,x30
                  c.srai     s1, 28
    1dc0:	84f1                	c.srai	x9,0x1c
                  c.addi4spn a2, sp, 528
    1dc2:	0c10                	c.addi4spn	x12,x2,528
                  c.lui      a6, 24
    1dc4:	6861                	c.lui	x16,0x18
                  sra        s9, s4, t5
    1dc6:	41ea5cb3          	sra	x25,x20,x30
                  divu       tp, s5, t4
    1dca:	03dad233          	divu	x4,x21,x29
                  slli       a2, a4, 25
    1dce:	01971613          	slli	x12,x14,0x19
                  remu       s6, s3, t1
    1dd2:	0269fb33          	remu	x22,x19,x6
                  c.add      t3, t1
    1dd6:	9e1a                	c.add	x28,x6
                  c.srli     a4, 9
    1dd8:	8325                	c.srli	x14,0x9
                  or         a4, a4, zero
    1dda:	00076733          	or	x14,x14,x0
                  c.add      t3, t1
    1dde:	9e1a                	c.add	x28,x6
                  auipc      s1, 11691
    1de0:	02dab497          	auipc	x9,0x2dab
                  lui        s3, 985951
    1de4:	f0b5f9b7          	lui	x19,0xf0b5f
                  srli       zero, a0, 13
    1de8:	00d55013          	srli	x0,x10,0xd
                  c.slli     t5, 22
    1dec:	0f5a                	c.slli	x30,0x16
                  auipc      s1, 11691
    1dee:	02dab497          	auipc	x9,0x2dab
                  add        s4, a7, s6
    1df2:	01688a33          	add	x20,x17,x22
                  andi       t0, a3, 147
    1df6:	0936f293          	andi	x5,x13,147
                  c.slli     t5, 22
    1dfa:	0f5a                	c.slli	x30,0x16
                  sll        s8, s0, s6
    1dfc:	01641c33          	sll	x24,x8,x22
                  slli       a2, a4, 25
    1e00:	01971613          	slli	x12,x14,0x19
                  c.nop
    1e04:	0001                	c.addi	x0,0
                  c.srai     s1, 28
    1e06:	84f1                	c.srai	x9,0x1c
                  xori       t3, t1, -721
    1e08:	d2f34e13          	xori	x28,x6,-721
                  or         a4, a4, zero
    1e0c:	00076733          	or	x14,x14,x0
                  c.lui      a6, 24
    1e10:	6861                	c.lui	x16,0x18
                  slti       tp, a1, -167
    1e12:	f595a213          	slti	x4,x11,-167
                  c.lui      a6, 24
    1e16:	6861                	c.lui	x16,0x18
                  mulhsu     tp, t5, a6
    1e18:	030f2233          	mulhsu	x4,x30,x16
                  c.add      t3, t1
    1e1c:	9e1a                	c.add	x28,x6
                  srli       zero, a0, 13
    1e1e:	00d55013          	srli	x0,x10,0xd
                  c.sub      s0, s1
    1e22:	8c05                	c.sub	x8,x9
                  c.sub      s0, s1
    1e24:	8c05                	c.sub	x8,x9
                  divu       tp, s5, t4
    1e26:	03dad233          	divu	x4,x21,x29
                  mulh       s1, t4, s11
    1e2a:	03be94b3          	mulh	x9,x29,x27
                  srl        t1, tp, zero
    1e2e:	00025333          	srl	x6,x4,x0
                  mulh       s1, t4, s11
    1e32:	03be94b3          	mulh	x9,x29,x27
                  mulhsu     tp, t5, a6
    1e36:	030f2233          	mulhsu	x4,x30,x16
                  addi       gp, s8, -298
    1e3a:	ed6c0193          	addi	x3,x24,-298
                  c.or       a0, a2
    1e3e:	8d51                	c.or	x10,x12
                  sll        s8, s0, s6
    1e40:	01641c33          	sll	x24,x8,x22
                  c.slli     t5, 22
    1e44:	0f5a                	c.slli	x30,0x16
                  mulh       s1, t4, s11
    1e46:	03be94b3          	mulh	x9,x29,x27
                  or         a4, a4, zero
    1e4a:	00076733          	or	x14,x14,x0
                  slli       a2, a4, 25
    1e4e:	01971613          	slli	x12,x14,0x19
                  slti       tp, a1, -167
    1e52:	f595a213          	slti	x4,x11,-167
                  mulhu      s4, a6, t3
    1e56:	03c83a33          	mulhu	x20,x16,x28
                  remu       s6, s3, t1
    1e5a:	0269fb33          	remu	x22,x19,x6
                  xor        s11, zero, s7
    1e5e:	01704db3          	xor	x27,x0,x23
                  lui        s3, 985951
    1e62:	f0b5f9b7          	lui	x19,0xf0b5f
                  c.andi     s1, 31
    1e66:	88fd                	c.andi	x9,31
                  c.and      a4, s1
    1e68:	8f65                	c.and	x14,x9
                  sll        s8, s0, s6
    1e6a:	01641c33          	sll	x24,x8,x22
                  remu       s6, s3, t1
    1e6e:	0269fb33          	remu	x22,x19,x6
                  c.li       s11, -1
    1e72:	5dfd                	c.li	x27,-1
                  auipc      s1, 11691
    1e74:	02dab497          	auipc	x9,0x2dab
                  c.add      t3, t1
    1e78:	9e1a                	c.add	x28,x6
                  sub        s0, t3, gp
    1e7a:	403e0433          	sub	x8,x28,x3
                  slt        a0, s5, s11
    1e7e:	01baa533          	slt	x10,x21,x27
                  c.sub      s0, s1
    1e82:	8c05                	c.sub	x8,x9
                  c.srai     s1, 28
    1e84:	84f1                	c.srai	x9,0x1c
                  addi       gp, s8, -298
    1e86:	ed6c0193          	addi	x3,x24,-298
                  andi       t0, a3, 147
    1e8a:	0936f293          	andi	x5,x13,147
                  addi       gp, s8, -298
    1e8e:	ed6c0193          	addi	x3,x24,-298
                  xori       t3, t1, -721
    1e92:	d2f34e13          	xori	x28,x6,-721
                  rem        a2, s2, s9
    1e96:	03996633          	rem	x12,x18,x25
                  c.nop
    1e9a:	0001                	c.addi	x0,0
                  nop
    1e9c:	0001                	c.addi	x0,0
                  mulhsu     tp, t5, a6
    1e9e:	030f2233          	mulhsu	x4,x30,x16
                  sub        s0, t3, gp
    1ea2:	403e0433          	sub	x8,x28,x3
                  c.addi     s9, -1
    1ea6:	1cfd                	c.addi	x25,-1
                  srli       zero, a0, 13
    1ea8:	00d55013          	srli	x0,x10,0xd
                  c.nop
    1eac:	0001                	c.addi	x0,0
                  andi       t0, a3, 147
    1eae:	0936f293          	andi	x5,x13,147
                  c.li       s11, -1
    1eb2:	5dfd                	c.li	x27,-1
                  c.nop
    1eb4:	0001                	c.addi	x0,0
                  c.lui      a6, 24
    1eb6:	6861                	c.lui	x16,0x18
                  mul        tp, s2, t5
    1eb8:	03e90233          	mul	x4,x18,x30
                  and        s6, t2, a4
    1ebc:	00e3fb33          	and	x22,x7,x14
                  slti       tp, a1, -167
    1ec0:	f595a213          	slti	x4,x11,-167
                  nop
    1ec4:	0001                	c.addi	x0,0
                  slti       tp, a1, -167
    1ec6:	f595a213          	slti	x4,x11,-167
                  sltiu      s3, tp, 300
    1eca:	12c23993          	sltiu	x19,x4,300
                  c.addi4spn a2, sp, 528
    1ece:	0c10                	c.addi4spn	x12,x2,528
                  slli       a2, a4, 25
    1ed0:	01971613          	slli	x12,x14,0x19
                  andi       t0, a3, 147
    1ed4:	0936f293          	andi	x5,x13,147
                  lui        s3, 985951
    1ed8:	f0b5f9b7          	lui	x19,0xf0b5f
                  c.addi     s9, -1
    1edc:	1cfd                	c.addi	x25,-1
                  xor        s11, zero, s7
    1ede:	01704db3          	xor	x27,x0,x23
                  slti       tp, a1, -167
    1ee2:	f595a213          	slti	x4,x11,-167
                  c.xor      a4, a5
    1ee6:	8f3d                	c.xor	x14,x15
                  div        s7, gp, a4
    1ee8:	02e1cbb3          	div	x23,x3,x14
                  ori        tp, a0, -848
    1eec:	cb056213          	ori	x4,x10,-848
                  div        s7, gp, a4
    1ef0:	02e1cbb3          	div	x23,x3,x14
                  sub        s0, t3, gp
    1ef4:	403e0433          	sub	x8,x28,x3
                  sltiu      s3, tp, 300
    1ef8:	12c23993          	sltiu	x19,x4,300
                  xor        s11, zero, s7
    1efc:	01704db3          	xor	x27,x0,x23
                  mulh       s1, t4, s11
    1f00:	03be94b3          	mulh	x9,x29,x27
                  c.add      t3, t1
    1f04:	9e1a                	c.add	x28,x6
                  c.sub      s0, s1
    1f06:	8c05                	c.sub	x8,x9
                  slti       tp, a1, -167
    1f08:	f595a213          	slti	x4,x11,-167
                  c.andi     s1, 31
    1f0c:	88fd                	c.andi	x9,31
                  sll        s8, s0, s6
    1f0e:	01641c33          	sll	x24,x8,x22
                  c.andi     s1, 31
    1f12:	88fd                	c.andi	x9,31
                  sra        s9, s4, t5
    1f14:	41ea5cb3          	sra	x25,x20,x30
                  rem        a2, s2, s9
    1f18:	03996633          	rem	x12,x18,x25
                  sub        s0, t3, gp
    1f1c:	403e0433          	sub	x8,x28,x3
                  mulhsu     tp, t5, a6
    1f20:	030f2233          	mulhsu	x4,x30,x16
                  add        s4, a7, s6
    1f24:	01688a33          	add	x20,x17,x22
                  xor        s11, zero, s7
    1f28:	01704db3          	xor	x27,x0,x23
                  sub        s0, t3, gp
    1f2c:	403e0433          	sub	x8,x28,x3
                  rem        a2, s2, s9
    1f30:	03996633          	rem	x12,x18,x25
                  auipc      s1, 11691
    1f34:	02dab497          	auipc	x9,0x2dab
                  divu       tp, s5, t4
    1f38:	03dad233          	divu	x4,x21,x29
                  c.xor      a4, a5
    1f3c:	8f3d                	c.xor	x14,x15
                  c.srli     a4, 9
    1f3e:	8325                	c.srli	x14,0x9
                  c.or       a0, a2
    1f40:	8d51                	c.or	x10,x12
                  c.add      t3, t1
    1f42:	9e1a                	c.add	x28,x6
                  c.mv       a2, a0
    1f44:	862a                	c.mv	x12,x10
                  ori        tp, a0, -848
    1f46:	cb056213          	ori	x4,x10,-848
                  slt        a0, s5, s11
    1f4a:	01baa533          	slt	x10,x21,x27
                  mulh       s1, t4, s11
    1f4e:	03be94b3          	mulh	x9,x29,x27
                  addi       gp, s8, -298
    1f52:	ed6c0193          	addi	x3,x24,-298
                  lui        s3, 985951
    1f56:	f0b5f9b7          	lui	x19,0xf0b5f
                  div        s7, gp, a4
    1f5a:	02e1cbb3          	div	x23,x3,x14
                  rem        a2, s2, s9
    1f5e:	03996633          	rem	x12,x18,x25
                  c.addi     s9, -1
    1f62:	1cfd                	c.addi	x25,-1
                  c.xor      a4, a5
    1f64:	8f3d                	c.xor	x14,x15
                  mul        tp, s2, t5
    1f66:	03e90233          	mul	x4,x18,x30
                  add        s4, a7, s6
    1f6a:	01688a33          	add	x20,x17,x22
                  mul        tp, s2, t5
    1f6e:	03e90233          	mul	x4,x18,x30
                  mulh       s1, t4, s11
    1f72:	03be94b3          	mulh	x9,x29,x27
                  c.sub      s0, s1
    1f76:	8c05                	c.sub	x8,x9
                  sub        s0, t3, gp
    1f78:	403e0433          	sub	x8,x28,x3
                  sra        s9, s4, t5
    1f7c:	41ea5cb3          	sra	x25,x20,x30
                  sll        s8, s0, s6
    1f80:	01641c33          	sll	x24,x8,x22
                  nop
    1f84:	0001                	c.addi	x0,0
                  xori       t3, t1, -721
    1f86:	d2f34e13          	xori	x28,x6,-721
                  mul        tp, s2, t5
    1f8a:	03e90233          	mul	x4,x18,x30
                  divu       tp, s5, t4
    1f8e:	03dad233          	divu	x4,x21,x29
                  c.or       a0, a2
    1f92:	8d51                	c.or	x10,x12
                  srl        t1, tp, zero
    1f94:	00025333          	srl	x6,x4,x0
                  c.addi     s9, -1
    1f98:	1cfd                	c.addi	x25,-1
                  mulh       s1, t4, s11
    1f9a:	03be94b3          	mulh	x9,x29,x27
                  c.or       a0, a2
    1f9e:	8d51                	c.or	x10,x12
                  srai       a4, a3, 0
    1fa0:	4006d713          	srai	x14,x13,0x0
                  mul        tp, s2, t5
    1fa4:	03e90233          	mul	x4,x18,x30
                  sll        s8, s0, s6
    1fa8:	01641c33          	sll	x24,x8,x22
                  sltiu      s3, tp, 300
    1fac:	12c23993          	sltiu	x19,x4,300
                  c.slli     t5, 22
    1fb0:	0f5a                	c.slli	x30,0x16
                  c.andi     s1, 31
    1fb2:	88fd                	c.andi	x9,31
                  c.and      a4, s1
    1fb4:	8f65                	c.and	x14,x9
                  c.xor      a4, a5
    1fb6:	8f3d                	c.xor	x14,x15
                  c.xor      a4, a5
    1fb8:	8f3d                	c.xor	x14,x15
                  sltu       s3, a6, a4
    1fba:	00e839b3          	sltu	x19,x16,x14
                  slt        a0, s5, s11
    1fbe:	01baa533          	slt	x10,x21,x27
                  ori        tp, a0, -848
    1fc2:	cb056213          	ori	x4,x10,-848
                  c.add      t3, t1
    1fc6:	9e1a                	c.add	x28,x6
                  c.lui      a6, 24
    1fc8:	6861                	c.lui	x16,0x18
                  auipc      s1, 11691
    1fca:	02dab497          	auipc	x9,0x2dab
                  and        s6, t2, a4
    1fce:	00e3fb33          	and	x22,x7,x14
                  c.li       s11, -1
    1fd2:	5dfd                	c.li	x27,-1
                  mulh       s1, t4, s11
    1fd4:	03be94b3          	mulh	x9,x29,x27
                  mul        tp, s2, t5
    1fd8:	03e90233          	mul	x4,x18,x30
                  mulhsu     tp, t5, a6
    1fdc:	030f2233          	mulhsu	x4,x30,x16
                  divu       tp, s5, t4
    1fe0:	03dad233          	divu	x4,x21,x29
                  add        s4, a7, s6
    1fe4:	01688a33          	add	x20,x17,x22
                  c.srai     s1, 28
    1fe8:	84f1                	c.srai	x9,0x1c
                  rem        a2, s2, s9
    1fea:	03996633          	rem	x12,x18,x25
                  mulhsu     tp, t5, a6
    1fee:	030f2233          	mulhsu	x4,x30,x16
                  remu       s6, s3, t1
    1ff2:	0269fb33          	remu	x22,x19,x6
                  lui        s3, 985951
    1ff6:	f0b5f9b7          	lui	x19,0xf0b5f
                  remu       s6, s3, t1
    1ffa:	0269fb33          	remu	x22,x19,x6
                  sra        s9, s4, t5
    1ffe:	41ea5cb3          	sra	x25,x20,x30
                  sltiu      s3, tp, 300
    2002:	12c23993          	sltiu	x19,x4,300
                  c.addi     s9, -1
    2006:	1cfd                	c.addi	x25,-1
                  lui        s3, 985951
    2008:	f0b5f9b7          	lui	x19,0xf0b5f
                  lui        s3, 985951
    200c:	f0b5f9b7          	lui	x19,0xf0b5f
                  andi       t0, a3, 147
    2010:	0936f293          	andi	x5,x13,147
                  slt        a0, s5, s11
    2014:	01baa533          	slt	x10,x21,x27
                  c.add      t3, t1
    2018:	9e1a                	c.add	x28,x6
                  andi       t0, a3, 147
    201a:	0936f293          	andi	x5,x13,147
                  add        s4, a7, s6
    201e:	01688a33          	add	x20,x17,x22
                  andi       t0, a3, 147
    2022:	0936f293          	andi	x5,x13,147
                  sltu       s3, a6, a4
    2026:	00e839b3          	sltu	x19,x16,x14
                  c.sub      s0, s1
    202a:	8c05                	c.sub	x8,x9
                  andi       t0, a3, 147
    202c:	0936f293          	andi	x5,x13,147
                  c.add      t3, t1
    2030:	9e1a                	c.add	x28,x6
                  c.sub      s0, s1
    2032:	8c05                	c.sub	x8,x9
                  c.slli     t5, 22
    2034:	0f5a                	c.slli	x30,0x16
                  srl        t1, tp, zero
    2036:	00025333          	srl	x6,x4,x0
                  lui        s3, 985951
    203a:	f0b5f9b7          	lui	x19,0xf0b5f
                  slli       a2, a4, 25
    203e:	01971613          	slli	x12,x14,0x19
                  sltu       s3, a6, a4
    2042:	00e839b3          	sltu	x19,x16,x14
                  c.mv       a2, a0
    2046:	862a                	c.mv	x12,x10
                  mulh       s1, t4, s11
    2048:	03be94b3          	mulh	x9,x29,x27
                  c.sub      s0, s1
    204c:	8c05                	c.sub	x8,x9
                  addi       gp, s8, -298
    204e:	ed6c0193          	addi	x3,x24,-298
                  c.li       s11, -1
    2052:	5dfd                	c.li	x27,-1
                  slli       a2, a4, 25
    2054:	01971613          	slli	x12,x14,0x19
                  nop
    2058:	0001                	c.addi	x0,0
                  add        s4, a7, s6
    205a:	01688a33          	add	x20,x17,x22
                  nop
    205e:	0001                	c.addi	x0,0
                  sra        s9, s4, t5
    2060:	41ea5cb3          	sra	x25,x20,x30
                  c.li       s11, -1
    2064:	5dfd                	c.li	x27,-1
                  c.srli     a4, 9
    2066:	8325                	c.srli	x14,0x9
                  sub        s0, t3, gp
    2068:	403e0433          	sub	x8,x28,x3
                  nop
    206c:	0001                	c.addi	x0,0
                  c.slli     t5, 22
    206e:	0f5a                	c.slli	x30,0x16
                  mulhsu     tp, t5, a6
    2070:	030f2233          	mulhsu	x4,x30,x16
                  c.addi16sp sp, -16
    2074:	717d                	c.addi16sp	x2,-16
                  c.or       a0, a2
    2076:	8d51                	c.or	x10,x12
                  lui        s3, 985951
    2078:	f0b5f9b7          	lui	x19,0xf0b5f
                  c.srli     a4, 9
    207c:	8325                	c.srli	x14,0x9
                  slti       tp, a1, -167
    207e:	f595a213          	slti	x4,x11,-167
                  c.nop
    2082:	0001                	c.addi	x0,0
                  c.addi4spn a2, sp, 528
    2084:	0c10                	c.addi4spn	x12,x2,528
                  c.srai     s1, 28
    2086:	84f1                	c.srai	x9,0x1c
                  c.xor      a4, a5
    2088:	8f3d                	c.xor	x14,x15
                  c.xor      a4, a5
    208a:	8f3d                	c.xor	x14,x15
                  slti       tp, a1, -167
    208c:	f595a213          	slti	x4,x11,-167
                  or         a4, a4, zero
    2090:	00076733          	or	x14,x14,x0
                  sll        s8, s0, s6
    2094:	01641c33          	sll	x24,x8,x22
                  xor        s11, zero, s7
    2098:	01704db3          	xor	x27,x0,x23
                  c.mv       a2, a0
    209c:	862a                	c.mv	x12,x10
                  c.addi16sp sp, -16
    209e:	717d                	c.addi16sp	x2,-16
                  sra        s9, s4, t5
    20a0:	41ea5cb3          	sra	x25,x20,x30
                  mul        tp, s2, t5
    20a4:	03e90233          	mul	x4,x18,x30
                  c.xor      a4, a5
    20a8:	8f3d                	c.xor	x14,x15
                  auipc      s1, 11691
    20aa:	02dab497          	auipc	x9,0x2dab
                  xori       t3, t1, -721
    20ae:	d2f34e13          	xori	x28,x6,-721
                  slli       a2, a4, 25
    20b2:	01971613          	slli	x12,x14,0x19
                  srli       zero, a0, 13
    20b6:	00d55013          	srli	x0,x10,0xd
                  slli       a2, a4, 25
    20ba:	01971613          	slli	x12,x14,0x19
                  sltiu      s3, tp, 300
    20be:	12c23993          	sltiu	x19,x4,300
                  c.xor      a4, a5
    20c2:	8f3d                	c.xor	x14,x15
                  c.or       a0, a2
    20c4:	8d51                	c.or	x10,x12
                  addi       gp, s8, -298
    20c6:	ed6c0193          	addi	x3,x24,-298
                  c.addi16sp sp, -16
    20ca:	717d                	c.addi16sp	x2,-16
                  c.srai     s1, 28
    20cc:	84f1                	c.srai	x9,0x1c
                  or         a4, a4, zero
    20ce:	00076733          	or	x14,x14,x0
                  and        s6, t2, a4
    20d2:	00e3fb33          	and	x22,x7,x14
                  c.sub      s0, s1
    20d6:	8c05                	c.sub	x8,x9
                  c.xor      a4, a5
    20d8:	8f3d                	c.xor	x14,x15
                  c.add      t3, t1
    20da:	9e1a                	c.add	x28,x6
                  mulh       s1, t4, s11
    20dc:	03be94b3          	mulh	x9,x29,x27
                  mulhsu     tp, t5, a6
    20e0:	030f2233          	mulhsu	x4,x30,x16
                  slti       tp, a1, -167
    20e4:	f595a213          	slti	x4,x11,-167
                  c.srai     s1, 28
    20e8:	84f1                	c.srai	x9,0x1c
                  c.li       s11, -1
    20ea:	5dfd                	c.li	x27,-1
                  slti       tp, a1, -167
    20ec:	f595a213          	slti	x4,x11,-167
                  sub        s0, t3, gp
    20f0:	403e0433          	sub	x8,x28,x3
                  lui        s3, 985951
    20f4:	f0b5f9b7          	lui	x19,0xf0b5f
                  c.sub      s0, s1
    20f8:	8c05                	c.sub	x8,x9
                  rem        a2, s2, s9
    20fa:	03996633          	rem	x12,x18,x25
                  auipc      s1, 11691
    20fe:	02dab497          	auipc	x9,0x2dab
                  c.addi4spn a2, sp, 528
    2102:	0c10                	c.addi4spn	x12,x2,528
                  c.nop
    2104:	0001                	c.addi	x0,0
                  mulh       s1, t4, s11
    2106:	03be94b3          	mulh	x9,x29,x27
                  c.addi     s9, -1
    210a:	1cfd                	c.addi	x25,-1
                  c.sub      s0, s1
    210c:	8c05                	c.sub	x8,x9
                  auipc      s1, 11691
    210e:	02dab497          	auipc	x9,0x2dab
                  xor        s11, zero, s7
    2112:	01704db3          	xor	x27,x0,x23
                  mulh       s1, t4, s11
    2116:	03be94b3          	mulh	x9,x29,x27
                  c.lui      a6, 24
    211a:	6861                	c.lui	x16,0x18
                  mulh       s1, t4, s11
    211c:	03be94b3          	mulh	x9,x29,x27
                  c.andi     s1, 31
    2120:	88fd                	c.andi	x9,31
                  c.addi4spn a2, sp, 528
    2122:	0c10                	c.addi4spn	x12,x2,528
                  mulh       s1, t4, s11
    2124:	03be94b3          	mulh	x9,x29,x27
                  c.addi     s9, -1
    2128:	1cfd                	c.addi	x25,-1
                  c.addi     s9, -1
    212a:	1cfd                	c.addi	x25,-1
                  and        s6, t2, a4
    212c:	00e3fb33          	and	x22,x7,x14
                  c.li       s11, -1
    2130:	5dfd                	c.li	x27,-1
                  addi       gp, s8, -298
    2132:	ed6c0193          	addi	x3,x24,-298
                  srai       a4, a3, 0
    2136:	4006d713          	srai	x14,x13,0x0
                  c.mv       a2, a0
    213a:	862a                	c.mv	x12,x10
                  mulhsu     tp, t5, a6
    213c:	030f2233          	mulhsu	x4,x30,x16
                  xor        s11, zero, s7
    2140:	01704db3          	xor	x27,x0,x23
                  xori       t3, t1, -721
    2144:	d2f34e13          	xori	x28,x6,-721
                  c.xor      a4, a5
    2148:	8f3d                	c.xor	x14,x15
                  or         a4, a4, zero
    214a:	00076733          	or	x14,x14,x0
                  auipc      s1, 11691
    214e:	02dab497          	auipc	x9,0x2dab
                  c.srli     a4, 9
    2152:	8325                	c.srli	x14,0x9
                  slli       a2, a4, 25
    2154:	01971613          	slli	x12,x14,0x19
                  rem        a2, s2, s9
    2158:	03996633          	rem	x12,x18,x25
                  c.addi4spn a2, sp, 528
    215c:	0c10                	c.addi4spn	x12,x2,528
                  rem        a2, s2, s9
    215e:	03996633          	rem	x12,x18,x25
                  c.xor      a4, a5
    2162:	8f3d                	c.xor	x14,x15
                  c.srai     s1, 28
    2164:	84f1                	c.srai	x9,0x1c
                  divu       tp, s5, t4
    2166:	03dad233          	divu	x4,x21,x29
                  sll        s8, s0, s6
    216a:	01641c33          	sll	x24,x8,x22
                  c.xor      a4, a5
    216e:	8f3d                	c.xor	x14,x15
                  andi       t0, a3, 147
    2170:	0936f293          	andi	x5,x13,147
                  slli       a2, a4, 25
    2174:	01971613          	slli	x12,x14,0x19
                  c.slli     t5, 22
    2178:	0f5a                	c.slli	x30,0x16
                  slti       tp, a1, -167
    217a:	f595a213          	slti	x4,x11,-167
                  c.slli     t5, 22
    217e:	0f5a                	c.slli	x30,0x16
                  divu       tp, s5, t4
    2180:	03dad233          	divu	x4,x21,x29
                  srl        t1, tp, zero
    2184:	00025333          	srl	x6,x4,x0
                  div        s7, gp, a4
    2188:	02e1cbb3          	div	x23,x3,x14
                  xor        s11, zero, s7
    218c:	01704db3          	xor	x27,x0,x23
                  c.slli     t5, 22
    2190:	0f5a                	c.slli	x30,0x16
                  remu       s6, s3, t1
    2192:	0269fb33          	remu	x22,x19,x6
                  c.mv       a2, a0
    2196:	862a                	c.mv	x12,x10
                  lui        s3, 985951
    2198:	f0b5f9b7          	lui	x19,0xf0b5f
                  c.srli     a4, 9
    219c:	8325                	c.srli	x14,0x9
                  c.slli     t5, 22
    219e:	0f5a                	c.slli	x30,0x16
                  c.or       a0, a2
    21a0:	8d51                	c.or	x10,x12
                  c.addi16sp sp, -16
    21a2:	717d                	c.addi16sp	x2,-16
                  mulh       s1, t4, s11
    21a4:	03be94b3          	mulh	x9,x29,x27
                  c.or       a0, a2
    21a8:	8d51                	c.or	x10,x12
                  c.lui      a6, 24
    21aa:	6861                	c.lui	x16,0x18
                  c.addi4spn a2, sp, 528
    21ac:	0c10                	c.addi4spn	x12,x2,528
                  c.add      t3, t1
    21ae:	9e1a                	c.add	x28,x6
                  nop
    21b0:	0001                	c.addi	x0,0
                  divu       tp, s5, t4
    21b2:	03dad233          	divu	x4,x21,x29
                  c.li       s11, -1
    21b6:	5dfd                	c.li	x27,-1
                  add        s4, a7, s6
    21b8:	01688a33          	add	x20,x17,x22
                  c.slli     t5, 22
    21bc:	0f5a                	c.slli	x30,0x16
                  lui        s3, 985951
    21be:	f0b5f9b7          	lui	x19,0xf0b5f
                  c.addi4spn a2, sp, 528
    21c2:	0c10                	c.addi4spn	x12,x2,528
                  sltu       s3, a6, a4
    21c4:	00e839b3          	sltu	x19,x16,x14
                  mulhsu     tp, t5, a6
    21c8:	030f2233          	mulhsu	x4,x30,x16
                  auipc      s1, 11691
    21cc:	02dab497          	auipc	x9,0x2dab
                  sll        s8, s0, s6
    21d0:	01641c33          	sll	x24,x8,x22
                  c.mv       a2, a0
    21d4:	862a                	c.mv	x12,x10
                  xor        s11, zero, s7
    21d6:	01704db3          	xor	x27,x0,x23
                  srai       a4, a3, 0
    21da:	4006d713          	srai	x14,x13,0x0
                  c.mv       a2, a0
    21de:	862a                	c.mv	x12,x10
                  mulhsu     tp, t5, a6
    21e0:	030f2233          	mulhsu	x4,x30,x16
                  xor        s11, zero, s7
    21e4:	01704db3          	xor	x27,x0,x23
                  auipc      s1, 11691
    21e8:	02dab497          	auipc	x9,0x2dab
                  nop
    21ec:	0001                	c.addi	x0,0
                  remu       s6, s3, t1
    21ee:	0269fb33          	remu	x22,x19,x6
                  divu       tp, s5, t4
    21f2:	03dad233          	divu	x4,x21,x29
                  slli       a2, a4, 25
    21f6:	01971613          	slli	x12,x14,0x19
                  xori       t3, t1, -721
    21fa:	d2f34e13          	xori	x28,x6,-721
                  c.srli     a4, 9
    21fe:	8325                	c.srli	x14,0x9
                  auipc      s1, 11691
    2200:	02dab497          	auipc	x9,0x2dab
                  rem        a2, s2, s9
    2204:	03996633          	rem	x12,x18,x25
                  c.xor      a4, a5
    2208:	8f3d                	c.xor	x14,x15
                  sltiu      s3, tp, 300
    220a:	12c23993          	sltiu	x19,x4,300
                  addi       gp, s8, -298
    220e:	ed6c0193          	addi	x3,x24,-298
                  slti       tp, a1, -167
    2212:	f595a213          	slti	x4,x11,-167
                  srai       a4, a3, 0
    2216:	4006d713          	srai	x14,x13,0x0
                  xori       t3, t1, -721
    221a:	d2f34e13          	xori	x28,x6,-721
                  xor        s11, zero, s7
    221e:	01704db3          	xor	x27,x0,x23
                  c.and      a4, s1
    2222:	8f65                	c.and	x14,x9
                  sra        s9, s4, t5
    2224:	41ea5cb3          	sra	x25,x20,x30
                  c.li       s11, -1
    2228:	5dfd                	c.li	x27,-1
                  sltiu      s3, tp, 300
    222a:	12c23993          	sltiu	x19,x4,300
                  slt        a0, s5, s11
    222e:	01baa533          	slt	x10,x21,x27
                  sltiu      s3, tp, 300
    2232:	12c23993          	sltiu	x19,x4,300
                  addi       gp, s8, -298
    2236:	ed6c0193          	addi	x3,x24,-298
                  sltiu      s3, tp, 300
    223a:	12c23993          	sltiu	x19,x4,300
                  lui        s3, 985951
    223e:	f0b5f9b7          	lui	x19,0xf0b5f
                  divu       tp, s5, t4
    2242:	03dad233          	divu	x4,x21,x29
                  divu       tp, s5, t4
    2246:	03dad233          	divu	x4,x21,x29
                  mul        tp, s2, t5
    224a:	03e90233          	mul	x4,x18,x30
                  and        s6, t2, a4
    224e:	00e3fb33          	and	x22,x7,x14
                  ori        tp, a0, -848
    2252:	cb056213          	ori	x4,x10,-848
                  c.lui      a6, 24
    2256:	6861                	c.lui	x16,0x18
                  srli       zero, a0, 13
    2258:	00d55013          	srli	x0,x10,0xd
                  mul        tp, s2, t5
    225c:	03e90233          	mul	x4,x18,x30
                  sll        s8, s0, s6
    2260:	01641c33          	sll	x24,x8,x22
                  sub        s0, t3, gp
    2264:	403e0433          	sub	x8,x28,x3
                  srli       zero, a0, 13
    2268:	00d55013          	srli	x0,x10,0xd
                  c.andi     s1, 31
    226c:	88fd                	c.andi	x9,31
                  andi       t0, a3, 147
    226e:	0936f293          	andi	x5,x13,147
                  slt        a0, s5, s11
    2272:	01baa533          	slt	x10,x21,x27
                  lui        s3, 985951
    2276:	f0b5f9b7          	lui	x19,0xf0b5f
                  srai       a4, a3, 0
    227a:	4006d713          	srai	x14,x13,0x0
                  auipc      s1, 11691
    227e:	02dab497          	auipc	x9,0x2dab
                  slt        a0, s5, s11
    2282:	01baa533          	slt	x10,x21,x27
                  ori        tp, a0, -848
    2286:	cb056213          	ori	x4,x10,-848
                  sltu       s3, a6, a4
    228a:	00e839b3          	sltu	x19,x16,x14
                  divu       tp, s5, t4
    228e:	03dad233          	divu	x4,x21,x29
                  ori        tp, a0, -848
    2292:	cb056213          	ori	x4,x10,-848
                  c.nop
    2296:	0001                	c.addi	x0,0
                  div        s7, gp, a4
    2298:	02e1cbb3          	div	x23,x3,x14
                  c.addi     s9, -1
    229c:	1cfd                	c.addi	x25,-1
                  c.slli     t5, 22
    229e:	0f5a                	c.slli	x30,0x16
                  mul        tp, s2, t5
    22a0:	03e90233          	mul	x4,x18,x30
                  c.addi16sp sp, -16
    22a4:	717d                	c.addi16sp	x2,-16
                  addi       gp, s8, -298
    22a6:	ed6c0193          	addi	x3,x24,-298
                  rem        a2, s2, s9
    22aa:	03996633          	rem	x12,x18,x25
                  c.addi     s9, -1
    22ae:	1cfd                	c.addi	x25,-1
                  sub        s0, t3, gp
    22b0:	403e0433          	sub	x8,x28,x3
                  c.lui      a6, 24
    22b4:	6861                	c.lui	x16,0x18
                  or         a4, a4, zero
    22b6:	00076733          	or	x14,x14,x0
                  rem        a2, s2, s9
    22ba:	03996633          	rem	x12,x18,x25
                  srl        t1, tp, zero
    22be:	00025333          	srl	x6,x4,x0
                  slli       a2, a4, 25
    22c2:	01971613          	slli	x12,x14,0x19
                  sll        s8, s0, s6
    22c6:	01641c33          	sll	x24,x8,x22
                  c.xor      a4, a5
    22ca:	8f3d                	c.xor	x14,x15
                  divu       tp, s5, t4
    22cc:	03dad233          	divu	x4,x21,x29
                  slli       a2, a4, 25
    22d0:	01971613          	slli	x12,x14,0x19
                  or         a4, a4, zero
    22d4:	00076733          	or	x14,x14,x0
                  mulh       s1, t4, s11
    22d8:	03be94b3          	mulh	x9,x29,x27
                  c.xor      a4, a5
    22dc:	8f3d                	c.xor	x14,x15
                  c.addi16sp sp, -16
    22de:	717d                	c.addi16sp	x2,-16
                  c.mv       a2, a0
    22e0:	862a                	c.mv	x12,x10
                  c.andi     s1, 31
    22e2:	88fd                	c.andi	x9,31
                  slli       a2, a4, 25
    22e4:	01971613          	slli	x12,x14,0x19
                  and        s6, t2, a4
    22e8:	00e3fb33          	and	x22,x7,x14
                  c.and      a4, s1
    22ec:	8f65                	c.and	x14,x9
                  c.or       a0, a2
    22ee:	8d51                	c.or	x10,x12
                  divu       tp, s5, t4
    22f0:	03dad233          	divu	x4,x21,x29
                  andi       t0, a3, 147
    22f4:	0936f293          	andi	x5,x13,147
                  c.srai     s1, 28
    22f8:	84f1                	c.srai	x9,0x1c
                  mulh       s1, t4, s11
    22fa:	03be94b3          	mulh	x9,x29,x27
                  c.xor      a4, a5
    22fe:	8f3d                	c.xor	x14,x15
                  remu       s6, s3, t1
    2300:	0269fb33          	remu	x22,x19,x6
                  mulhsu     tp, t5, a6
    2304:	030f2233          	mulhsu	x4,x30,x16
                  c.srai     s1, 28
    2308:	84f1                	c.srai	x9,0x1c
                  c.addi4spn a2, sp, 528
    230a:	0c10                	c.addi4spn	x12,x2,528
                  ori        tp, a0, -848
    230c:	cb056213          	ori	x4,x10,-848
                  rem        a2, s2, s9
    2310:	03996633          	rem	x12,x18,x25
                  sltiu      s3, tp, 300
    2314:	12c23993          	sltiu	x19,x4,300
                  c.and      a4, s1
    2318:	8f65                	c.and	x14,x9
                  c.addi4spn a2, sp, 528
    231a:	0c10                	c.addi4spn	x12,x2,528
                  rem        a2, s2, s9
    231c:	03996633          	rem	x12,x18,x25
                  mulh       s1, t4, s11
    2320:	03be94b3          	mulh	x9,x29,x27
                  or         a4, a4, zero
    2324:	00076733          	or	x14,x14,x0
                  c.li       s11, -1
    2328:	5dfd                	c.li	x27,-1
                  c.mv       a2, a0
    232a:	862a                	c.mv	x12,x10
                  sll        s8, s0, s6
    232c:	01641c33          	sll	x24,x8,x22
                  c.or       a0, a2
    2330:	8d51                	c.or	x10,x12
                  slli       a2, a4, 25
    2332:	01971613          	slli	x12,x14,0x19
                  srli       zero, a0, 13
    2336:	00d55013          	srli	x0,x10,0xd
                  lui        s3, 985951
    233a:	f0b5f9b7          	lui	x19,0xf0b5f
                  slti       tp, a1, -167
    233e:	f595a213          	slti	x4,x11,-167
                  c.srai     s1, 28
    2342:	84f1                	c.srai	x9,0x1c
                  c.srli     a4, 9
    2344:	8325                	c.srli	x14,0x9
                  c.slli     t5, 22
    2346:	0f5a                	c.slli	x30,0x16
                  c.sub      s0, s1
    2348:	8c05                	c.sub	x8,x9
                  c.lui      a6, 24
    234a:	6861                	c.lui	x16,0x18
                  c.addi16sp sp, -16
    234c:	717d                	c.addi16sp	x2,-16
                  and        s6, t2, a4
    234e:	00e3fb33          	and	x22,x7,x14
                  c.and      a4, s1
    2352:	8f65                	c.and	x14,x9
                  c.sub      s0, s1
    2354:	8c05                	c.sub	x8,x9
                  srli       zero, a0, 13
    2356:	00d55013          	srli	x0,x10,0xd
                  c.srai     s1, 28
    235a:	84f1                	c.srai	x9,0x1c
                  c.lui      a6, 24
    235c:	6861                	c.lui	x16,0x18
                  mulhu      s4, a6, t3
    235e:	03c83a33          	mulhu	x20,x16,x28
                  c.sub      s0, s1
    2362:	8c05                	c.sub	x8,x9
                  remu       s6, s3, t1
    2364:	0269fb33          	remu	x22,x19,x6
                  div        s7, gp, a4
    2368:	02e1cbb3          	div	x23,x3,x14
                  sltu       s3, a6, a4
    236c:	00e839b3          	sltu	x19,x16,x14
                  sll        s8, s0, s6
    2370:	01641c33          	sll	x24,x8,x22
                  c.andi     s1, 31
    2374:	88fd                	c.andi	x9,31
                  sltiu      s3, tp, 300
    2376:	12c23993          	sltiu	x19,x4,300
                  mulh       s1, t4, s11
    237a:	03be94b3          	mulh	x9,x29,x27
                  c.srli     a4, 9
    237e:	8325                	c.srli	x14,0x9
                  sltiu      s3, tp, 300
    2380:	12c23993          	sltiu	x19,x4,300
                  c.srli     a4, 9
    2384:	8325                	c.srli	x14,0x9
                  xori       t3, t1, -721
    2386:	d2f34e13          	xori	x28,x6,-721
                  c.slli     t5, 22
    238a:	0f5a                	c.slli	x30,0x16
                  mul        tp, s2, t5
    238c:	03e90233          	mul	x4,x18,x30
                  c.srli     a4, 9
    2390:	8325                	c.srli	x14,0x9
                  rem        a2, s2, s9
    2392:	03996633          	rem	x12,x18,x25
                  ori        tp, a0, -848
    2396:	cb056213          	ori	x4,x10,-848
                  remu       s6, s3, t1
    239a:	0269fb33          	remu	x22,x19,x6
                  mulhu      s4, a6, t3
    239e:	03c83a33          	mulhu	x20,x16,x28
                  ori        tp, a0, -848
    23a2:	cb056213          	ori	x4,x10,-848
                  or         a4, a4, zero
    23a6:	00076733          	or	x14,x14,x0
                  c.addi16sp sp, -16
    23aa:	717d                	c.addi16sp	x2,-16
                  c.andi     s1, 31
    23ac:	88fd                	c.andi	x9,31
                  c.lui      a6, 24
    23ae:	6861                	c.lui	x16,0x18
                  div        s7, gp, a4
    23b0:	02e1cbb3          	div	x23,x3,x14
                  c.slli     t5, 22
    23b4:	0f5a                	c.slli	x30,0x16
                  srai       a4, a3, 0
    23b6:	4006d713          	srai	x14,x13,0x0
                  c.addi4spn a2, sp, 528
    23ba:	0c10                	c.addi4spn	x12,x2,528
                  slli       a2, a4, 25
    23bc:	01971613          	slli	x12,x14,0x19
                  c.nop
    23c0:	0001                	c.addi	x0,0
                  c.sub      s0, s1
    23c2:	8c05                	c.sub	x8,x9
                  sub        s0, t3, gp
    23c4:	403e0433          	sub	x8,x28,x3
                  c.srai     s1, 28
    23c8:	84f1                	c.srai	x9,0x1c
                  sltu       s3, a6, a4
    23ca:	00e839b3          	sltu	x19,x16,x14
                  c.li       s11, -1
    23ce:	5dfd                	c.li	x27,-1
                  slt        a0, s5, s11
    23d0:	01baa533          	slt	x10,x21,x27
                  sll        s8, s0, s6
    23d4:	01641c33          	sll	x24,x8,x22
                  sll        s8, s0, s6
    23d8:	01641c33          	sll	x24,x8,x22
                  xori       t3, t1, -721
    23dc:	d2f34e13          	xori	x28,x6,-721
                  remu       s6, s3, t1
    23e0:	0269fb33          	remu	x22,x19,x6
                  or         a4, a4, zero
    23e4:	00076733          	or	x14,x14,x0
                  c.srli     a4, 9
    23e8:	8325                	c.srli	x14,0x9
                  xor        s11, zero, s7
    23ea:	01704db3          	xor	x27,x0,x23
                  div        s7, gp, a4
    23ee:	02e1cbb3          	div	x23,x3,x14
                  c.xor      a4, a5
    23f2:	8f3d                	c.xor	x14,x15
                  c.slli     t5, 22
    23f4:	0f5a                	c.slli	x30,0x16
                  auipc      s1, 11691
    23f6:	02dab497          	auipc	x9,0x2dab
                  remu       s6, s3, t1
    23fa:	0269fb33          	remu	x22,x19,x6
                  c.addi     s9, -1
    23fe:	1cfd                	c.addi	x25,-1
                  sltu       s3, a6, a4
    2400:	00e839b3          	sltu	x19,x16,x14
                  c.add      t3, t1
    2404:	9e1a                	c.add	x28,x6
                  remu       s6, s3, t1
    2406:	0269fb33          	remu	x22,x19,x6
                  c.sub      s0, s1
    240a:	8c05                	c.sub	x8,x9
                  divu       tp, s5, t4
    240c:	03dad233          	divu	x4,x21,x29
                  c.xor      a4, a5
    2410:	8f3d                	c.xor	x14,x15
                  sra        s9, s4, t5
    2412:	41ea5cb3          	sra	x25,x20,x30
                  c.xor      a4, a5
    2416:	8f3d                	c.xor	x14,x15
                  mulhu      s4, a6, t3
    2418:	03c83a33          	mulhu	x20,x16,x28
                  auipc      s1, 11691
    241c:	02dab497          	auipc	x9,0x2dab
                  sll        s8, s0, s6
    2420:	01641c33          	sll	x24,x8,x22
                  andi       t0, a3, 147
    2424:	0936f293          	andi	x5,x13,147
                  sltiu      s3, tp, 300
    2428:	12c23993          	sltiu	x19,x4,300
                  c.srli     a4, 9
    242c:	8325                	c.srli	x14,0x9
                  lui        s3, 985951
    242e:	f0b5f9b7          	lui	x19,0xf0b5f
                  c.or       a0, a2
    2432:	8d51                	c.or	x10,x12
                  srli       zero, a0, 13
    2434:	00d55013          	srli	x0,x10,0xd
                  c.lui      a6, 24
    2438:	6861                	c.lui	x16,0x18
                  rem        a2, s2, s9
    243a:	03996633          	rem	x12,x18,x25
                  nop
    243e:	0001                	c.addi	x0,0
                  mulhsu     tp, t5, a6
    2440:	030f2233          	mulhsu	x4,x30,x16
                  lui        s3, 985951
    2444:	f0b5f9b7          	lui	x19,0xf0b5f
                  lui        s3, 985951
    2448:	f0b5f9b7          	lui	x19,0xf0b5f
                  add        s4, a7, s6
    244c:	01688a33          	add	x20,x17,x22
                  c.or       a0, a2
    2450:	8d51                	c.or	x10,x12
                  c.add      t3, t1
    2452:	9e1a                	c.add	x28,x6
                  c.addi16sp sp, -16
    2454:	717d                	c.addi16sp	x2,-16
                  c.slli     t5, 22
    2456:	0f5a                	c.slli	x30,0x16
                  slti       tp, a1, -167
    2458:	f595a213          	slti	x4,x11,-167
                  c.sub      s0, s1
    245c:	8c05                	c.sub	x8,x9
                  srli       zero, a0, 13
    245e:	00d55013          	srli	x0,x10,0xd
                  slli       a2, a4, 25
    2462:	01971613          	slli	x12,x14,0x19
                  c.lui      a6, 24
    2466:	6861                	c.lui	x16,0x18
                  xor        s11, zero, s7
    2468:	01704db3          	xor	x27,x0,x23
                  c.srai     s1, 28
    246c:	84f1                	c.srai	x9,0x1c
                  c.add      t3, t1
    246e:	9e1a                	c.add	x28,x6
                  slti       tp, a1, -167
    2470:	f595a213          	slti	x4,x11,-167
                  sll        s8, s0, s6
    2474:	01641c33          	sll	x24,x8,x22
                  sltiu      s3, tp, 300
    2478:	12c23993          	sltiu	x19,x4,300
                  c.andi     s1, 31
    247c:	88fd                	c.andi	x9,31
                  mulh       s1, t4, s11
    247e:	03be94b3          	mulh	x9,x29,x27
                  sltiu      s3, tp, 300
    2482:	12c23993          	sltiu	x19,x4,300
                  srai       a4, a3, 0
    2486:	4006d713          	srai	x14,x13,0x0
                  mul        tp, s2, t5
    248a:	03e90233          	mul	x4,x18,x30
                  sra        s9, s4, t5
    248e:	41ea5cb3          	sra	x25,x20,x30
                  slti       tp, a1, -167
    2492:	f595a213          	slti	x4,x11,-167
                  c.xor      a4, a5
    2496:	8f3d                	c.xor	x14,x15
                  auipc      s1, 11691
    2498:	02dab497          	auipc	x9,0x2dab
                  sltiu      s3, tp, 300
    249c:	12c23993          	sltiu	x19,x4,300
                  c.and      a4, s1
    24a0:	8f65                	c.and	x14,x9
                  c.addi16sp sp, -16
    24a2:	717d                	c.addi16sp	x2,-16
                  sltu       s3, a6, a4
    24a4:	00e839b3          	sltu	x19,x16,x14
                  c.addi16sp sp, -16
    24a8:	717d                	c.addi16sp	x2,-16
                  c.nop
    24aa:	0001                	c.addi	x0,0
                  sub        s0, t3, gp
    24ac:	403e0433          	sub	x8,x28,x3
                  sltiu      s3, tp, 300
    24b0:	12c23993          	sltiu	x19,x4,300
                  c.addi4spn a2, sp, 528
    24b4:	0c10                	c.addi4spn	x12,x2,528
                  sltiu      s3, tp, 300
    24b6:	12c23993          	sltiu	x19,x4,300
                  slt        a0, s5, s11
    24ba:	01baa533          	slt	x10,x21,x27
                  c.xor      a4, a5
    24be:	8f3d                	c.xor	x14,x15
                  slli       a2, a4, 25
    24c0:	01971613          	slli	x12,x14,0x19
                  c.srli     a4, 9
    24c4:	8325                	c.srli	x14,0x9
                  auipc      s1, 11691
    24c6:	02dab497          	auipc	x9,0x2dab
                  c.andi     s1, 31
    24ca:	88fd                	c.andi	x9,31
                  c.andi     s1, 31
    24cc:	88fd                	c.andi	x9,31
                  sub        s0, t3, gp
    24ce:	403e0433          	sub	x8,x28,x3
                  c.srli     a4, 9
    24d2:	8325                	c.srli	x14,0x9
                  xori       t3, t1, -721
    24d4:	d2f34e13          	xori	x28,x6,-721
                  c.add      t3, t1
    24d8:	9e1a                	c.add	x28,x6
                  xor        s11, zero, s7
    24da:	01704db3          	xor	x27,x0,x23
                  c.or       a0, a2
    24de:	8d51                	c.or	x10,x12
                  c.sub      s0, s1
    24e0:	8c05                	c.sub	x8,x9
                  slti       tp, a1, -167
    24e2:	f595a213          	slti	x4,x11,-167
                  srli       zero, a0, 13
    24e6:	00d55013          	srli	x0,x10,0xd
                  c.sub      s0, s1
    24ea:	8c05                	c.sub	x8,x9
                  slli       a2, a4, 25
    24ec:	01971613          	slli	x12,x14,0x19
                  c.andi     s1, 31
    24f0:	88fd                	c.andi	x9,31
                  c.nop
    24f2:	0001                	c.addi	x0,0
                  srli       zero, a0, 13
    24f4:	00d55013          	srli	x0,x10,0xd
                  mulhu      s4, a6, t3
    24f8:	03c83a33          	mulhu	x20,x16,x28
                  mulhsu     tp, t5, a6
    24fc:	030f2233          	mulhsu	x4,x30,x16
                  sltiu      s3, tp, 300
    2500:	12c23993          	sltiu	x19,x4,300
                  slli       a2, a4, 25
    2504:	01971613          	slli	x12,x14,0x19
                  c.add      t3, t1
    2508:	9e1a                	c.add	x28,x6
                  c.addi     s9, -1
    250a:	1cfd                	c.addi	x25,-1
                  mul        tp, s2, t5
    250c:	03e90233          	mul	x4,x18,x30
                  c.addi4spn a2, sp, 528
    2510:	0c10                	c.addi4spn	x12,x2,528
                  c.slli     t5, 22
    2512:	0f5a                	c.slli	x30,0x16
                  sra        s9, s4, t5
    2514:	41ea5cb3          	sra	x25,x20,x30
                  c.mv       a2, a0
    2518:	862a                	c.mv	x12,x10
                  or         a4, a4, zero
    251a:	00076733          	or	x14,x14,x0
                  auipc      s1, 11691
    251e:	02dab497          	auipc	x9,0x2dab
                  c.andi     s1, 31
    2522:	88fd                	c.andi	x9,31
                  c.srai     s1, 28
    2524:	84f1                	c.srai	x9,0x1c
                  divu       tp, s5, t4
    2526:	03dad233          	divu	x4,x21,x29
                  sltiu      s3, tp, 300
    252a:	12c23993          	sltiu	x19,x4,300
                  srai       a4, a3, 0
    252e:	4006d713          	srai	x14,x13,0x0
                  mulh       s1, t4, s11
    2532:	03be94b3          	mulh	x9,x29,x27
                  xori       t3, t1, -721
    2536:	d2f34e13          	xori	x28,x6,-721
                  ori        tp, a0, -848
    253a:	cb056213          	ori	x4,x10,-848
                  c.or       a0, a2
    253e:	8d51                	c.or	x10,x12
                  auipc      s1, 11691
    2540:	02dab497          	auipc	x9,0x2dab
                  srai       a4, a3, 0
    2544:	4006d713          	srai	x14,x13,0x0
                  srai       a4, a3, 0
    2548:	4006d713          	srai	x14,x13,0x0
                  c.xor      a4, a5
    254c:	8f3d                	c.xor	x14,x15
                  sra        s9, s4, t5
    254e:	41ea5cb3          	sra	x25,x20,x30
                  auipc      s1, 11691
    2552:	02dab497          	auipc	x9,0x2dab
                  lui        s3, 985951
    2556:	f0b5f9b7          	lui	x19,0xf0b5f
                  c.srli     a4, 9
    255a:	8325                	c.srli	x14,0x9
                  slti       tp, a1, -167
    255c:	f595a213          	slti	x4,x11,-167
                  sltu       s3, a6, a4
    2560:	00e839b3          	sltu	x19,x16,x14
                  c.addi4spn a2, sp, 528
    2564:	0c10                	c.addi4spn	x12,x2,528
                  sltiu      s3, tp, 300
    2566:	12c23993          	sltiu	x19,x4,300
                  divu       tp, s5, t4
    256a:	03dad233          	divu	x4,x21,x29
                  sub        s0, t3, gp
    256e:	403e0433          	sub	x8,x28,x3
                  c.mv       a2, a0
    2572:	862a                	c.mv	x12,x10
                  addi       gp, s8, -298
    2574:	ed6c0193          	addi	x3,x24,-298
                  c.addi4spn a2, sp, 528
    2578:	0c10                	c.addi4spn	x12,x2,528
                  ori        tp, a0, -848
    257a:	cb056213          	ori	x4,x10,-848
                  mulhsu     tp, t5, a6
    257e:	030f2233          	mulhsu	x4,x30,x16
                  remu       s6, s3, t1
    2582:	0269fb33          	remu	x22,x19,x6
                  sltu       s3, a6, a4
    2586:	00e839b3          	sltu	x19,x16,x14
                  xor        s11, zero, s7
    258a:	01704db3          	xor	x27,x0,x23
                  c.add      t3, t1
    258e:	9e1a                	c.add	x28,x6
                  c.addi     s9, -1
    2590:	1cfd                	c.addi	x25,-1
                  c.addi4spn a2, sp, 528
    2592:	0c10                	c.addi4spn	x12,x2,528
                  c.li       s11, -1
    2594:	5dfd                	c.li	x27,-1
                  lui        s3, 985951
    2596:	f0b5f9b7          	lui	x19,0xf0b5f
                  sll        s8, s0, s6
    259a:	01641c33          	sll	x24,x8,x22
                  c.li       s11, -1
    259e:	5dfd                	c.li	x27,-1
                  nop
    25a0:	0001                	c.addi	x0,0
                  c.li       s11, -1
    25a2:	5dfd                	c.li	x27,-1
                  slt        a0, s5, s11
    25a4:	01baa533          	slt	x10,x21,x27
                  addi       gp, s8, -298
    25a8:	ed6c0193          	addi	x3,x24,-298
                  slli       a2, a4, 25
    25ac:	01971613          	slli	x12,x14,0x19
                  xori       t3, t1, -721
    25b0:	d2f34e13          	xori	x28,x6,-721
                  remu       s6, s3, t1
    25b4:	0269fb33          	remu	x22,x19,x6
                  divu       tp, s5, t4
    25b8:	03dad233          	divu	x4,x21,x29
                  c.srli     a4, 9
    25bc:	8325                	c.srli	x14,0x9
                  c.mv       a2, a0
    25be:	862a                	c.mv	x12,x10
                  div        s7, gp, a4
    25c0:	02e1cbb3          	div	x23,x3,x14
                  srl        t1, tp, zero
    25c4:	00025333          	srl	x6,x4,x0
                  srli       zero, a0, 13
    25c8:	00d55013          	srli	x0,x10,0xd
                  c.xor      a4, a5
    25cc:	8f3d                	c.xor	x14,x15
                  c.mv       a2, a0
    25ce:	862a                	c.mv	x12,x10
                  ori        tp, a0, -848
    25d0:	cb056213          	ori	x4,x10,-848
                  c.xor      a4, a5
    25d4:	8f3d                	c.xor	x14,x15
                  c.xor      a4, a5
    25d6:	8f3d                	c.xor	x14,x15
                  c.xor      a4, a5
    25d8:	8f3d                	c.xor	x14,x15
                  c.li       s11, -1
    25da:	5dfd                	c.li	x27,-1
                  mul        tp, s2, t5
    25dc:	03e90233          	mul	x4,x18,x30
                  sll        s8, s0, s6
    25e0:	01641c33          	sll	x24,x8,x22
                  c.srai     s1, 28
    25e4:	84f1                	c.srai	x9,0x1c
                  c.and      a4, s1
    25e6:	8f65                	c.and	x14,x9
                  and        s6, t2, a4
    25e8:	00e3fb33          	and	x22,x7,x14
                  slli       a2, a4, 25
    25ec:	01971613          	slli	x12,x14,0x19
                  c.lui      a6, 24
    25f0:	6861                	c.lui	x16,0x18
                  mulhsu     tp, t5, a6
    25f2:	030f2233          	mulhsu	x4,x30,x16
                  ori        tp, a0, -848
    25f6:	cb056213          	ori	x4,x10,-848
                  xor        s11, zero, s7
    25fa:	01704db3          	xor	x27,x0,x23
                  c.nop
    25fe:	0001                	c.addi	x0,0
                  srli       zero, a0, 13
    2600:	00d55013          	srli	x0,x10,0xd
                  sltiu      s3, tp, 300
    2604:	12c23993          	sltiu	x19,x4,300
                  divu       tp, s5, t4
    2608:	03dad233          	divu	x4,x21,x29
                  mulh       s1, t4, s11
    260c:	03be94b3          	mulh	x9,x29,x27
                  c.and      a4, s1
    2610:	8f65                	c.and	x14,x9
                  srli       zero, a0, 13
    2612:	00d55013          	srli	x0,x10,0xd
                  c.xor      a4, a5
    2616:	8f3d                	c.xor	x14,x15
                  c.slli     t5, 22
    2618:	0f5a                	c.slli	x30,0x16
                  c.mv       a2, a0
    261a:	862a                	c.mv	x12,x10
                  c.or       a0, a2
    261c:	8d51                	c.or	x10,x12
                  c.srai     s1, 28
    261e:	84f1                	c.srai	x9,0x1c
                  c.or       a0, a2
    2620:	8d51                	c.or	x10,x12
                  nop
    2622:	0001                	c.addi	x0,0
                  or         a4, a4, zero
    2624:	00076733          	or	x14,x14,x0
                  ori        tp, a0, -848
    2628:	cb056213          	ori	x4,x10,-848
                  xor        s11, zero, s7
    262c:	01704db3          	xor	x27,x0,x23
                  slti       tp, a1, -167
    2630:	f595a213          	slti	x4,x11,-167
                  sltiu      s3, tp, 300
    2634:	12c23993          	sltiu	x19,x4,300
                  or         a4, a4, zero
    2638:	00076733          	or	x14,x14,x0
                  slt        a0, s5, s11
    263c:	01baa533          	slt	x10,x21,x27
                  c.add      t3, t1
    2640:	9e1a                	c.add	x28,x6
                  srai       a4, a3, 0
    2642:	4006d713          	srai	x14,x13,0x0
                  add        s4, a7, s6
    2646:	01688a33          	add	x20,x17,x22
                  divu       tp, s5, t4
    264a:	03dad233          	divu	x4,x21,x29
                  ori        tp, a0, -848
    264e:	cb056213          	ori	x4,x10,-848
                  mul        tp, s2, t5
    2652:	03e90233          	mul	x4,x18,x30
                  sub        s0, t3, gp
    2656:	403e0433          	sub	x8,x28,x3
                  c.addi4spn a2, sp, 528
    265a:	0c10                	c.addi4spn	x12,x2,528
                  ori        tp, a0, -848
    265c:	cb056213          	ori	x4,x10,-848
                  addi       gp, s8, -298
    2660:	ed6c0193          	addi	x3,x24,-298
                  mulhsu     tp, t5, a6
    2664:	030f2233          	mulhsu	x4,x30,x16
                  c.slli     t5, 22
    2668:	0f5a                	c.slli	x30,0x16
                  c.mv       a2, a0
    266a:	862a                	c.mv	x12,x10
                  sltu       s3, a6, a4
    266c:	00e839b3          	sltu	x19,x16,x14
                  sltiu      s3, tp, 300
    2670:	12c23993          	sltiu	x19,x4,300
                  and        s6, t2, a4
    2674:	00e3fb33          	and	x22,x7,x14
                  and        s6, t2, a4
    2678:	00e3fb33          	and	x22,x7,x14
                  c.slli     t5, 22
    267c:	0f5a                	c.slli	x30,0x16
                  ori        tp, a0, -848
    267e:	cb056213          	ori	x4,x10,-848
                  srli       zero, a0, 13
    2682:	00d55013          	srli	x0,x10,0xd
                  sltiu      s3, tp, 300
    2686:	12c23993          	sltiu	x19,x4,300
                  rem        a2, s2, s9
    268a:	03996633          	rem	x12,x18,x25
                  srai       a4, a3, 0
    268e:	4006d713          	srai	x14,x13,0x0
                  or         a4, a4, zero
    2692:	00076733          	or	x14,x14,x0
                  c.srai     s1, 28
    2696:	84f1                	c.srai	x9,0x1c
                  andi       t0, a3, 147
    2698:	0936f293          	andi	x5,x13,147
                  srl        t1, tp, zero
    269c:	00025333          	srl	x6,x4,x0
                  c.srai     s1, 28
    26a0:	84f1                	c.srai	x9,0x1c
                  slli       a2, a4, 25
    26a2:	01971613          	slli	x12,x14,0x19
                  c.mv       a2, a0
    26a6:	862a                	c.mv	x12,x10
                  add        s4, a7, s6
    26a8:	01688a33          	add	x20,x17,x22
                  c.mv       a2, a0
    26ac:	862a                	c.mv	x12,x10
                  c.li       s11, -1
    26ae:	5dfd                	c.li	x27,-1
                  srli       zero, a0, 13
    26b0:	00d55013          	srli	x0,x10,0xd
                  ori        tp, a0, -848
    26b4:	cb056213          	ori	x4,x10,-848
                  sub        s0, t3, gp
    26b8:	403e0433          	sub	x8,x28,x3
                  and        s6, t2, a4
    26bc:	00e3fb33          	and	x22,x7,x14
                  divu       tp, s5, t4
    26c0:	03dad233          	divu	x4,x21,x29
                  slt        a0, s5, s11
    26c4:	01baa533          	slt	x10,x21,x27
                  c.addi     s9, -1
    26c8:	1cfd                	c.addi	x25,-1
                  c.addi     s9, -1
    26ca:	1cfd                	c.addi	x25,-1
                  andi       t0, a3, 147
    26cc:	0936f293          	andi	x5,x13,147
                  slti       tp, a1, -167
    26d0:	f595a213          	slti	x4,x11,-167
                  slt        a0, s5, s11
    26d4:	01baa533          	slt	x10,x21,x27
                  xor        s11, zero, s7
    26d8:	01704db3          	xor	x27,x0,x23
                  sll        s8, s0, s6
    26dc:	01641c33          	sll	x24,x8,x22
                  c.nop
    26e0:	0001                	c.addi	x0,0
                  mul        tp, s2, t5
    26e2:	03e90233          	mul	x4,x18,x30
                  mulhu      s4, a6, t3
    26e6:	03c83a33          	mulhu	x20,x16,x28
                  c.li       s11, -1
    26ea:	5dfd                	c.li	x27,-1
                  c.addi4spn a2, sp, 528
    26ec:	0c10                	c.addi4spn	x12,x2,528
                  c.mv       a2, a0
    26ee:	862a                	c.mv	x12,x10
                  c.andi     s1, 31
    26f0:	88fd                	c.andi	x9,31
                  divu       tp, s5, t4
    26f2:	03dad233          	divu	x4,x21,x29
                  srli       zero, a0, 13
    26f6:	00d55013          	srli	x0,x10,0xd
                  ori        tp, a0, -848
    26fa:	cb056213          	ori	x4,x10,-848
                  xori       t3, t1, -721
    26fe:	d2f34e13          	xori	x28,x6,-721
