
/home/kutaybulun/corev/core-v-verif/cv32e40p/tests/programs/custom/hello-world/hello-world.elf:     file format elf32-littleriscv


Disassembly of section .vectors:

00000000 <__vector_start>:
.section .vectors, "ax"
.option norvc
.global vector_table

vector_table:
	j u_sw_irq_handler
   0:	2380006f          	jal	x0,238 <u_sw_irq_handler>
	j __no_irq_handler
   4:	2000006f          	jal	x0,204 <__no_irq_handler>
	j __no_irq_handler
   8:	1fc0006f          	jal	x0,204 <__no_irq_handler>
	j m_software_irq_handler
   c:	2060006f          	jal	x0,212 <m_software_irq_handler>
	j __no_irq_handler
  10:	1f40006f          	jal	x0,204 <__no_irq_handler>
	j __no_irq_handler
  14:	1f00006f          	jal	x0,204 <__no_irq_handler>
	j __no_irq_handler
  18:	1ec0006f          	jal	x0,204 <__no_irq_handler>
	j m_timer_irq_handler
  1c:	1f80006f          	jal	x0,214 <m_timer_irq_handler>
	j __no_irq_handler
  20:	1e40006f          	jal	x0,204 <__no_irq_handler>
	j __no_irq_handler
  24:	1e00006f          	jal	x0,204 <__no_irq_handler>
	j __no_irq_handler
  28:	1dc0006f          	jal	x0,204 <__no_irq_handler>
	j m_external_irq_handler
  2c:	1ea0006f          	jal	x0,216 <m_external_irq_handler>
	j __no_irq_handler
  30:	1d40006f          	jal	x0,204 <__no_irq_handler>
	j __no_irq_handler
  34:	1d00006f          	jal	x0,204 <__no_irq_handler>
	j __no_irq_handler
  38:	1cc0006f          	jal	x0,204 <__no_irq_handler>
	j __no_irq_handler
  3c:	1c80006f          	jal	x0,204 <__no_irq_handler>
	j m_fast0_irq_handler
  40:	1d80006f          	jal	x0,218 <m_fast0_irq_handler>
	j m_fast1_irq_handler
  44:	1d60006f          	jal	x0,21a <m_fast1_irq_handler>
	j m_fast2_irq_handler
  48:	1d40006f          	jal	x0,21c <m_fast2_irq_handler>
	j m_fast3_irq_handler
  4c:	1d20006f          	jal	x0,21e <m_fast3_irq_handler>
	j m_fast4_irq_handler
  50:	1d00006f          	jal	x0,220 <m_fast4_irq_handler>
	j m_fast5_irq_handler
  54:	1ce0006f          	jal	x0,222 <m_fast5_irq_handler>
	j m_fast6_irq_handler
  58:	1cc0006f          	jal	x0,224 <m_fast6_irq_handler>
	j m_fast7_irq_handler
  5c:	1ca0006f          	jal	x0,226 <m_fast7_irq_handler>
	j m_fast8_irq_handler
  60:	1c80006f          	jal	x0,228 <m_fast8_irq_handler>
	j m_fast9_irq_handler
  64:	1c60006f          	jal	x0,22a <m_fast9_irq_handler>
	j m_fast10_irq_handler
  68:	1c40006f          	jal	x0,22c <m_fast10_irq_handler>
	j m_fast11_irq_handler
  6c:	1c20006f          	jal	x0,22e <m_fast11_irq_handler>
	j m_fast12_irq_handler
  70:	1c00006f          	jal	x0,230 <m_fast12_irq_handler>
	j m_fast13_irq_handler
  74:	1be0006f          	jal	x0,232 <m_fast13_irq_handler>
	j m_fast14_irq_handler
  78:	1bc0006f          	jal	x0,234 <m_fast14_irq_handler>
	j m_fast15_irq_handler
  7c:	1ba0006f          	jal	x0,236 <m_fast15_irq_handler>

Disassembly of section .init:

00000080 <_start>:

_start:
/* initialize global pointer */
.option push
.option norelax
1:	auipc gp, %pcrel_hi(__global_pointer$)
  80:	00013197          	auipc	x3,0x13
	addi  gp, gp, %pcrel_lo(1b)
  84:	0c018193          	addi	x3,x3,192 # 13140 <__global_pointer$>
.option pop

/* initialize stack pointer */
	la sp, __stack_end
  88:	00400117          	auipc	x2,0x400
  8c:	f7810113          	addi	x2,x2,-136 # 400000 <__heap_end>

/* set vector table address */
	la a0, __vector_start
  90:	00000517          	auipc	x10,0x0
  94:	f7050513          	addi	x10,x10,-144 # 0 <__vector_start>
	ori a0, a0, 1 /*vector mode = vectored */
  98:	00156513          	ori	x10,x10,1
	csrw mtvec, a0
  9c:	30551073          	csrrw	x0,mtvec,x10

/* clear the bss segment */
	la a0, _edata
  a0:	f1818513          	addi	x10,x3,-232 # 13058 <__stdio_exit_handler>
	la a2, _end
  a4:	22418613          	addi	x12,x3,548 # 13364 <__bss_end>
	sub a2, a2, a0
  a8:	8e09                	c.sub	x12,x10
	li a1, 0
  aa:	4581                	c.li	x11,0
	call memset
  ac:	705000ef          	jal	x1,fb0 <memset>

/* new-style constructors and destructors */
	la a0, __libc_fini_array
  b0:	00001517          	auipc	x10,0x1
  b4:	ea450513          	addi	x10,x10,-348 # f54 <__libc_fini_array>
	call atexit
  b8:	2961                	c.jal	550 <atexit>
	call __libc_init_array
  ba:	5ff000ef          	jal	x1,eb8 <__libc_init_array>
//	lw a0, 0(sp)                    /* a0 = argc */
//	addi a1, sp, __SIZEOF_POINTER__ /* a1 = argv */
//	li a2, 0                        /* a2 = envp = NULL */
// Initialize these variables to 0. Cannot use argc or argv
// since the stack is not initialized
	li a0, 0
  be:	4501                	c.li	x10,0
	li a1, 0
  c0:	4581                	c.li	x11,0
	li a2, 0
  c2:	4601                	c.li	x12,0

	call main
  c4:	2815                	c.jal	f8 <main>
	tail exit
  c6:	a019                	c.j	cc <exit>

000000c8 <_fini>:
.type   _fini, @function
_init:
_fini:
 /* These don't have to do anything since we use init_array/fini_array. Prevent
    missing symbol error */
	ret
  c8:	8082                	c.jr	x1

Disassembly of section .text:

000000cc <exit>:
      cc:	ff010113          	addi	x2,x2,-16
      d0:	00000593          	addi	x11,x0,0
      d4:	00812423          	sw	x8,8(x2)
      d8:	00112623          	sw	x1,12(x2)
      dc:	00050413          	addi	x8,x10,0
      e0:	0d0010ef          	jal	x1,11b0 <__call_exitprocs>
      e4:	f181a783          	lw	x15,-232(x3) # 13058 <__stdio_exit_handler>
      e8:	00078463          	beq	x15,x0,f0 <exit+0x24>
      ec:	000780e7          	jalr	x1,0(x15)
      f0:	00040513          	addi	x10,x8,0
      f4:	25c000ef          	jal	x1,350 <_exit>

000000f8 <main>:
#define EXP_MISA 0x40801104
#endif


int main(int argc, char *argv[])
{
      f8:	1141                	c.addi	x2,-16
      fa:	c606                	c.swsp	x1,12(x2)
      fc:	c422                	c.swsp	x8,8(x2)
             int reserved, tentative, nonstd, user, super;

    mxl = 0; reserved = 0; tentative = 0; nonstd = 0; user = 0; super = 0;

    /* inline assembly: read mvendorid and misa */
    __asm__ volatile("csrr %0, 0xF11" : "=r"(mvendorid_rval));
      fe:	f11025f3          	csrrs	x11,mvendorid,x0
    __asm__ volatile("csrr %0, 0x301" : "=r"(misa_rval));
     102:	30102473          	csrrs	x8,misa,x0
    __asm__ volatile("csrr %0, 0xF12" : "=r"(marchid_rval));
     106:	f1202773          	csrrs	x14,marchid,x0
    __asm__ volatile("csrr %0, 0xF13" : "=r"(mimpid_rval));
     10a:	f13027f3          	csrrs	x15,mimpid,x0

    /* Check MVENDORID CSR: 0x602 is the value assigned by JEDEC to the OpenHW Group */
    if (mvendorid_rval != 0x00000602) {
     10e:	60200693          	addi	x13,x0,1538
     112:	00d58863          	beq	x11,x13,122 <main+0x2a>
      printf("\tERROR: CSR MVENDORID reads as 0x%x - should be 0x00000602 for the OpenHW Group.\n\n", mvendorid_rval);
     116:	6549                	c.lui	x10,0x12
     118:	c4050513          	addi	x10,x10,-960 # 11c40 <__clzsi2+0x50>
      return EXIT_FAILURE;
    }

    /* Check MARCHID CSR: 0x4 is the value assigned by the RISC-V Foundation to CV32E40P */
    if (marchid_rval != 0x00000004) {
      printf("\tERROR: CSR MARCHID reads as 0x%x - should be 0x00000004 for CV32E40P.\n\n", marchid_rval);
     11c:	095000ef          	jal	x1,9b0 <printf>
      return EXIT_FAILURE;
     120:	a829                	c.j	13a <main+0x42>
    if (misa_rval != EXP_MISA) {
     122:	40001637          	lui	x12,0x40001
     126:	10460613          	addi	x12,x12,260 # 40001104 <__heap_end+0x3fc01104>
     12a:	00c40d63          	beq	x8,x12,144 <main+0x4c>
      printf("\tERROR: CSR MISA reads as 0x%x - should be 0x%x for this release of CV32E40P!\n\n", misa_rval, EXP_MISA);
     12e:	6549                	c.lui	x10,0x12
     130:	85a2                	c.mv	x11,x8
     132:	c9450513          	addi	x10,x10,-876 # 11c94 <__clzsi2+0xa4>
     136:	07b000ef          	jal	x1,9b0 <printf>
      return EXIT_FAILURE;
     13a:	4505                	c.li	x10,1
    }
    else {
      printf("\n");
      return EXIT_SUCCESS;
    }
}
     13c:	40b2                	c.lwsp	x1,12(x2)
     13e:	4422                	c.lwsp	x8,8(x2)
     140:	0141                	c.addi	x2,16
     142:	8082                	c.jr	x1
    if (marchid_rval != 0x00000004) {
     144:	4691                	c.li	x13,4
     146:	00d70763          	beq	x14,x13,154 <main+0x5c>
      printf("\tERROR: CSR MARCHID reads as 0x%x - should be 0x00000004 for CV32E40P.\n\n", marchid_rval);
     14a:	6549                	c.lui	x10,0x12
     14c:	85ba                	c.mv	x11,x14
     14e:	ce450513          	addi	x10,x10,-796 # 11ce4 <__clzsi2+0xf4>
     152:	b7e9                	c.j	11c <main+0x24>
    if (mimpid_rval != 0x00000000) {
     154:	c791                	c.beqz	x15,160 <main+0x68>
      printf("\tERROR: CSR MIMPID reads as 0x%x - should be 0x00000000 for this release of CV32E40P.\n\n", mimpid_rval);
     156:	6549                	c.lui	x10,0x12
     158:	85be                	c.mv	x11,x15
     15a:	d3050513          	addi	x10,x10,-720 # 11d30 <__clzsi2+0x140>
     15e:	bf7d                	c.j	11c <main+0x24>
    printf("\nHELLO WORLD!!!\n");
     160:	6549                	c.lui	x10,0x12
     162:	d8850513          	addi	x10,x10,-632 # 11d88 <__clzsi2+0x198>
     166:	183000ef          	jal	x1,ae8 <puts>
    printf("This is the OpenHW Group CV32E40P CORE-V processor core.\n");
     16a:	6549                	c.lui	x10,0x12
     16c:	d9850513          	addi	x10,x10,-616 # 11d98 <__clzsi2+0x1a8>
     170:	179000ef          	jal	x1,ae8 <puts>
    printf("CV32E40P is a RISC-V ISA compliant core with the following attributes:\n");
     174:	6549                	c.lui	x10,0x12
     176:	dd450513          	addi	x10,x10,-556 # 11dd4 <__clzsi2+0x1e4>
     17a:	16f000ef          	jal	x1,ae8 <puts>
    printf("\tmvendorid = 0x%x\n", mvendorid_rval);
     17e:	6549                	c.lui	x10,0x12
     180:	60200593          	addi	x11,x0,1538
     184:	e1c50513          	addi	x10,x10,-484 # 11e1c <__clzsi2+0x22c>
     188:	029000ef          	jal	x1,9b0 <printf>
    printf("\tmarchid   = 0x%x\n", marchid_rval);
     18c:	6549                	c.lui	x10,0x12
     18e:	4591                	c.li	x11,4
     190:	e3050513          	addi	x10,x10,-464 # 11e30 <__clzsi2+0x240>
     194:	01d000ef          	jal	x1,9b0 <printf>
    printf("\tmimpid    = 0x%x\n", mimpid_rval);
     198:	6549                	c.lui	x10,0x12
     19a:	4581                	c.li	x11,0
     19c:	e4450513          	addi	x10,x10,-444 # 11e44 <__clzsi2+0x254>
     1a0:	011000ef          	jal	x1,9b0 <printf>
    printf("\tmisa      = 0x%x\n", misa_rval);
     1a4:	6549                	c.lui	x10,0x12
     1a6:	85a2                	c.mv	x11,x8
     1a8:	e5850513          	addi	x10,x10,-424 # 11e58 <__clzsi2+0x268>
     1ac:	005000ef          	jal	x1,9b0 <printf>
      case 1:  printf("\tXLEN is 32-bits\n");
     1b0:	6549                	c.lui	x10,0x12
     1b2:	e6c50513          	addi	x10,x10,-404 # 11e6c <__clzsi2+0x27c>
     1b6:	133000ef          	jal	x1,ae8 <puts>
    printf("\tSupported Instructions Extensions: ");
     1ba:	6549                	c.lui	x10,0x12
     1bc:	e8050513          	addi	x10,x10,-384 # 11e80 <__clzsi2+0x290>
     1c0:	7f0000ef          	jal	x1,9b0 <printf>
    if ((misa_rval >> 12) & 0x00000001) printf("M");
     1c4:	04d00513          	addi	x10,x0,77
     1c8:	03d000ef          	jal	x1,a04 <putchar>
    if ((misa_rval >>  8) & 0x00000001) printf("I");
     1cc:	04900513          	addi	x10,x0,73
     1d0:	035000ef          	jal	x1,a04 <putchar>
    if ((misa_rval >>  2) & 0x00000001) printf("C");
     1d4:	04300513          	addi	x10,x0,67
     1d8:	02d000ef          	jal	x1,a04 <putchar>
    printf("\n");
     1dc:	4529                	c.li	x10,10
     1de:	027000ef          	jal	x1,a04 <putchar>
      printf("\n");
     1e2:	4529                	c.li	x10,10
     1e4:	021000ef          	jal	x1,a04 <putchar>
      return EXIT_SUCCESS;
     1e8:	4501                	c.li	x10,0
     1ea:	bf89                	c.j	13c <main+0x44>

000001ec <register_fini>:
     1ec:	00000793          	addi	x15,x0,0
     1f0:	00078863          	beq	x15,x0,200 <register_fini+0x14>
     1f4:	00001537          	lui	x10,0x1
     1f8:	f5450513          	addi	x10,x10,-172 # f54 <__libc_fini_array>
     1fc:	3540006f          	jal	x0,550 <atexit>
     200:	00008067          	jalr	x0,0(x1)

00000204 <__no_irq_handler>:
.weak m_fast15_irq_handler


/* exception handling */
__no_irq_handler:
	la a0, no_exception_handler_msg
     204:	00012517          	auipc	x10,0x12
     208:	ea450513          	addi	x10,x10,-348 # 120a8 <no_exception_handler_msg>
	jal ra, puts
     20c:	0dd000ef          	jal	x1,ae8 <puts>
	j __no_irq_handler
     210:	bfd5                	c.j	204 <__no_irq_handler>

00000212 <m_software_irq_handler>:

m_software_irq_handler:
	j __no_irq_handler
     212:	bfcd                	c.j	204 <__no_irq_handler>

00000214 <m_timer_irq_handler>:

m_timer_irq_handler:
	j __no_irq_handler
     214:	bfc5                	c.j	204 <__no_irq_handler>

00000216 <m_external_irq_handler>:

m_external_irq_handler:
	j __no_irq_handler
     216:	b7fd                	c.j	204 <__no_irq_handler>

00000218 <m_fast0_irq_handler>:

m_fast0_irq_handler:
	j __no_irq_handler
     218:	b7f5                	c.j	204 <__no_irq_handler>

0000021a <m_fast1_irq_handler>:

m_fast1_irq_handler:
	j __no_irq_handler
     21a:	b7ed                	c.j	204 <__no_irq_handler>

0000021c <m_fast2_irq_handler>:

m_fast2_irq_handler:
	j __no_irq_handler
     21c:	b7e5                	c.j	204 <__no_irq_handler>

0000021e <m_fast3_irq_handler>:

m_fast3_irq_handler:
	j __no_irq_handler
     21e:	b7dd                	c.j	204 <__no_irq_handler>

00000220 <m_fast4_irq_handler>:

m_fast4_irq_handler:
	j __no_irq_handler
     220:	b7d5                	c.j	204 <__no_irq_handler>

00000222 <m_fast5_irq_handler>:

m_fast5_irq_handler:
	j __no_irq_handler
     222:	b7cd                	c.j	204 <__no_irq_handler>

00000224 <m_fast6_irq_handler>:

m_fast6_irq_handler:
	j __no_irq_handler
     224:	b7c5                	c.j	204 <__no_irq_handler>

00000226 <m_fast7_irq_handler>:

m_fast7_irq_handler:
	j __no_irq_handler
     226:	bff9                	c.j	204 <__no_irq_handler>

00000228 <m_fast8_irq_handler>:

m_fast8_irq_handler:
	j __no_irq_handler
     228:	bff1                	c.j	204 <__no_irq_handler>

0000022a <m_fast9_irq_handler>:

m_fast9_irq_handler:
	j __no_irq_handler
     22a:	bfe9                	c.j	204 <__no_irq_handler>

0000022c <m_fast10_irq_handler>:

m_fast10_irq_handler:
	j __no_irq_handler
     22c:	bfe1                	c.j	204 <__no_irq_handler>

0000022e <m_fast11_irq_handler>:

m_fast11_irq_handler:
	j __no_irq_handler
     22e:	bfd9                	c.j	204 <__no_irq_handler>

00000230 <m_fast12_irq_handler>:

m_fast12_irq_handler:
	j __no_irq_handler
     230:	bfd1                	c.j	204 <__no_irq_handler>

00000232 <m_fast13_irq_handler>:

m_fast13_irq_handler:
	j __no_irq_handler
     232:	bfc9                	c.j	204 <__no_irq_handler>

00000234 <m_fast14_irq_handler>:

m_fast14_irq_handler:
	j __no_irq_handler
     234:	bfc1                	c.j	204 <__no_irq_handler>

00000236 <m_fast15_irq_handler>:

m_fast15_irq_handler:
	j __no_irq_handler
     236:	b7f9                	c.j	204 <__no_irq_handler>

00000238 <u_sw_irq_handler>:

u_sw_irq_handler:
	/* While we are still using puts in handlers, save all caller saved
	   regs.  Eventually, some of these saves could be deferred.  */
	addi sp,sp,-64
     238:	7139                	c.addi16sp	x2,-64
	sw ra, 0(sp)
     23a:	c006                	c.swsp	x1,0(x2)
	sw a0, 4(sp)
     23c:	c22a                	c.swsp	x10,4(x2)
	sw a1, 8(sp)
     23e:	c42e                	c.swsp	x11,8(x2)
	sw a2, 12(sp)
     240:	c632                	c.swsp	x12,12(x2)
	sw a3, 16(sp)
     242:	c836                	c.swsp	x13,16(x2)
	sw a4, 20(sp)
     244:	ca3a                	c.swsp	x14,20(x2)
	sw a5, 24(sp)
     246:	cc3e                	c.swsp	x15,24(x2)
	sw a6, 28(sp)
     248:	ce42                	c.swsp	x16,28(x2)
	sw a7, 32(sp)
     24a:	d046                	c.swsp	x17,32(x2)
	sw t0, 36(sp)
     24c:	d216                	c.swsp	x5,36(x2)
	sw t1, 40(sp)
     24e:	d41a                	c.swsp	x6,40(x2)
	sw t2, 44(sp)
     250:	d61e                	c.swsp	x7,44(x2)
	sw t3, 48(sp)
     252:	d872                	c.swsp	x28,48(x2)
	sw t4, 52(sp)
     254:	da76                	c.swsp	x29,52(x2)
	sw t5, 56(sp)
     256:	dc7a                	c.swsp	x30,56(x2)
	sw t6, 60(sp)
     258:	de7e                	c.swsp	x31,60(x2)
	csrr t0, mcause
     25a:	342022f3          	csrrs	x5,mcause,x0
	li t1, EXCEPTION_ILLEGAL_INSN
     25e:	4309                	c.li	x6,2
	beq t0, t1, handle_illegal_insn
     260:	02628363          	beq	x5,x6,286 <handle_illegal_insn>
	li t1, EXCEPTION_ECALL_M
     264:	432d                	c.li	x6,11
	beq t0, t1, handle_ecall
     266:	00628663          	beq	x5,x6,272 <handle_ecall>
	li t1, EXCEPTION_BREAKPOINT
     26a:	430d                	c.li	x6,3
	beq t0, t1, handle_ebreak
     26c:	00628663          	beq	x5,x6,278 <handle_ebreak>
	j handle_unknown
     270:	a015                	c.j	294 <handle_unknown>

00000272 <handle_ecall>:

handle_ecall:
	jal ra, handle_syscall
     272:	204000ef          	jal	x1,476 <handle_syscall>
	j end_handler_incr_mepc
     276:	a035                	c.j	2a2 <end_handler_incr_mepc>

00000278 <handle_ebreak>:

handle_ebreak:
	/* TODO support debug handling requirements.  */
	la a0, ebreak_msg
     278:	00012517          	auipc	x10,0x12
     27c:	dcf50513          	addi	x10,x10,-561 # 12047 <ebreak_msg>
	jal ra, puts
     280:	069000ef          	jal	x1,ae8 <puts>
	j end_handler_incr_mepc
     284:	a839                	c.j	2a2 <end_handler_incr_mepc>

00000286 <handle_illegal_insn>:

handle_illegal_insn:
	la a0, illegal_insn_msg
     286:	00012517          	auipc	x10,0x12
     28a:	d5550513          	addi	x10,x10,-683 # 11fdb <illegal_insn_msg>
	jal ra, puts
     28e:	05b000ef          	jal	x1,ae8 <puts>
	j end_handler_incr_mepc
     292:	a801                	c.j	2a2 <end_handler_incr_mepc>

00000294 <handle_unknown>:

handle_unknown:
	la a0, unknown_msg
     294:	00012517          	auipc	x10,0x12
     298:	de350513          	addi	x10,x10,-541 # 12077 <unknown_msg>
	jal ra, puts
     29c:	04d000ef          	jal	x1,ae8 <puts>
	/* We don't know what interrupt/exception is being handled, so don't
	   increment mepc.  */
	j end_handler_ret
     2a0:	a831                	c.j	2bc <end_handler_ret>

000002a2 <end_handler_incr_mepc>:

end_handler_incr_mepc:
	csrr t0, mepc
     2a2:	341022f3          	csrrs	x5,mepc,x0
	lb t1, 0(t0)
     2a6:	00028303          	lb	x6,0(x5)
	li a0, 0x3
     2aa:	450d                	c.li	x10,3
	and t1, t1, a0
     2ac:	00a37333          	and	x6,x6,x10
	/* Increment mepc by 2 or 4 depending on whether the instruction at mepc
	   is compressed or not.  */
	bne t1, a0, end_handler_incr_mepc2
     2b0:	00a31363          	bne	x6,x10,2b6 <end_handler_incr_mepc2>
	addi t0, t0, 2
     2b4:	0289                	c.addi	x5,2

000002b6 <end_handler_incr_mepc2>:
end_handler_incr_mepc2:
	addi t0, t0, 2
     2b6:	0289                	c.addi	x5,2
	csrw mepc, t0
     2b8:	34129073          	csrrw	x0,mepc,x5

000002bc <end_handler_ret>:
end_handler_ret:
	lw ra, 0(sp)
     2bc:	4082                	c.lwsp	x1,0(x2)
	lw a0, 4(sp)
     2be:	4512                	c.lwsp	x10,4(x2)
	lw a1, 8(sp)
     2c0:	45a2                	c.lwsp	x11,8(x2)
	lw a2, 12(sp)
     2c2:	4632                	c.lwsp	x12,12(x2)
	lw a3, 16(sp)
     2c4:	46c2                	c.lwsp	x13,16(x2)
	lw a4, 20(sp)
     2c6:	4752                	c.lwsp	x14,20(x2)
	lw a5, 24(sp)
     2c8:	47e2                	c.lwsp	x15,24(x2)
	lw a6, 28(sp)
     2ca:	4872                	c.lwsp	x16,28(x2)
	lw a7, 32(sp)
     2cc:	5882                	c.lwsp	x17,32(x2)
	lw t0, 36(sp)
     2ce:	5292                	c.lwsp	x5,36(x2)
	lw t1, 40(sp)
     2d0:	5322                	c.lwsp	x6,40(x2)
	lw t2, 44(sp)
     2d2:	53b2                	c.lwsp	x7,44(x2)
	lw t3, 48(sp)
     2d4:	5e42                	c.lwsp	x28,48(x2)
	lw t4, 52(sp)
     2d6:	5ed2                	c.lwsp	x29,52(x2)
	lw t5, 56(sp)
     2d8:	5f62                	c.lwsp	x30,56(x2)
	lw t6, 60(sp)
     2da:	5ff2                	c.lwsp	x31,60(x2)
	addi sp,sp,64
     2dc:	6121                	c.addi16sp	x2,64
	mret
     2de:	30200073          	mret

000002e2 <__syscall_error>:
#endif
/* Upstream newlib now defines this in libgloss/riscv/internal_syscall.h.  */
long
__syscall_error(long a0)
{
  errno = -a0;
     2e2:	40a00533          	sub	x10,x0,x10
     2e6:	f0a1ae23          	sw	x10,-228(x3) # 1305c <errno>
  return -1;
}
     2ea:	557d                	c.li	x10,-1
     2ec:	8082                	c.jr	x1

000002ee <unimplemented_syscall>:

void unimplemented_syscall()
{
  const char *p = "BSP: Unimplemented system call called!\n";
     2ee:	67c9                	c.lui	x15,0x12
     2f0:	ea878793          	addi	x15,x15,-344 # 11ea8 <__clzsi2+0x2b8>
  while (*p)
    *(volatile int *)STDOUT_REG = *(p++);
     2f4:	100006b7          	lui	x13,0x10000
  while (*p)
     2f8:	0007c703          	lbu	x14,0(x15)
     2fc:	e311                	c.bnez	x14,300 <unimplemented_syscall+0x12>
}
     2fe:	8082                	c.jr	x1
    *(volatile int *)STDOUT_REG = *(p++);
     300:	0785                	c.addi	x15,1
     302:	c298                	c.sw	x14,0(x13)
     304:	bfd5                	c.j	2f8 <unimplemented_syscall+0xa>

00000306 <nanosleep>:

int nanosleep(const struct timespec *rqtp, struct timespec *rmtp)
{
  errno = ENOSYS;
     306:	05800713          	addi	x14,x0,88
     30a:	f0e1ae23          	sw	x14,-228(x3) # 1305c <errno>
  return -1;
}
     30e:	557d                	c.li	x10,-1
     310:	8082                	c.jr	x1

00000312 <_access>:

int _access(const char *file, int mode)
{
  errno = ENOSYS;
     312:	05800713          	addi	x14,x0,88
     316:	f0e1ae23          	sw	x14,-228(x3) # 1305c <errno>
  return -1;
}
     31a:	557d                	c.li	x10,-1
     31c:	8082                	c.jr	x1

0000031e <_chdir>:

int _chdir(const char *path)
{
  errno = ENOSYS;
     31e:	05800713          	addi	x14,x0,88
     322:	f0e1ae23          	sw	x14,-228(x3) # 1305c <errno>
  return -1;
}
     326:	557d                	c.li	x10,-1
     328:	8082                	c.jr	x1

0000032a <_chmod>:

int _chmod(const char *path, mode_t mode)
{
  errno = ENOSYS;
     32a:	05800713          	addi	x14,x0,88
     32e:	f0e1ae23          	sw	x14,-228(x3) # 1305c <errno>
  return -1;
}
     332:	557d                	c.li	x10,-1
     334:	8082                	c.jr	x1

00000336 <_chown>:

int _chown(const char *path, uid_t owner, gid_t group)
{
  errno = ENOSYS;
     336:	05800713          	addi	x14,x0,88
     33a:	f0e1ae23          	sw	x14,-228(x3) # 1305c <errno>
  return -1;
}
     33e:	557d                	c.li	x10,-1
     340:	8082                	c.jr	x1

00000342 <_close>:

int _close(int file)
{
  return -1;
}
     342:	557d                	c.li	x10,-1
     344:	8082                	c.jr	x1

00000346 <_execve>:

int _execve(const char *name, char *const argv[], char *const env[])
{
  errno = ENOMEM;
     346:	4731                	c.li	x14,12
     348:	f0e1ae23          	sw	x14,-228(x3) # 1305c <errno>
  return -1;
}
     34c:	557d                	c.li	x10,-1
     34e:	8082                	c.jr	x1

00000350 <_exit>:

void _exit(int exit_status)
{
  *(volatile int *)EXIT_REG = exit_status;
     350:	200007b7          	lui	x15,0x20000
     354:	c3c8                	c.sw	x10,4(x15)
  asm volatile("wfi");
     356:	10500073          	wfi
  /* _exit should not return */
  while (1) {};
     35a:	a001                	c.j	35a <_exit+0xa>

0000035c <_faccessat>:
}

int _faccessat(int dirfd, const char *file, int mode, int flags)
{
  errno = ENOSYS;
     35c:	05800713          	addi	x14,x0,88
     360:	f0e1ae23          	sw	x14,-228(x3) # 1305c <errno>
  return -1;
}
     364:	557d                	c.li	x10,-1
     366:	8082                	c.jr	x1

00000368 <_fork>:

int _fork(void)
{
  errno = EAGAIN;
     368:	472d                	c.li	x14,11
     36a:	f0e1ae23          	sw	x14,-228(x3) # 1305c <errno>
  return -1;
}
     36e:	557d                	c.li	x10,-1
     370:	8082                	c.jr	x1

00000372 <_fstat>:

int _fstat(int file, struct stat *st)
{
  st->st_mode = S_IFCHR;
     372:	6789                	c.lui	x15,0x2
     374:	c1dc                	c.sw	x15,4(x11)
  return 0;
  // errno = -ENOSYS;
  // return -1;
}
     376:	4501                	c.li	x10,0
     378:	8082                	c.jr	x1

0000037a <_fstatat>:

int _fstatat(int dirfd, const char *file, struct stat *st, int flags)
{
  errno = ENOSYS;
     37a:	05800713          	addi	x14,x0,88
     37e:	f0e1ae23          	sw	x14,-228(x3) # 1305c <errno>
  return -1;
}
     382:	557d                	c.li	x10,-1
     384:	8082                	c.jr	x1

00000386 <_ftime>:

int _ftime(struct timeb *tp)
     386:	05800713          	addi	x14,x0,88
     38a:	f0e1ae23          	sw	x14,-228(x3) # 1305c <errno>
     38e:	557d                	c.li	x10,-1
     390:	8082                	c.jr	x1

00000392 <_getcwd>:
  return -1;
}

char *_getcwd(char *buf, size_t size)
{
  errno = -ENOSYS;
     392:	fa800713          	addi	x14,x0,-88
     396:	f0e1ae23          	sw	x14,-228(x3) # 1305c <errno>
  return NULL;
}
     39a:	4501                	c.li	x10,0
     39c:	8082                	c.jr	x1

0000039e <_getpid>:

int _getpid()
{
  return 1;
}
     39e:	4505                	c.li	x10,1
     3a0:	8082                	c.jr	x1

000003a2 <_gettimeofday>:

int _gettimeofday(struct timeval *tp, void *tzp)
{
  errno = -ENOSYS;
     3a2:	fa800713          	addi	x14,x0,-88
     3a6:	f0e1ae23          	sw	x14,-228(x3) # 1305c <errno>
  return -1;
}
     3aa:	557d                	c.li	x10,-1
     3ac:	8082                	c.jr	x1

000003ae <_isatty>:

int _isatty(int file)
{
  return (file == STDOUT_FILENO);
     3ae:	157d                	c.addi	x10,-1
}
     3b0:	00153513          	sltiu	x10,x10,1
     3b4:	8082                	c.jr	x1

000003b6 <_kill>:

int _kill(int pid, int sig)
{
  errno = EINVAL;
     3b6:	4759                	c.li	x14,22
     3b8:	f0e1ae23          	sw	x14,-228(x3) # 1305c <errno>
  return -1;
}
     3bc:	557d                	c.li	x10,-1
     3be:	8082                	c.jr	x1

000003c0 <_link>:

int _link(const char *old_name, const char *new_name)
{
  errno = EMLINK;
     3c0:	477d                	c.li	x14,31
     3c2:	f0e1ae23          	sw	x14,-228(x3) # 1305c <errno>
  return -1;
}
     3c6:	557d                	c.li	x10,-1
     3c8:	8082                	c.jr	x1

000003ca <_lseek>:

off_t _lseek(int file, off_t ptr, int dir)
{
  return 0;
}
     3ca:	4501                	c.li	x10,0
     3cc:	8082                	c.jr	x1

000003ce <_lstat>:

int _lstat(const char *file, struct stat *st)
     3ce:	05800713          	addi	x14,x0,88
     3d2:	f0e1ae23          	sw	x14,-228(x3) # 1305c <errno>
     3d6:	557d                	c.li	x10,-1
     3d8:	8082                	c.jr	x1

000003da <_open>:
}

int _open(const char *name, int flags, int mode)
{
  return -1;
}
     3da:	557d                	c.li	x10,-1
     3dc:	8082                	c.jr	x1

000003de <_openat>:

int _openat(int dirfd, const char *name, int flags, int mode)
     3de:	05800713          	addi	x14,x0,88
     3e2:	f0e1ae23          	sw	x14,-228(x3) # 1305c <errno>
     3e6:	557d                	c.li	x10,-1
     3e8:	8082                	c.jr	x1

000003ea <_read>:
}

ssize_t _read(int file, void *ptr, size_t len)
{
  return 0;
}
     3ea:	4501                	c.li	x10,0
     3ec:	8082                	c.jr	x1

000003ee <_stat>:

int _stat(const char *file, struct stat *st)
{
  st->st_mode = S_IFCHR;
     3ee:	6789                	c.lui	x15,0x2
     3f0:	c1dc                	c.sw	x15,4(x11)
  return 0;
  // errno = ENOSYS;
  // return -1;
}
     3f2:	4501                	c.li	x10,0
     3f4:	8082                	c.jr	x1

000003f6 <_sysconf>:

long _sysconf(int name)
     3f6:	557d                	c.li	x10,-1
     3f8:	8082                	c.jr	x1

000003fa <_times>:
}

clock_t _times(struct tms *buf)
{
  return -1;
}
     3fa:	557d                	c.li	x10,-1
     3fc:	8082                	c.jr	x1

000003fe <_unlink>:

int _unlink(const char *name)
{
  errno = ENOENT;
     3fe:	4709                	c.li	x14,2
     400:	f0e1ae23          	sw	x14,-228(x3) # 1305c <errno>
  return -1;
}
     404:	557d                	c.li	x10,-1
     406:	8082                	c.jr	x1

00000408 <_utime>:

int _utime(const char *path, const struct utimbuf *times)
     408:	05800713          	addi	x14,x0,88
     40c:	f0e1ae23          	sw	x14,-228(x3) # 1305c <errno>
     410:	557d                	c.li	x10,-1
     412:	8082                	c.jr	x1

00000414 <_wait>:
  return -1;
}

int _wait(int *status)
{
  errno = ECHILD;
     414:	4729                	c.li	x14,10
     416:	f0e1ae23          	sw	x14,-228(x3) # 1305c <errno>
  return -1;
}
     41a:	557d                	c.li	x10,-1
     41c:	8082                	c.jr	x1

0000041e <_write>:

ssize_t _write(int file, const void *ptr, size_t len)
{
  const char *cptr = (char *)ptr;
  if (file != STDOUT_FILENO)
     41e:	4685                	c.li	x13,1
    {
      errno = ENOSYS;
      return -1;
    }

  const void *eptr = cptr + len;
     420:	00c587b3          	add	x15,x11,x12
  while (cptr != eptr)
    *(volatile int *)STDOUT_REG = *cptr++;
     424:	10000737          	lui	x14,0x10000
  if (file != STDOUT_FILENO)
     428:	00d50c63          	beq	x10,x13,440 <_write+0x22>
      errno = ENOSYS;
     42c:	05800713          	addi	x14,x0,88
     430:	f0e1ae23          	sw	x14,-228(x3) # 1305c <errno>
      return -1;
     434:	557d                	c.li	x10,-1
     436:	8082                	c.jr	x1
    *(volatile int *)STDOUT_REG = *cptr++;
     438:	0005c683          	lbu	x13,0(x11)
     43c:	0585                	c.addi	x11,1
     43e:	c314                	c.sw	x13,0(x14)
  while (cptr != eptr)
     440:	fef59ce3          	bne	x11,x15,438 <_write+0x1a>
  return len;
     444:	8532                	c.mv	x10,x12
}
     446:	8082                	c.jr	x1

00000448 <_brk>:
extern char __heap_end[];
static char *brk = __heap_start;

int _brk(void *addr)
{
  brk = addr;
     448:	f0a1a423          	sw	x10,-248(x3) # 13048 <brk>
  return 0;
}
     44c:	4501                	c.li	x10,0
     44e:	8082                	c.jr	x1

00000450 <_sbrk>:

void *_sbrk(ptrdiff_t incr)
{
     450:	87aa                	c.mv	x15,x10
  char *old_brk = brk;
     452:	f081a503          	lw	x10,-248(x3) # 13048 <brk>
  register long sp asm("sp");

  char *new_brk = brk += incr;
     456:	97aa                	c.add	x15,x10
     458:	f0f1a423          	sw	x15,-248(x3) # 13048 <brk>
  if (new_brk < (char *) sp && new_brk < __heap_end)
     45c:	0027f863          	bgeu	x15,x2,46c <_sbrk+0x1c>
     460:	00400737          	lui	x14,0x400
     464:	00070713          	addi	x14,x14,0 # 400000 <__heap_end>
     468:	00e7e663          	bltu	x15,x14,474 <_sbrk+0x24>

      return old_brk;
    }
  else
    {
      errno = ENOMEM;
     46c:	4731                	c.li	x14,12
     46e:	f0e1ae23          	sw	x14,-228(x3) # 1305c <errno>
      return (void *) -1;
     472:	557d                	c.li	x10,-1
    }
}
     474:	8082                	c.jr	x1

00000476 <handle_syscall>:
    register long syscall_id asm("t0");
  #else
    long syscall_id = a7;
  #endif

  switch (syscall_id) {
     476:	08100793          	addi	x15,x0,129
     47a:	0af88c63          	beq	x17,x15,532 <handle_syscall+0xbc>
     47e:	0717c763          	blt	x15,x17,4ec <handle_syscall+0x76>
     482:	04000793          	addi	x15,x0,64
     486:	0517c663          	blt	x15,x17,4d2 <handle_syscall+0x5c>
     48a:	02f00793          	addi	x15,x0,47
     48e:	0317c563          	blt	x15,x17,4b8 <handle_syscall+0x42>
     492:	47c5                	c.li	x15,17
     494:	04f89b63          	bne	x17,x15,4ea <handle_syscall+0x74>
  errno = -ENOSYS;
     498:	fa800713          	addi	x14,x0,-88
     49c:	a861                	c.j	534 <handle_syscall+0xbe>
  switch (syscall_id) {
     49e:	c0088893          	addi	x17,x17,-1024
     4a2:	47bd                	c.li	x15,15
     4a4:	0517e363          	bltu	x15,x17,4ea <handle_syscall+0x74>
     4a8:	67c9                	c.lui	x15,0x12
     4aa:	0d878793          	addi	x15,x15,216 # 120d8 <no_exception_handler_msg+0x30>
     4ae:	088a                	c.slli	x17,0x2
     4b0:	98be                	c.add	x17,x15
     4b2:	0008a783          	lw	x15,0(x17)
     4b6:	8782                	c.jr	x15
     4b8:	fd088893          	addi	x17,x17,-48
     4bc:	47c1                	c.li	x15,16
     4be:	0317e663          	bltu	x15,x17,4ea <handle_syscall+0x74>
     4c2:	67c9                	c.lui	x15,0x12
     4c4:	11878793          	addi	x15,x15,280 # 12118 <no_exception_handler_msg+0x70>
     4c8:	088a                	c.slli	x17,0x2
     4ca:	98be                	c.add	x17,x15
     4cc:	0008a783          	lw	x15,0(x17)
     4d0:	8782                	c.jr	x15
     4d2:	05000793          	addi	x15,x0,80
     4d6:	06f88963          	beq	x17,x15,548 <handle_syscall+0xd2>
     4da:	05d00793          	addi	x15,x0,93
     4de:	04f88363          	beq	x17,x15,524 <handle_syscall+0xae>
     4e2:	04f00793          	addi	x15,x0,79
     4e6:	04f88a63          	beq	x17,x15,53a <handle_syscall+0xc4>
      break;
    case SYS_times:
      _times ((struct tms *) a0);
      break;
    default:
      unimplemented_syscall ();
     4ea:	b511                	c.j	2ee <unimplemented_syscall>
  switch (syscall_id) {
     4ec:	40f00793          	addi	x15,x0,1039
     4f0:	ff17cde3          	blt	x15,x17,4ea <handle_syscall+0x74>
     4f4:	3ff00793          	addi	x15,x0,1023
     4f8:	fb17c3e3          	blt	x15,x17,49e <handle_syscall+0x28>
     4fc:	0ac00793          	addi	x15,x0,172
     500:	04f88763          	beq	x17,x15,54e <handle_syscall+0xd8>
     504:	0117c963          	blt	x15,x17,516 <handle_syscall+0xa0>
     508:	09900793          	addi	x15,x0,153
     50c:	04f88163          	beq	x17,x15,54e <handle_syscall+0xd8>
     510:	0a900793          	addi	x15,x0,169
     514:	b741                	c.j	494 <handle_syscall+0x1e>
     516:	0d600793          	addi	x15,x0,214
     51a:	fcf898e3          	bne	x17,x15,4ea <handle_syscall+0x74>
  brk = addr;
     51e:	f0a1a423          	sw	x10,-248(x3) # 13048 <brk>
  return 0;
     522:	8082                	c.jr	x1
  *(volatile int *)EXIT_REG = exit_status;
     524:	200007b7          	lui	x15,0x20000
     528:	c3c8                	c.sw	x10,4(x15)
  asm volatile("wfi");
     52a:	10500073          	wfi
  while (1) {};
     52e:	a001                	c.j	52e <handle_syscall+0xb8>
      _write (a0, (const void *) a1, a2);
     530:	b5fd                	c.j	41e <_write>
  errno = EINVAL;
     532:	4759                	c.li	x14,22
  errno = ENOSYS;
     534:	f0e1ae23          	sw	x14,-228(x3) # 1305c <errno>
  return -1;
     538:	8082                	c.jr	x1
  errno = ENOSYS;
     53a:	05800713          	addi	x14,x0,88
     53e:	bfdd                	c.j	534 <handle_syscall+0xbe>
  errno = EMLINK;
     540:	477d                	c.li	x14,31
     542:	bfcd                	c.j	534 <handle_syscall+0xbe>
  errno = ENOENT;
     544:	4709                	c.li	x14,2
     546:	b7fd                	c.j	534 <handle_syscall+0xbe>
  st->st_mode = S_IFCHR;
     548:	6789                	c.lui	x15,0x2
     54a:	c1dc                	c.sw	x15,4(x11)
  return 0;
     54c:	8082                	c.jr	x1
      break;
  }
}
     54e:	8082                	c.jr	x1

00000550 <atexit>:
     550:	00050593          	addi	x11,x10,0
     554:	00000693          	addi	x13,x0,0
     558:	00000613          	addi	x12,x0,0
     55c:	00000513          	addi	x10,x0,0
     560:	3b90006f          	jal	x0,1118 <__register_exitproc>

00000564 <__fp_lock>:
     564:	00000513          	addi	x10,x0,0
     568:	00008067          	jalr	x0,0(x1)

0000056c <stdio_exit_handler>:
     56c:	00013637          	lui	x12,0x13
     570:	000065b7          	lui	x11,0x6
     574:	00013537          	lui	x10,0x13
     578:	94060613          	addi	x12,x12,-1728 # 12940 <__sglue>
     57c:	d5058593          	addi	x11,x11,-688 # 5d50 <_fclose_r>
     580:	95050513          	addi	x10,x10,-1712 # 12950 <_impure_data>
     584:	3380006f          	jal	x0,8bc <_fwalk_sglue>

00000588 <cleanup_stdio>:
     588:	00452583          	lw	x11,4(x10)
     58c:	ff010113          	addi	x2,x2,-16
     590:	00812423          	sw	x8,8(x2)
     594:	00112623          	sw	x1,12(x2)
     598:	f3418793          	addi	x15,x3,-204 # 13074 <__sf>
     59c:	00050413          	addi	x8,x10,0
     5a0:	00f58463          	beq	x11,x15,5a8 <cleanup_stdio+0x20>
     5a4:	7ac050ef          	jal	x1,5d50 <_fclose_r>
     5a8:	00842583          	lw	x11,8(x8)
     5ac:	f9c18793          	addi	x15,x3,-100 # 130dc <__sf+0x68>
     5b0:	00f58663          	beq	x11,x15,5bc <cleanup_stdio+0x34>
     5b4:	00040513          	addi	x10,x8,0
     5b8:	798050ef          	jal	x1,5d50 <_fclose_r>
     5bc:	00c42583          	lw	x11,12(x8)
     5c0:	00418793          	addi	x15,x3,4 # 13144 <__global_pointer$+0x4>
     5c4:	00f58c63          	beq	x11,x15,5dc <cleanup_stdio+0x54>
     5c8:	00040513          	addi	x10,x8,0
     5cc:	00812403          	lw	x8,8(x2)
     5d0:	00c12083          	lw	x1,12(x2)
     5d4:	01010113          	addi	x2,x2,16
     5d8:	7780506f          	jal	x0,5d50 <_fclose_r>
     5dc:	00c12083          	lw	x1,12(x2)
     5e0:	00812403          	lw	x8,8(x2)
     5e4:	01010113          	addi	x2,x2,16
     5e8:	00008067          	jalr	x0,0(x1)

000005ec <__fp_unlock>:
     5ec:	00000513          	addi	x10,x0,0
     5f0:	00008067          	jalr	x0,0(x1)

000005f4 <global_stdio_init.part.0>:
     5f4:	fe010113          	addi	x2,x2,-32
     5f8:	00812c23          	sw	x8,24(x2)
     5fc:	56c00793          	addi	x15,x0,1388
     600:	f3418413          	addi	x8,x3,-204 # 13074 <__sf>
     604:	00112e23          	sw	x1,28(x2)
     608:	00912a23          	sw	x9,20(x2)
     60c:	01212823          	sw	x18,16(x2)
     610:	01312623          	sw	x19,12(x2)
     614:	01412423          	sw	x20,8(x2)
     618:	f0f1ac23          	sw	x15,-232(x3) # 13058 <__stdio_exit_handler>
     61c:	00800613          	addi	x12,x0,8
     620:	00400793          	addi	x15,x0,4
     624:	00000593          	addi	x11,x0,0
     628:	f9018513          	addi	x10,x3,-112 # 130d0 <__sf+0x5c>
     62c:	00f42623          	sw	x15,12(x8)
     630:	00042023          	sw	x0,0(x8)
     634:	00042223          	sw	x0,4(x8)
     638:	00042423          	sw	x0,8(x8)
     63c:	06042223          	sw	x0,100(x8)
     640:	00042823          	sw	x0,16(x8)
     644:	00042a23          	sw	x0,20(x8)
     648:	00042c23          	sw	x0,24(x8)
     64c:	165000ef          	jal	x1,fb0 <memset>
     650:	000107b7          	lui	x15,0x10
     654:	00001a37          	lui	x20,0x1
     658:	000019b7          	lui	x19,0x1
     65c:	00001937          	lui	x18,0x1
     660:	000014b7          	lui	x9,0x1
     664:	af4a0a13          	addi	x20,x20,-1292 # af4 <__sread>
     668:	b5898993          	addi	x19,x19,-1192 # b58 <__swrite>
     66c:	be090913          	addi	x18,x18,-1056 # be0 <__sseek>
     670:	c5848493          	addi	x9,x9,-936 # c58 <__sclose>
     674:	00978793          	addi	x15,x15,9 # 10009 <__multf3+0x1265>
     678:	00800613          	addi	x12,x0,8
     67c:	00000593          	addi	x11,x0,0
     680:	ff818513          	addi	x10,x3,-8 # 13138 <__sf+0xc4>
     684:	03442023          	sw	x20,32(x8)
     688:	03342223          	sw	x19,36(x8)
     68c:	03242423          	sw	x18,40(x8)
     690:	02942623          	sw	x9,44(x8)
     694:	06f42a23          	sw	x15,116(x8)
     698:	00842e23          	sw	x8,28(x8)
     69c:	06042423          	sw	x0,104(x8)
     6a0:	06042623          	sw	x0,108(x8)
     6a4:	06042823          	sw	x0,112(x8)
     6a8:	0c042623          	sw	x0,204(x8)
     6ac:	06042c23          	sw	x0,120(x8)
     6b0:	06042e23          	sw	x0,124(x8)
     6b4:	08042023          	sw	x0,128(x8)
     6b8:	0f9000ef          	jal	x1,fb0 <memset>
     6bc:	000207b7          	lui	x15,0x20
     6c0:	01278793          	addi	x15,x15,18 # 20012 <__heap_start+0xcca2>
     6c4:	f9c18713          	addi	x14,x3,-100 # 130dc <__sf+0x68>
     6c8:	00800613          	addi	x12,x0,8
     6cc:	00000593          	addi	x11,x0,0
     6d0:	06018513          	addi	x10,x3,96 # 131a0 <__global_pointer$+0x60>
     6d4:	09442423          	sw	x20,136(x8)
     6d8:	09342623          	sw	x19,140(x8)
     6dc:	09242823          	sw	x18,144(x8)
     6e0:	08942a23          	sw	x9,148(x8)
     6e4:	0cf42e23          	sw	x15,220(x8)
     6e8:	08e42223          	sw	x14,132(x8)
     6ec:	0c042823          	sw	x0,208(x8)
     6f0:	0c042a23          	sw	x0,212(x8)
     6f4:	0c042c23          	sw	x0,216(x8)
     6f8:	12042a23          	sw	x0,308(x8)
     6fc:	0e042023          	sw	x0,224(x8)
     700:	0e042223          	sw	x0,228(x8)
     704:	0e042423          	sw	x0,232(x8)
     708:	0a9000ef          	jal	x1,fb0 <memset>
     70c:	00418793          	addi	x15,x3,4 # 13144 <__global_pointer$+0x4>
     710:	0f442823          	sw	x20,240(x8)
     714:	0f342a23          	sw	x19,244(x8)
     718:	0f242c23          	sw	x18,248(x8)
     71c:	0e942e23          	sw	x9,252(x8)
     720:	01c12083          	lw	x1,28(x2)
     724:	0ef42623          	sw	x15,236(x8)
     728:	01812403          	lw	x8,24(x2)
     72c:	01412483          	lw	x9,20(x2)
     730:	01012903          	lw	x18,16(x2)
     734:	00c12983          	lw	x19,12(x2)
     738:	00812a03          	lw	x20,8(x2)
     73c:	02010113          	addi	x2,x2,32
     740:	00008067          	jalr	x0,0(x1)

00000744 <__sfp>:
     744:	f181a783          	lw	x15,-232(x3) # 13058 <__stdio_exit_handler>
     748:	fe010113          	addi	x2,x2,-32
     74c:	01312623          	sw	x19,12(x2)
     750:	00112e23          	sw	x1,28(x2)
     754:	00812c23          	sw	x8,24(x2)
     758:	00912a23          	sw	x9,20(x2)
     75c:	01212823          	sw	x18,16(x2)
     760:	00050993          	addi	x19,x10,0
     764:	0e078863          	beq	x15,x0,854 <__sfp+0x110>
     768:	00013937          	lui	x18,0x13
     76c:	94090913          	addi	x18,x18,-1728 # 12940 <__sglue>
     770:	fff00493          	addi	x9,x0,-1
     774:	00492783          	lw	x15,4(x18)
     778:	00892403          	lw	x8,8(x18)
     77c:	fff78793          	addi	x15,x15,-1
     780:	0007d863          	bge	x15,x0,790 <__sfp+0x4c>
     784:	0800006f          	jal	x0,804 <__sfp+0xc0>
     788:	06840413          	addi	x8,x8,104
     78c:	06978c63          	beq	x15,x9,804 <__sfp+0xc0>
     790:	00c41703          	lh	x14,12(x8)
     794:	fff78793          	addi	x15,x15,-1
     798:	fe0718e3          	bne	x14,x0,788 <__sfp+0x44>
     79c:	ffff07b7          	lui	x15,0xffff0
     7a0:	00178793          	addi	x15,x15,1 # ffff0001 <__heap_end+0xffbf0001>
     7a4:	00f42623          	sw	x15,12(x8)
     7a8:	06042223          	sw	x0,100(x8)
     7ac:	00042023          	sw	x0,0(x8)
     7b0:	00042423          	sw	x0,8(x8)
     7b4:	00042223          	sw	x0,4(x8)
     7b8:	00042823          	sw	x0,16(x8)
     7bc:	00042a23          	sw	x0,20(x8)
     7c0:	00042c23          	sw	x0,24(x8)
     7c4:	00800613          	addi	x12,x0,8
     7c8:	00000593          	addi	x11,x0,0
     7cc:	05c40513          	addi	x10,x8,92
     7d0:	7e0000ef          	jal	x1,fb0 <memset>
     7d4:	02042823          	sw	x0,48(x8)
     7d8:	02042a23          	sw	x0,52(x8)
     7dc:	04042223          	sw	x0,68(x8)
     7e0:	04042423          	sw	x0,72(x8)
     7e4:	01c12083          	lw	x1,28(x2)
     7e8:	00040513          	addi	x10,x8,0
     7ec:	01812403          	lw	x8,24(x2)
     7f0:	01412483          	lw	x9,20(x2)
     7f4:	01012903          	lw	x18,16(x2)
     7f8:	00c12983          	lw	x19,12(x2)
     7fc:	02010113          	addi	x2,x2,32
     800:	00008067          	jalr	x0,0(x1)
     804:	00092403          	lw	x8,0(x18)
     808:	00040663          	beq	x8,x0,814 <__sfp+0xd0>
     80c:	00040913          	addi	x18,x8,0
     810:	f65ff06f          	jal	x0,774 <__sfp+0x30>
     814:	1ac00593          	addi	x11,x0,428
     818:	00098513          	addi	x10,x19,0
     81c:	705000ef          	jal	x1,1720 <_malloc_r>
     820:	00050413          	addi	x8,x10,0
     824:	02050c63          	beq	x10,x0,85c <__sfp+0x118>
     828:	00c50513          	addi	x10,x10,12
     82c:	00400793          	addi	x15,x0,4
     830:	00042023          	sw	x0,0(x8)
     834:	00f42223          	sw	x15,4(x8)
     838:	00a42423          	sw	x10,8(x8)
     83c:	1a000613          	addi	x12,x0,416
     840:	00000593          	addi	x11,x0,0
     844:	76c000ef          	jal	x1,fb0 <memset>
     848:	00892023          	sw	x8,0(x18)
     84c:	00040913          	addi	x18,x8,0
     850:	f25ff06f          	jal	x0,774 <__sfp+0x30>
     854:	da1ff0ef          	jal	x1,5f4 <global_stdio_init.part.0>
     858:	f11ff06f          	jal	x0,768 <__sfp+0x24>
     85c:	00092023          	sw	x0,0(x18)
     860:	00c00793          	addi	x15,x0,12
     864:	00f9a023          	sw	x15,0(x19)
     868:	f7dff06f          	jal	x0,7e4 <__sfp+0xa0>

0000086c <__sinit>:
     86c:	03452783          	lw	x15,52(x10)
     870:	00078463          	beq	x15,x0,878 <__sinit+0xc>
     874:	00008067          	jalr	x0,0(x1)
     878:	f181a703          	lw	x14,-232(x3) # 13058 <__stdio_exit_handler>
     87c:	58800793          	addi	x15,x0,1416
     880:	02f52a23          	sw	x15,52(x10)
     884:	fe0718e3          	bne	x14,x0,874 <__sinit+0x8>
     888:	d6dff06f          	jal	x0,5f4 <global_stdio_init.part.0>

0000088c <__sfp_lock_acquire>:
     88c:	00008067          	jalr	x0,0(x1)

00000890 <__sfp_lock_release>:
     890:	00008067          	jalr	x0,0(x1)

00000894 <__fp_lock_all>:
     894:	00013637          	lui	x12,0x13
     898:	94060613          	addi	x12,x12,-1728 # 12940 <__sglue>
     89c:	56400593          	addi	x11,x0,1380
     8a0:	00000513          	addi	x10,x0,0
     8a4:	0180006f          	jal	x0,8bc <_fwalk_sglue>

000008a8 <__fp_unlock_all>:
     8a8:	00013637          	lui	x12,0x13
     8ac:	94060613          	addi	x12,x12,-1728 # 12940 <__sglue>
     8b0:	5ec00593          	addi	x11,x0,1516
     8b4:	00000513          	addi	x10,x0,0
     8b8:	0040006f          	jal	x0,8bc <_fwalk_sglue>

000008bc <_fwalk_sglue>:
     8bc:	fd010113          	addi	x2,x2,-48
     8c0:	03212023          	sw	x18,32(x2)
     8c4:	01312e23          	sw	x19,28(x2)
     8c8:	01412c23          	sw	x20,24(x2)
     8cc:	01512a23          	sw	x21,20(x2)
     8d0:	01612823          	sw	x22,16(x2)
     8d4:	01712623          	sw	x23,12(x2)
     8d8:	02112623          	sw	x1,44(x2)
     8dc:	02812423          	sw	x8,40(x2)
     8e0:	02912223          	sw	x9,36(x2)
     8e4:	00050b13          	addi	x22,x10,0
     8e8:	00058b93          	addi	x23,x11,0
     8ec:	00060a93          	addi	x21,x12,0
     8f0:	00000a13          	addi	x20,x0,0
     8f4:	00100993          	addi	x19,x0,1
     8f8:	fff00913          	addi	x18,x0,-1
     8fc:	004aa483          	lw	x9,4(x21)
     900:	008aa403          	lw	x8,8(x21)
     904:	fff48493          	addi	x9,x9,-1
     908:	0204c863          	blt	x9,x0,938 <_fwalk_sglue+0x7c>
     90c:	00c45783          	lhu	x15,12(x8)
     910:	00f9fe63          	bgeu	x19,x15,92c <_fwalk_sglue+0x70>
     914:	00e41783          	lh	x15,14(x8)
     918:	00040593          	addi	x11,x8,0
     91c:	000b0513          	addi	x10,x22,0
     920:	01278663          	beq	x15,x18,92c <_fwalk_sglue+0x70>
     924:	000b80e7          	jalr	x1,0(x23)
     928:	00aa6a33          	or	x20,x20,x10
     92c:	fff48493          	addi	x9,x9,-1
     930:	06840413          	addi	x8,x8,104
     934:	fd249ce3          	bne	x9,x18,90c <_fwalk_sglue+0x50>
     938:	000aaa83          	lw	x21,0(x21)
     93c:	fc0a90e3          	bne	x21,x0,8fc <_fwalk_sglue+0x40>
     940:	02c12083          	lw	x1,44(x2)
     944:	02812403          	lw	x8,40(x2)
     948:	02412483          	lw	x9,36(x2)
     94c:	02012903          	lw	x18,32(x2)
     950:	01c12983          	lw	x19,28(x2)
     954:	01412a83          	lw	x21,20(x2)
     958:	01012b03          	lw	x22,16(x2)
     95c:	00c12b83          	lw	x23,12(x2)
     960:	000a0513          	addi	x10,x20,0
     964:	01812a03          	lw	x20,24(x2)
     968:	03010113          	addi	x2,x2,48
     96c:	00008067          	jalr	x0,0(x1)

00000970 <_printf_r>:
     970:	fc010113          	addi	x2,x2,-64
     974:	02c12423          	sw	x12,40(x2)
     978:	02d12623          	sw	x13,44(x2)
     97c:	02e12823          	sw	x14,48(x2)
     980:	02f12a23          	sw	x15,52(x2)
     984:	03012c23          	sw	x16,56(x2)
     988:	03112e23          	sw	x17,60(x2)
     98c:	00058613          	addi	x12,x11,0
     990:	00852583          	lw	x11,8(x10)
     994:	02810693          	addi	x13,x2,40
     998:	00112e23          	sw	x1,28(x2)
     99c:	00d12623          	sw	x13,12(x2)
     9a0:	544010ef          	jal	x1,1ee4 <_vfprintf_r>
     9a4:	01c12083          	lw	x1,28(x2)
     9a8:	04010113          	addi	x2,x2,64
     9ac:	00008067          	jalr	x0,0(x1)

000009b0 <printf>:
     9b0:	f0c1a303          	lw	x6,-244(x3) # 1304c <_impure_ptr>
     9b4:	fc010113          	addi	x2,x2,-64
     9b8:	02c12423          	sw	x12,40(x2)
     9bc:	02d12623          	sw	x13,44(x2)
     9c0:	02b12223          	sw	x11,36(x2)
     9c4:	02e12823          	sw	x14,48(x2)
     9c8:	02f12a23          	sw	x15,52(x2)
     9cc:	03012c23          	sw	x16,56(x2)
     9d0:	03112e23          	sw	x17,60(x2)
     9d4:	00832583          	lw	x11,8(x6)
     9d8:	02410693          	addi	x13,x2,36
     9dc:	00050613          	addi	x12,x10,0
     9e0:	00030513          	addi	x10,x6,0
     9e4:	00112e23          	sw	x1,28(x2)
     9e8:	00d12623          	sw	x13,12(x2)
     9ec:	4f8010ef          	jal	x1,1ee4 <_vfprintf_r>
     9f0:	01c12083          	lw	x1,28(x2)
     9f4:	04010113          	addi	x2,x2,64
     9f8:	00008067          	jalr	x0,0(x1)

000009fc <_putchar_r>:
     9fc:	00852603          	lw	x12,8(x10)
     a00:	4a90506f          	jal	x0,66a8 <_putc_r>

00000a04 <putchar>:
     a04:	f0c1a783          	lw	x15,-244(x3) # 1304c <_impure_ptr>
     a08:	00050593          	addi	x11,x10,0
     a0c:	0087a603          	lw	x12,8(x15)
     a10:	00078513          	addi	x10,x15,0
     a14:	4950506f          	jal	x0,66a8 <_putc_r>

00000a18 <_puts_r>:
     a18:	fc010113          	addi	x2,x2,-64
     a1c:	02812c23          	sw	x8,56(x2)
     a20:	00050413          	addi	x8,x10,0
     a24:	00058513          	addi	x10,x11,0
     a28:	02912a23          	sw	x9,52(x2)
     a2c:	02112e23          	sw	x1,60(x2)
     a30:	00058493          	addi	x9,x11,0
     a34:	658000ef          	jal	x1,108c <strlen>
     a38:	000127b7          	lui	x15,0x12
     a3c:	ed078793          	addi	x15,x15,-304 # 11ed0 <__clzsi2+0x2e0>
     a40:	02f12423          	sw	x15,40(x2)
     a44:	00100793          	addi	x15,x0,1
     a48:	02f12623          	sw	x15,44(x2)
     a4c:	03442703          	lw	x14,52(x8)
     a50:	02010793          	addi	x15,x2,32
     a54:	00150693          	addi	x13,x10,1
     a58:	00f12a23          	sw	x15,20(x2)
     a5c:	00200793          	addi	x15,x0,2
     a60:	02912023          	sw	x9,32(x2)
     a64:	02a12223          	sw	x10,36(x2)
     a68:	00d12e23          	sw	x13,28(x2)
     a6c:	00f12c23          	sw	x15,24(x2)
     a70:	00842583          	lw	x11,8(x8)
     a74:	06070063          	beq	x14,x0,ad4 <_puts_r+0xbc>
     a78:	00c59783          	lh	x15,12(x11)
     a7c:	01279713          	slli	x14,x15,0x12
     a80:	02074263          	blt	x14,x0,aa4 <_puts_r+0x8c>
     a84:	0645a703          	lw	x14,100(x11)
     a88:	ffffe6b7          	lui	x13,0xffffe
     a8c:	fff68693          	addi	x13,x13,-1 # ffffdfff <__heap_end+0xffbfdfff>
     a90:	00002637          	lui	x12,0x2
     a94:	00c7e7b3          	or	x15,x15,x12
     a98:	00d77733          	and	x14,x14,x13
     a9c:	00f59623          	sh	x15,12(x11)
     aa0:	06e5a223          	sw	x14,100(x11)
     aa4:	01410613          	addi	x12,x2,20
     aa8:	00040513          	addi	x10,x8,0
     aac:	6e8050ef          	jal	x1,6194 <__sfvwrite_r>
     ab0:	03c12083          	lw	x1,60(x2)
     ab4:	03812403          	lw	x8,56(x2)
     ab8:	00153513          	sltiu	x10,x10,1
     abc:	40a00533          	sub	x10,x0,x10
     ac0:	00b57513          	andi	x10,x10,11
     ac4:	03412483          	lw	x9,52(x2)
     ac8:	fff50513          	addi	x10,x10,-1
     acc:	04010113          	addi	x2,x2,64
     ad0:	00008067          	jalr	x0,0(x1)
     ad4:	00040513          	addi	x10,x8,0
     ad8:	00b12623          	sw	x11,12(x2)
     adc:	d91ff0ef          	jal	x1,86c <__sinit>
     ae0:	00c12583          	lw	x11,12(x2)
     ae4:	f95ff06f          	jal	x0,a78 <_puts_r+0x60>

00000ae8 <puts>:
     ae8:	00050593          	addi	x11,x10,0
     aec:	f0c1a503          	lw	x10,-244(x3) # 1304c <_impure_ptr>
     af0:	f29ff06f          	jal	x0,a18 <_puts_r>

00000af4 <__sread>:
     af4:	ff010113          	addi	x2,x2,-16
     af8:	00812423          	sw	x8,8(x2)
     afc:	00058413          	addi	x8,x11,0
     b00:	00e59583          	lh	x11,14(x11)
     b04:	00112623          	sw	x1,12(x2)
     b08:	2e0000ef          	jal	x1,de8 <_read_r>
     b0c:	02054063          	blt	x10,x0,b2c <__sread+0x38>
     b10:	05042783          	lw	x15,80(x8)
     b14:	00c12083          	lw	x1,12(x2)
     b18:	00a787b3          	add	x15,x15,x10
     b1c:	04f42823          	sw	x15,80(x8)
     b20:	00812403          	lw	x8,8(x2)
     b24:	01010113          	addi	x2,x2,16
     b28:	00008067          	jalr	x0,0(x1)
     b2c:	00c45783          	lhu	x15,12(x8)
     b30:	fffff737          	lui	x14,0xfffff
     b34:	fff70713          	addi	x14,x14,-1 # ffffefff <__heap_end+0xffbfefff>
     b38:	00e7f7b3          	and	x15,x15,x14
     b3c:	00c12083          	lw	x1,12(x2)
     b40:	00f41623          	sh	x15,12(x8)
     b44:	00812403          	lw	x8,8(x2)
     b48:	01010113          	addi	x2,x2,16
     b4c:	00008067          	jalr	x0,0(x1)

00000b50 <__seofread>:
     b50:	00000513          	addi	x10,x0,0
     b54:	00008067          	jalr	x0,0(x1)

00000b58 <__swrite>:
     b58:	00c59783          	lh	x15,12(x11)
     b5c:	fe010113          	addi	x2,x2,-32
     b60:	00812c23          	sw	x8,24(x2)
     b64:	00912a23          	sw	x9,20(x2)
     b68:	01212823          	sw	x18,16(x2)
     b6c:	01312623          	sw	x19,12(x2)
     b70:	00112e23          	sw	x1,28(x2)
     b74:	1007f713          	andi	x14,x15,256
     b78:	00058413          	addi	x8,x11,0
     b7c:	00050493          	addi	x9,x10,0
     b80:	00060913          	addi	x18,x12,0 # 2000 <_vfprintf_r+0x11c>
     b84:	00068993          	addi	x19,x13,0
     b88:	04071063          	bne	x14,x0,bc8 <__swrite+0x70>
     b8c:	fffff737          	lui	x14,0xfffff
     b90:	fff70713          	addi	x14,x14,-1 # ffffefff <__heap_end+0xffbfefff>
     b94:	00e7f7b3          	and	x15,x15,x14
     b98:	00e41583          	lh	x11,14(x8)
     b9c:	00f41623          	sh	x15,12(x8)
     ba0:	01812403          	lw	x8,24(x2)
     ba4:	01c12083          	lw	x1,28(x2)
     ba8:	00098693          	addi	x13,x19,0
     bac:	00090613          	addi	x12,x18,0
     bb0:	00c12983          	lw	x19,12(x2)
     bb4:	01012903          	lw	x18,16(x2)
     bb8:	00048513          	addi	x10,x9,0
     bbc:	01412483          	lw	x9,20(x2)
     bc0:	02010113          	addi	x2,x2,32
     bc4:	28c0006f          	jal	x0,e50 <_write_r>
     bc8:	00e59583          	lh	x11,14(x11)
     bcc:	00200693          	addi	x13,x0,2
     bd0:	00000613          	addi	x12,x0,0
     bd4:	1ac000ef          	jal	x1,d80 <_lseek_r>
     bd8:	00c41783          	lh	x15,12(x8)
     bdc:	fb1ff06f          	jal	x0,b8c <__swrite+0x34>

00000be0 <__sseek>:
     be0:	ff010113          	addi	x2,x2,-16
     be4:	00812423          	sw	x8,8(x2)
     be8:	00058413          	addi	x8,x11,0
     bec:	00e59583          	lh	x11,14(x11)
     bf0:	00112623          	sw	x1,12(x2)
     bf4:	18c000ef          	jal	x1,d80 <_lseek_r>
     bf8:	fff00793          	addi	x15,x0,-1
     bfc:	02f50863          	beq	x10,x15,c2c <__sseek+0x4c>
     c00:	00c45783          	lhu	x15,12(x8)
     c04:	00001737          	lui	x14,0x1
     c08:	00c12083          	lw	x1,12(x2)
     c0c:	00e7e7b3          	or	x15,x15,x14
     c10:	01079793          	slli	x15,x15,0x10
     c14:	4107d793          	srai	x15,x15,0x10
     c18:	04a42823          	sw	x10,80(x8)
     c1c:	00f41623          	sh	x15,12(x8)
     c20:	00812403          	lw	x8,8(x2)
     c24:	01010113          	addi	x2,x2,16
     c28:	00008067          	jalr	x0,0(x1)
     c2c:	00c45783          	lhu	x15,12(x8)
     c30:	fffff737          	lui	x14,0xfffff
     c34:	fff70713          	addi	x14,x14,-1 # ffffefff <__heap_end+0xffbfefff>
     c38:	00e7f7b3          	and	x15,x15,x14
     c3c:	01079793          	slli	x15,x15,0x10
     c40:	4107d793          	srai	x15,x15,0x10
     c44:	00c12083          	lw	x1,12(x2)
     c48:	00f41623          	sh	x15,12(x8)
     c4c:	00812403          	lw	x8,8(x2)
     c50:	01010113          	addi	x2,x2,16
     c54:	00008067          	jalr	x0,0(x1)

00000c58 <__sclose>:
     c58:	00e59583          	lh	x11,14(x11)
     c5c:	0040006f          	jal	x0,c60 <_close_r>

00000c60 <_close_r>:
     c60:	ff010113          	addi	x2,x2,-16
     c64:	00812423          	sw	x8,8(x2)
     c68:	00912223          	sw	x9,4(x2)
     c6c:	00050413          	addi	x8,x10,0
     c70:	00058513          	addi	x10,x11,0
     c74:	00112623          	sw	x1,12(x2)
     c78:	f001ae23          	sw	x0,-228(x3) # 1305c <errno>
     c7c:	ec6ff0ef          	jal	x1,342 <_close>
     c80:	fff00793          	addi	x15,x0,-1
     c84:	00f50c63          	beq	x10,x15,c9c <_close_r+0x3c>
     c88:	00c12083          	lw	x1,12(x2)
     c8c:	00812403          	lw	x8,8(x2)
     c90:	00412483          	lw	x9,4(x2)
     c94:	01010113          	addi	x2,x2,16
     c98:	00008067          	jalr	x0,0(x1)
     c9c:	f1c1a783          	lw	x15,-228(x3) # 1305c <errno>
     ca0:	fe0784e3          	beq	x15,x0,c88 <_close_r+0x28>
     ca4:	00c12083          	lw	x1,12(x2)
     ca8:	00f42023          	sw	x15,0(x8)
     cac:	00812403          	lw	x8,8(x2)
     cb0:	00412483          	lw	x9,4(x2)
     cb4:	01010113          	addi	x2,x2,16
     cb8:	00008067          	jalr	x0,0(x1)

00000cbc <_reclaim_reent>:
     cbc:	f0c1a783          	lw	x15,-244(x3) # 1304c <_impure_ptr>
     cc0:	0aa78e63          	beq	x15,x10,d7c <_reclaim_reent+0xc0>
     cc4:	04452583          	lw	x11,68(x10)
     cc8:	fe010113          	addi	x2,x2,-32
     ccc:	00912a23          	sw	x9,20(x2)
     cd0:	00112e23          	sw	x1,28(x2)
     cd4:	00050493          	addi	x9,x10,0
     cd8:	04058c63          	beq	x11,x0,d30 <_reclaim_reent+0x74>
     cdc:	01212823          	sw	x18,16(x2)
     ce0:	01312623          	sw	x19,12(x2)
     ce4:	00812c23          	sw	x8,24(x2)
     ce8:	00000913          	addi	x18,x0,0
     cec:	08000993          	addi	x19,x0,128
     cf0:	012587b3          	add	x15,x11,x18
     cf4:	0007a403          	lw	x8,0(x15)
     cf8:	00040e63          	beq	x8,x0,d14 <_reclaim_reent+0x58>
     cfc:	00040593          	addi	x11,x8,0
     d00:	00042403          	lw	x8,0(x8)
     d04:	00048513          	addi	x10,x9,0
     d08:	714000ef          	jal	x1,141c <_free_r>
     d0c:	fe0418e3          	bne	x8,x0,cfc <_reclaim_reent+0x40>
     d10:	0444a583          	lw	x11,68(x9)
     d14:	00490913          	addi	x18,x18,4
     d18:	fd391ce3          	bne	x18,x19,cf0 <_reclaim_reent+0x34>
     d1c:	00048513          	addi	x10,x9,0
     d20:	6fc000ef          	jal	x1,141c <_free_r>
     d24:	01812403          	lw	x8,24(x2)
     d28:	01012903          	lw	x18,16(x2)
     d2c:	00c12983          	lw	x19,12(x2)
     d30:	0384a583          	lw	x11,56(x9)
     d34:	00058663          	beq	x11,x0,d40 <_reclaim_reent+0x84>
     d38:	00048513          	addi	x10,x9,0
     d3c:	6e0000ef          	jal	x1,141c <_free_r>
     d40:	04c4a583          	lw	x11,76(x9)
     d44:	00058663          	beq	x11,x0,d50 <_reclaim_reent+0x94>
     d48:	00048513          	addi	x10,x9,0
     d4c:	6d0000ef          	jal	x1,141c <_free_r>
     d50:	0344a783          	lw	x15,52(x9)
     d54:	00078c63          	beq	x15,x0,d6c <_reclaim_reent+0xb0>
     d58:	01c12083          	lw	x1,28(x2)
     d5c:	00048513          	addi	x10,x9,0
     d60:	01412483          	lw	x9,20(x2)
     d64:	02010113          	addi	x2,x2,32
     d68:	00078067          	jalr	x0,0(x15)
     d6c:	01c12083          	lw	x1,28(x2)
     d70:	01412483          	lw	x9,20(x2)
     d74:	02010113          	addi	x2,x2,32
     d78:	00008067          	jalr	x0,0(x1)
     d7c:	00008067          	jalr	x0,0(x1)

00000d80 <_lseek_r>:
     d80:	ff010113          	addi	x2,x2,-16
     d84:	00058713          	addi	x14,x11,0
     d88:	00812423          	sw	x8,8(x2)
     d8c:	00912223          	sw	x9,4(x2)
     d90:	00060593          	addi	x11,x12,0
     d94:	00050413          	addi	x8,x10,0
     d98:	00068613          	addi	x12,x13,0
     d9c:	00070513          	addi	x10,x14,0
     da0:	00112623          	sw	x1,12(x2)
     da4:	f001ae23          	sw	x0,-228(x3) # 1305c <errno>
     da8:	e22ff0ef          	jal	x1,3ca <_lseek>
     dac:	fff00793          	addi	x15,x0,-1
     db0:	00f50c63          	beq	x10,x15,dc8 <_lseek_r+0x48>
     db4:	00c12083          	lw	x1,12(x2)
     db8:	00812403          	lw	x8,8(x2)
     dbc:	00412483          	lw	x9,4(x2)
     dc0:	01010113          	addi	x2,x2,16
     dc4:	00008067          	jalr	x0,0(x1)
     dc8:	f1c1a783          	lw	x15,-228(x3) # 1305c <errno>
     dcc:	fe0784e3          	beq	x15,x0,db4 <_lseek_r+0x34>
     dd0:	00c12083          	lw	x1,12(x2)
     dd4:	00f42023          	sw	x15,0(x8)
     dd8:	00812403          	lw	x8,8(x2)
     ddc:	00412483          	lw	x9,4(x2)
     de0:	01010113          	addi	x2,x2,16
     de4:	00008067          	jalr	x0,0(x1)

00000de8 <_read_r>:
     de8:	ff010113          	addi	x2,x2,-16
     dec:	00058713          	addi	x14,x11,0
     df0:	00812423          	sw	x8,8(x2)
     df4:	00912223          	sw	x9,4(x2)
     df8:	00060593          	addi	x11,x12,0
     dfc:	00050413          	addi	x8,x10,0
     e00:	00068613          	addi	x12,x13,0
     e04:	00070513          	addi	x10,x14,0
     e08:	00112623          	sw	x1,12(x2)
     e0c:	f001ae23          	sw	x0,-228(x3) # 1305c <errno>
     e10:	ddaff0ef          	jal	x1,3ea <_read>
     e14:	fff00793          	addi	x15,x0,-1
     e18:	00f50c63          	beq	x10,x15,e30 <_read_r+0x48>
     e1c:	00c12083          	lw	x1,12(x2)
     e20:	00812403          	lw	x8,8(x2)
     e24:	00412483          	lw	x9,4(x2)
     e28:	01010113          	addi	x2,x2,16
     e2c:	00008067          	jalr	x0,0(x1)
     e30:	f1c1a783          	lw	x15,-228(x3) # 1305c <errno>
     e34:	fe0784e3          	beq	x15,x0,e1c <_read_r+0x34>
     e38:	00c12083          	lw	x1,12(x2)
     e3c:	00f42023          	sw	x15,0(x8)
     e40:	00812403          	lw	x8,8(x2)
     e44:	00412483          	lw	x9,4(x2)
     e48:	01010113          	addi	x2,x2,16
     e4c:	00008067          	jalr	x0,0(x1)

00000e50 <_write_r>:
     e50:	ff010113          	addi	x2,x2,-16
     e54:	00058713          	addi	x14,x11,0
     e58:	00812423          	sw	x8,8(x2)
     e5c:	00912223          	sw	x9,4(x2)
     e60:	00060593          	addi	x11,x12,0
     e64:	00050413          	addi	x8,x10,0
     e68:	00068613          	addi	x12,x13,0
     e6c:	00070513          	addi	x10,x14,0
     e70:	00112623          	sw	x1,12(x2)
     e74:	f001ae23          	sw	x0,-228(x3) # 1305c <errno>
     e78:	da6ff0ef          	jal	x1,41e <_write>
     e7c:	fff00793          	addi	x15,x0,-1
     e80:	00f50c63          	beq	x10,x15,e98 <_write_r+0x48>
     e84:	00c12083          	lw	x1,12(x2)
     e88:	00812403          	lw	x8,8(x2)
     e8c:	00412483          	lw	x9,4(x2)
     e90:	01010113          	addi	x2,x2,16
     e94:	00008067          	jalr	x0,0(x1)
     e98:	f1c1a783          	lw	x15,-228(x3) # 1305c <errno>
     e9c:	fe0784e3          	beq	x15,x0,e84 <_write_r+0x34>
     ea0:	00c12083          	lw	x1,12(x2)
     ea4:	00f42023          	sw	x15,0(x8)
     ea8:	00812403          	lw	x8,8(x2)
     eac:	00412483          	lw	x9,4(x2)
     eb0:	01010113          	addi	x2,x2,16
     eb4:	00008067          	jalr	x0,0(x1)

00000eb8 <__libc_init_array>:
     eb8:	ff010113          	addi	x2,x2,-16
     ebc:	00812423          	sw	x8,8(x2)
     ec0:	000137b7          	lui	x15,0x13
     ec4:	00013437          	lui	x8,0x13
     ec8:	01212023          	sw	x18,0(x2)
     ecc:	93878793          	addi	x15,x15,-1736 # 12938 <__init_array_start>
     ed0:	93840713          	addi	x14,x8,-1736 # 12938 <__init_array_start>
     ed4:	00112623          	sw	x1,12(x2)
     ed8:	00912223          	sw	x9,4(x2)
     edc:	40e78933          	sub	x18,x15,x14
     ee0:	02e78263          	beq	x15,x14,f04 <__libc_init_array+0x4c>
     ee4:	40295913          	srai	x18,x18,0x2
     ee8:	93840413          	addi	x8,x8,-1736
     eec:	00000493          	addi	x9,x0,0
     ef0:	00042783          	lw	x15,0(x8)
     ef4:	00148493          	addi	x9,x9,1
     ef8:	00440413          	addi	x8,x8,4
     efc:	000780e7          	jalr	x1,0(x15)
     f00:	ff24e8e3          	bltu	x9,x18,ef0 <__libc_init_array+0x38>
     f04:	00013437          	lui	x8,0x13
     f08:	000137b7          	lui	x15,0x13
     f0c:	93c78793          	addi	x15,x15,-1732 # 1293c <__fini_array_end>
     f10:	93840713          	addi	x14,x8,-1736 # 12938 <__init_array_start>
     f14:	40e78933          	sub	x18,x15,x14
     f18:	40295913          	srai	x18,x18,0x2
     f1c:	02e78063          	beq	x15,x14,f3c <__libc_init_array+0x84>
     f20:	93840413          	addi	x8,x8,-1736
     f24:	00000493          	addi	x9,x0,0
     f28:	00042783          	lw	x15,0(x8)
     f2c:	00148493          	addi	x9,x9,1
     f30:	00440413          	addi	x8,x8,4
     f34:	000780e7          	jalr	x1,0(x15)
     f38:	ff24e8e3          	bltu	x9,x18,f28 <__libc_init_array+0x70>
     f3c:	00c12083          	lw	x1,12(x2)
     f40:	00812403          	lw	x8,8(x2)
     f44:	00412483          	lw	x9,4(x2)
     f48:	00012903          	lw	x18,0(x2)
     f4c:	01010113          	addi	x2,x2,16
     f50:	00008067          	jalr	x0,0(x1)

00000f54 <__libc_fini_array>:
     f54:	ff010113          	addi	x2,x2,-16
     f58:	00812423          	sw	x8,8(x2)
     f5c:	000137b7          	lui	x15,0x13
     f60:	00013437          	lui	x8,0x13
     f64:	93c78793          	addi	x15,x15,-1732 # 1293c <__fini_array_end>
     f68:	93c40413          	addi	x8,x8,-1732 # 1293c <__fini_array_end>
     f6c:	40f40433          	sub	x8,x8,x15
     f70:	00912223          	sw	x9,4(x2)
     f74:	00112623          	sw	x1,12(x2)
     f78:	40245493          	srai	x9,x8,0x2
     f7c:	02048063          	beq	x9,x0,f9c <__libc_fini_array+0x48>
     f80:	ffc40413          	addi	x8,x8,-4
     f84:	00f40433          	add	x8,x8,x15
     f88:	00042783          	lw	x15,0(x8)
     f8c:	fff48493          	addi	x9,x9,-1
     f90:	ffc40413          	addi	x8,x8,-4
     f94:	000780e7          	jalr	x1,0(x15)
     f98:	fe0498e3          	bne	x9,x0,f88 <__libc_fini_array+0x34>
     f9c:	00c12083          	lw	x1,12(x2)
     fa0:	00812403          	lw	x8,8(x2)
     fa4:	00412483          	lw	x9,4(x2)
     fa8:	01010113          	addi	x2,x2,16
     fac:	00008067          	jalr	x0,0(x1)

00000fb0 <memset>:
     fb0:	00f00313          	addi	x6,x0,15
     fb4:	00050713          	addi	x14,x10,0
     fb8:	02c37e63          	bgeu	x6,x12,ff4 <memset+0x44>
     fbc:	00f77793          	andi	x15,x14,15
     fc0:	0a079063          	bne	x15,x0,1060 <memset+0xb0>
     fc4:	08059263          	bne	x11,x0,1048 <memset+0x98>
     fc8:	ff067693          	andi	x13,x12,-16
     fcc:	00f67613          	andi	x12,x12,15
     fd0:	00e686b3          	add	x13,x13,x14
     fd4:	00b72023          	sw	x11,0(x14)
     fd8:	00b72223          	sw	x11,4(x14)
     fdc:	00b72423          	sw	x11,8(x14)
     fe0:	00b72623          	sw	x11,12(x14)
     fe4:	01070713          	addi	x14,x14,16
     fe8:	fed766e3          	bltu	x14,x13,fd4 <memset+0x24>
     fec:	00061463          	bne	x12,x0,ff4 <memset+0x44>
     ff0:	00008067          	jalr	x0,0(x1)
     ff4:	40c306b3          	sub	x13,x6,x12
     ff8:	00269693          	slli	x13,x13,0x2
     ffc:	00000297          	auipc	x5,0x0
    1000:	005686b3          	add	x13,x13,x5
    1004:	00c68067          	jalr	x0,12(x13)
    1008:	00b70723          	sb	x11,14(x14)
    100c:	00b706a3          	sb	x11,13(x14)
    1010:	00b70623          	sb	x11,12(x14)
    1014:	00b705a3          	sb	x11,11(x14)
    1018:	00b70523          	sb	x11,10(x14)
    101c:	00b704a3          	sb	x11,9(x14)
    1020:	00b70423          	sb	x11,8(x14)
    1024:	00b703a3          	sb	x11,7(x14)
    1028:	00b70323          	sb	x11,6(x14)
    102c:	00b702a3          	sb	x11,5(x14)
    1030:	00b70223          	sb	x11,4(x14)
    1034:	00b701a3          	sb	x11,3(x14)
    1038:	00b70123          	sb	x11,2(x14)
    103c:	00b700a3          	sb	x11,1(x14)
    1040:	00b70023          	sb	x11,0(x14)
    1044:	00008067          	jalr	x0,0(x1)
    1048:	0ff5f593          	andi	x11,x11,255
    104c:	00859693          	slli	x13,x11,0x8
    1050:	00d5e5b3          	or	x11,x11,x13
    1054:	01059693          	slli	x13,x11,0x10
    1058:	00d5e5b3          	or	x11,x11,x13
    105c:	f6dff06f          	jal	x0,fc8 <memset+0x18>
    1060:	00279693          	slli	x13,x15,0x2
    1064:	00000297          	auipc	x5,0x0
    1068:	005686b3          	add	x13,x13,x5
    106c:	00008293          	addi	x5,x1,0
    1070:	fa0680e7          	jalr	x1,-96(x13)
    1074:	00028093          	addi	x1,x5,0 # 1064 <memset+0xb4>
    1078:	ff078793          	addi	x15,x15,-16
    107c:	40f70733          	sub	x14,x14,x15
    1080:	00f60633          	add	x12,x12,x15
    1084:	f6c378e3          	bgeu	x6,x12,ff4 <memset+0x44>
    1088:	f3dff06f          	jal	x0,fc4 <memset+0x14>

0000108c <strlen>:
    108c:	00357793          	andi	x15,x10,3
    1090:	00050713          	addi	x14,x10,0
    1094:	04079c63          	bne	x15,x0,10ec <strlen+0x60>
    1098:	7f7f86b7          	lui	x13,0x7f7f8
    109c:	f7f68693          	addi	x13,x13,-129 # 7f7f7f7f <__heap_end+0x7f3f7f7f>
    10a0:	fff00593          	addi	x11,x0,-1
    10a4:	00072603          	lw	x12,0(x14)
    10a8:	00470713          	addi	x14,x14,4
    10ac:	00d677b3          	and	x15,x12,x13
    10b0:	00d787b3          	add	x15,x15,x13
    10b4:	00c7e7b3          	or	x15,x15,x12
    10b8:	00d7e7b3          	or	x15,x15,x13
    10bc:	feb784e3          	beq	x15,x11,10a4 <strlen+0x18>
    10c0:	ffc74683          	lbu	x13,-4(x14)
    10c4:	40a707b3          	sub	x15,x14,x10
    10c8:	04068463          	beq	x13,x0,1110 <strlen+0x84>
    10cc:	ffd74683          	lbu	x13,-3(x14)
    10d0:	02068c63          	beq	x13,x0,1108 <strlen+0x7c>
    10d4:	ffe74503          	lbu	x10,-2(x14)
    10d8:	00a03533          	sltu	x10,x0,x10
    10dc:	00f50533          	add	x10,x10,x15
    10e0:	ffe50513          	addi	x10,x10,-2
    10e4:	00008067          	jalr	x0,0(x1)
    10e8:	fa0688e3          	beq	x13,x0,1098 <strlen+0xc>
    10ec:	00074783          	lbu	x15,0(x14)
    10f0:	00170713          	addi	x14,x14,1
    10f4:	00377693          	andi	x13,x14,3
    10f8:	fe0798e3          	bne	x15,x0,10e8 <strlen+0x5c>
    10fc:	40a70733          	sub	x14,x14,x10
    1100:	fff70513          	addi	x10,x14,-1
    1104:	00008067          	jalr	x0,0(x1)
    1108:	ffd78513          	addi	x10,x15,-3
    110c:	00008067          	jalr	x0,0(x1)
    1110:	ffc78513          	addi	x10,x15,-4
    1114:	00008067          	jalr	x0,0(x1)

00001118 <__register_exitproc>:
    1118:	f201a783          	lw	x15,-224(x3) # 13060 <__atexit>
    111c:	04078c63          	beq	x15,x0,1174 <__register_exitproc+0x5c>
    1120:	0047a703          	lw	x14,4(x15)
    1124:	01f00813          	addi	x16,x0,31
    1128:	08e84063          	blt	x16,x14,11a8 <__register_exitproc+0x90>
    112c:	00271813          	slli	x16,x14,0x2
    1130:	02050663          	beq	x10,x0,115c <__register_exitproc+0x44>
    1134:	01078333          	add	x6,x15,x16
    1138:	08c32423          	sw	x12,136(x6)
    113c:	1887a883          	lw	x17,392(x15)
    1140:	00100613          	addi	x12,x0,1
    1144:	00e61633          	sll	x12,x12,x14
    1148:	00c8e8b3          	or	x17,x17,x12
    114c:	1917a423          	sw	x17,392(x15)
    1150:	10d32423          	sw	x13,264(x6)
    1154:	00200693          	addi	x13,x0,2
    1158:	02d50663          	beq	x10,x13,1184 <__register_exitproc+0x6c>
    115c:	00170713          	addi	x14,x14,1
    1160:	00e7a223          	sw	x14,4(x15)
    1164:	010787b3          	add	x15,x15,x16
    1168:	00b7a423          	sw	x11,8(x15)
    116c:	00000513          	addi	x10,x0,0
    1170:	00008067          	jalr	x0,0(x1)
    1174:	06c18813          	addi	x16,x3,108 # 131ac <__atexit0>
    1178:	f301a023          	sw	x16,-224(x3) # 13060 <__atexit>
    117c:	06c18793          	addi	x15,x3,108 # 131ac <__atexit0>
    1180:	fa1ff06f          	jal	x0,1120 <__register_exitproc+0x8>
    1184:	18c7a683          	lw	x13,396(x15)
    1188:	00170713          	addi	x14,x14,1
    118c:	00e7a223          	sw	x14,4(x15)
    1190:	00c6e6b3          	or	x13,x13,x12
    1194:	18d7a623          	sw	x13,396(x15)
    1198:	010787b3          	add	x15,x15,x16
    119c:	00b7a423          	sw	x11,8(x15)
    11a0:	00000513          	addi	x10,x0,0
    11a4:	00008067          	jalr	x0,0(x1)
    11a8:	fff00513          	addi	x10,x0,-1
    11ac:	00008067          	jalr	x0,0(x1)

000011b0 <__call_exitprocs>:
    11b0:	fd010113          	addi	x2,x2,-48
    11b4:	01412c23          	sw	x20,24(x2)
    11b8:	03212023          	sw	x18,32(x2)
    11bc:	f201a903          	lw	x18,-224(x3) # 13060 <__atexit>
    11c0:	02112623          	sw	x1,44(x2)
    11c4:	0a090863          	beq	x18,x0,1274 <__call_exitprocs+0xc4>
    11c8:	01312e23          	sw	x19,28(x2)
    11cc:	01512a23          	sw	x21,20(x2)
    11d0:	01612823          	sw	x22,16(x2)
    11d4:	01712623          	sw	x23,12(x2)
    11d8:	02812423          	sw	x8,40(x2)
    11dc:	02912223          	sw	x9,36(x2)
    11e0:	01812423          	sw	x24,8(x2)
    11e4:	00050b13          	addi	x22,x10,0
    11e8:	00058b93          	addi	x23,x11,0
    11ec:	fff00993          	addi	x19,x0,-1
    11f0:	00100a93          	addi	x21,x0,1
    11f4:	00492483          	lw	x9,4(x18)
    11f8:	fff48413          	addi	x8,x9,-1
    11fc:	04044e63          	blt	x8,x0,1258 <__call_exitprocs+0xa8>
    1200:	00249493          	slli	x9,x9,0x2
    1204:	009904b3          	add	x9,x18,x9
    1208:	080b9063          	bne	x23,x0,1288 <__call_exitprocs+0xd8>
    120c:	00492783          	lw	x15,4(x18)
    1210:	0044a683          	lw	x13,4(x9)
    1214:	fff78793          	addi	x15,x15,-1
    1218:	0a878c63          	beq	x15,x8,12d0 <__call_exitprocs+0x120>
    121c:	0004a223          	sw	x0,4(x9)
    1220:	02068663          	beq	x13,x0,124c <__call_exitprocs+0x9c>
    1224:	18892783          	lw	x15,392(x18)
    1228:	008a9733          	sll	x14,x21,x8
    122c:	00492c03          	lw	x24,4(x18)
    1230:	00f777b3          	and	x15,x14,x15
    1234:	06079663          	bne	x15,x0,12a0 <__call_exitprocs+0xf0>
    1238:	000680e7          	jalr	x1,0(x13)
    123c:	00492703          	lw	x14,4(x18)
    1240:	f201a783          	lw	x15,-224(x3) # 13060 <__atexit>
    1244:	09871063          	bne	x14,x24,12c4 <__call_exitprocs+0x114>
    1248:	07279e63          	bne	x15,x18,12c4 <__call_exitprocs+0x114>
    124c:	fff40413          	addi	x8,x8,-1
    1250:	ffc48493          	addi	x9,x9,-4
    1254:	fb341ae3          	bne	x8,x19,1208 <__call_exitprocs+0x58>
    1258:	02812403          	lw	x8,40(x2)
    125c:	02412483          	lw	x9,36(x2)
    1260:	01c12983          	lw	x19,28(x2)
    1264:	01412a83          	lw	x21,20(x2)
    1268:	01012b03          	lw	x22,16(x2)
    126c:	00c12b83          	lw	x23,12(x2)
    1270:	00812c03          	lw	x24,8(x2)
    1274:	02c12083          	lw	x1,44(x2)
    1278:	02012903          	lw	x18,32(x2)
    127c:	01812a03          	lw	x20,24(x2)
    1280:	03010113          	addi	x2,x2,48
    1284:	00008067          	jalr	x0,0(x1)
    1288:	1044a783          	lw	x15,260(x9)
    128c:	f97780e3          	beq	x15,x23,120c <__call_exitprocs+0x5c>
    1290:	fff40413          	addi	x8,x8,-1
    1294:	ffc48493          	addi	x9,x9,-4
    1298:	ff3418e3          	bne	x8,x19,1288 <__call_exitprocs+0xd8>
    129c:	fbdff06f          	jal	x0,1258 <__call_exitprocs+0xa8>
    12a0:	18c92783          	lw	x15,396(x18)
    12a4:	0844a583          	lw	x11,132(x9)
    12a8:	00f77733          	and	x14,x14,x15
    12ac:	02071663          	bne	x14,x0,12d8 <__call_exitprocs+0x128>
    12b0:	000b0513          	addi	x10,x22,0
    12b4:	000680e7          	jalr	x1,0(x13)
    12b8:	00492703          	lw	x14,4(x18)
    12bc:	f201a783          	lw	x15,-224(x3) # 13060 <__atexit>
    12c0:	f98704e3          	beq	x14,x24,1248 <__call_exitprocs+0x98>
    12c4:	f8078ae3          	beq	x15,x0,1258 <__call_exitprocs+0xa8>
    12c8:	00078913          	addi	x18,x15,0
    12cc:	f29ff06f          	jal	x0,11f4 <__call_exitprocs+0x44>
    12d0:	00892223          	sw	x8,4(x18)
    12d4:	f4dff06f          	jal	x0,1220 <__call_exitprocs+0x70>
    12d8:	00058513          	addi	x10,x11,0
    12dc:	000680e7          	jalr	x1,0(x13)
    12e0:	f5dff06f          	jal	x0,123c <__call_exitprocs+0x8c>

000012e4 <_malloc_trim_r>:
    12e4:	fe010113          	addi	x2,x2,-32
    12e8:	01312623          	sw	x19,12(x2)
    12ec:	000139b7          	lui	x19,0x13
    12f0:	00812c23          	sw	x8,24(x2)
    12f4:	00912a23          	sw	x9,20(x2)
    12f8:	01212823          	sw	x18,16(x2)
    12fc:	01412423          	sw	x20,8(x2)
    1300:	00112e23          	sw	x1,28(x2)
    1304:	00058a13          	addi	x20,x11,0
    1308:	00050913          	addi	x18,x10,0
    130c:	a7098993          	addi	x19,x19,-1424 # 12a70 <__malloc_av_>
    1310:	3cd000ef          	jal	x1,1edc <__malloc_lock>
    1314:	0089a703          	lw	x14,8(x19)
    1318:	000017b7          	lui	x15,0x1
    131c:	fef78793          	addi	x15,x15,-17 # fef <memset+0x3f>
    1320:	00472483          	lw	x9,4(x14)
    1324:	00001737          	lui	x14,0x1
    1328:	ffc4f493          	andi	x9,x9,-4
    132c:	00f48433          	add	x8,x9,x15
    1330:	41440433          	sub	x8,x8,x20
    1334:	00c45413          	srli	x8,x8,0xc
    1338:	fff40413          	addi	x8,x8,-1
    133c:	00c41413          	slli	x8,x8,0xc
    1340:	00e44e63          	blt	x8,x14,135c <_malloc_trim_r+0x78>
    1344:	00000593          	addi	x11,x0,0
    1348:	00090513          	addi	x10,x18,0
    134c:	3a1050ef          	jal	x1,6eec <_sbrk_r>
    1350:	0089a783          	lw	x15,8(x19)
    1354:	009787b3          	add	x15,x15,x9
    1358:	02f50863          	beq	x10,x15,1388 <_malloc_trim_r+0xa4>
    135c:	00090513          	addi	x10,x18,0
    1360:	381000ef          	jal	x1,1ee0 <__malloc_unlock>
    1364:	01c12083          	lw	x1,28(x2)
    1368:	01812403          	lw	x8,24(x2)
    136c:	01412483          	lw	x9,20(x2)
    1370:	01012903          	lw	x18,16(x2)
    1374:	00c12983          	lw	x19,12(x2)
    1378:	00812a03          	lw	x20,8(x2)
    137c:	00000513          	addi	x10,x0,0
    1380:	02010113          	addi	x2,x2,32
    1384:	00008067          	jalr	x0,0(x1)
    1388:	408005b3          	sub	x11,x0,x8
    138c:	00090513          	addi	x10,x18,0
    1390:	35d050ef          	jal	x1,6eec <_sbrk_r>
    1394:	fff00793          	addi	x15,x0,-1
    1398:	04f50863          	beq	x10,x15,13e8 <_malloc_trim_r+0x104>
    139c:	1fc18793          	addi	x15,x3,508 # 1333c <__malloc_current_mallinfo>
    13a0:	0007a703          	lw	x14,0(x15)
    13a4:	0089a683          	lw	x13,8(x19)
    13a8:	408484b3          	sub	x9,x9,x8
    13ac:	0014e493          	ori	x9,x9,1
    13b0:	40870733          	sub	x14,x14,x8
    13b4:	00090513          	addi	x10,x18,0
    13b8:	0096a223          	sw	x9,4(x13)
    13bc:	00e7a023          	sw	x14,0(x15)
    13c0:	321000ef          	jal	x1,1ee0 <__malloc_unlock>
    13c4:	01c12083          	lw	x1,28(x2)
    13c8:	01812403          	lw	x8,24(x2)
    13cc:	01412483          	lw	x9,20(x2)
    13d0:	01012903          	lw	x18,16(x2)
    13d4:	00c12983          	lw	x19,12(x2)
    13d8:	00812a03          	lw	x20,8(x2)
    13dc:	00100513          	addi	x10,x0,1
    13e0:	02010113          	addi	x2,x2,32
    13e4:	00008067          	jalr	x0,0(x1)
    13e8:	00000593          	addi	x11,x0,0
    13ec:	00090513          	addi	x10,x18,0
    13f0:	2fd050ef          	jal	x1,6eec <_sbrk_r>
    13f4:	0089a703          	lw	x14,8(x19)
    13f8:	00f00693          	addi	x13,x0,15
    13fc:	40e507b3          	sub	x15,x10,x14
    1400:	f4f6dee3          	bge	x13,x15,135c <_malloc_trim_r+0x78>
    1404:	f101a683          	lw	x13,-240(x3) # 13050 <__malloc_sbrk_base>
    1408:	0017e793          	ori	x15,x15,1
    140c:	00f72223          	sw	x15,4(x14) # 1004 <memset+0x54>
    1410:	40d50533          	sub	x10,x10,x13
    1414:	1ea1ae23          	sw	x10,508(x3) # 1333c <__malloc_current_mallinfo>
    1418:	f45ff06f          	jal	x0,135c <_malloc_trim_r+0x78>

0000141c <_free_r>:
    141c:	18058263          	beq	x11,x0,15a0 <_free_r+0x184>
    1420:	ff010113          	addi	x2,x2,-16
    1424:	00812423          	sw	x8,8(x2)
    1428:	00912223          	sw	x9,4(x2)
    142c:	00058413          	addi	x8,x11,0
    1430:	00050493          	addi	x9,x10,0
    1434:	00112623          	sw	x1,12(x2)
    1438:	2a5000ef          	jal	x1,1edc <__malloc_lock>
    143c:	ffc42503          	lw	x10,-4(x8)
    1440:	ff840713          	addi	x14,x8,-8
    1444:	000135b7          	lui	x11,0x13
    1448:	ffe57793          	andi	x15,x10,-2
    144c:	00f70633          	add	x12,x14,x15
    1450:	a7058593          	addi	x11,x11,-1424 # 12a70 <__malloc_av_>
    1454:	00462683          	lw	x13,4(x12)
    1458:	0085a803          	lw	x16,8(x11)
    145c:	ffc6f693          	andi	x13,x13,-4
    1460:	1ac80263          	beq	x16,x12,1604 <_free_r+0x1e8>
    1464:	00d62223          	sw	x13,4(x12)
    1468:	00157513          	andi	x10,x10,1
    146c:	00d60833          	add	x16,x12,x13
    1470:	0a051063          	bne	x10,x0,1510 <_free_r+0xf4>
    1474:	ff842303          	lw	x6,-8(x8)
    1478:	00482803          	lw	x16,4(x16)
    147c:	00013537          	lui	x10,0x13
    1480:	40670733          	sub	x14,x14,x6
    1484:	00872883          	lw	x17,8(x14)
    1488:	a7850513          	addi	x10,x10,-1416 # 12a78 <__malloc_av_+0x8>
    148c:	006787b3          	add	x15,x15,x6
    1490:	00187813          	andi	x16,x16,1
    1494:	14a88263          	beq	x17,x10,15d8 <_free_r+0x1bc>
    1498:	00c72303          	lw	x6,12(x14)
    149c:	0068a623          	sw	x6,12(x17)
    14a0:	01132423          	sw	x17,8(x6)
    14a4:	1a080663          	beq	x16,x0,1650 <_free_r+0x234>
    14a8:	0017e693          	ori	x13,x15,1
    14ac:	00d72223          	sw	x13,4(x14)
    14b0:	00f62023          	sw	x15,0(x12)
    14b4:	1ff00693          	addi	x13,x0,511
    14b8:	06f6ec63          	bltu	x13,x15,1530 <_free_r+0x114>
    14bc:	ff87f693          	andi	x13,x15,-8
    14c0:	00868693          	addi	x13,x13,8
    14c4:	0045a503          	lw	x10,4(x11)
    14c8:	00d586b3          	add	x13,x11,x13
    14cc:	0006a603          	lw	x12,0(x13)
    14d0:	0057d813          	srli	x16,x15,0x5
    14d4:	00100793          	addi	x15,x0,1
    14d8:	010797b3          	sll	x15,x15,x16
    14dc:	00a7e7b3          	or	x15,x15,x10
    14e0:	ff868513          	addi	x10,x13,-8
    14e4:	00a72623          	sw	x10,12(x14)
    14e8:	00c72423          	sw	x12,8(x14)
    14ec:	00f5a223          	sw	x15,4(x11)
    14f0:	00e6a023          	sw	x14,0(x13)
    14f4:	00e62623          	sw	x14,12(x12)
    14f8:	00812403          	lw	x8,8(x2)
    14fc:	00c12083          	lw	x1,12(x2)
    1500:	00048513          	addi	x10,x9,0
    1504:	00412483          	lw	x9,4(x2)
    1508:	01010113          	addi	x2,x2,16
    150c:	1d50006f          	jal	x0,1ee0 <__malloc_unlock>
    1510:	00482503          	lw	x10,4(x16)
    1514:	00157513          	andi	x10,x10,1
    1518:	08050663          	beq	x10,x0,15a4 <_free_r+0x188>
    151c:	0017e693          	ori	x13,x15,1
    1520:	fed42e23          	sw	x13,-4(x8)
    1524:	00f62023          	sw	x15,0(x12)
    1528:	1ff00693          	addi	x13,x0,511
    152c:	f8f6f8e3          	bgeu	x13,x15,14bc <_free_r+0xa0>
    1530:	0097d693          	srli	x13,x15,0x9
    1534:	00400613          	addi	x12,x0,4
    1538:	12d66063          	bltu	x12,x13,1658 <_free_r+0x23c>
    153c:	0067d693          	srli	x13,x15,0x6
    1540:	03968513          	addi	x10,x13,57
    1544:	03868613          	addi	x12,x13,56
    1548:	00351513          	slli	x10,x10,0x3
    154c:	00a58533          	add	x10,x11,x10
    1550:	00052683          	lw	x13,0(x10)
    1554:	ff850513          	addi	x10,x10,-8
    1558:	00d51863          	bne	x10,x13,1568 <_free_r+0x14c>
    155c:	1540006f          	jal	x0,16b0 <_free_r+0x294>
    1560:	0086a683          	lw	x13,8(x13)
    1564:	00d50863          	beq	x10,x13,1574 <_free_r+0x158>
    1568:	0046a603          	lw	x12,4(x13)
    156c:	ffc67613          	andi	x12,x12,-4
    1570:	fec7e8e3          	bltu	x15,x12,1560 <_free_r+0x144>
    1574:	00c6a503          	lw	x10,12(x13)
    1578:	00a72623          	sw	x10,12(x14)
    157c:	00d72423          	sw	x13,8(x14)
    1580:	00812403          	lw	x8,8(x2)
    1584:	00e52423          	sw	x14,8(x10)
    1588:	00c12083          	lw	x1,12(x2)
    158c:	00048513          	addi	x10,x9,0
    1590:	00412483          	lw	x9,4(x2)
    1594:	00e6a623          	sw	x14,12(x13)
    1598:	01010113          	addi	x2,x2,16
    159c:	1450006f          	jal	x0,1ee0 <__malloc_unlock>
    15a0:	00008067          	jalr	x0,0(x1)
    15a4:	00013537          	lui	x10,0x13
    15a8:	00d787b3          	add	x15,x15,x13
    15ac:	a7850513          	addi	x10,x10,-1416 # 12a78 <__malloc_av_+0x8>
    15b0:	00862683          	lw	x13,8(x12)
    15b4:	0ca68c63          	beq	x13,x10,168c <_free_r+0x270>
    15b8:	00c62803          	lw	x16,12(x12)
    15bc:	0017e513          	ori	x10,x15,1
    15c0:	00f70633          	add	x12,x14,x15
    15c4:	0106a623          	sw	x16,12(x13)
    15c8:	00d82423          	sw	x13,8(x16)
    15cc:	00a72223          	sw	x10,4(x14)
    15d0:	00f62023          	sw	x15,0(x12)
    15d4:	ee1ff06f          	jal	x0,14b4 <_free_r+0x98>
    15d8:	12081c63          	bne	x16,x0,1710 <_free_r+0x2f4>
    15dc:	00862583          	lw	x11,8(x12)
    15e0:	00c62603          	lw	x12,12(x12)
    15e4:	00f686b3          	add	x13,x13,x15
    15e8:	0016e793          	ori	x15,x13,1
    15ec:	00c5a623          	sw	x12,12(x11)
    15f0:	00b62423          	sw	x11,8(x12)
    15f4:	00f72223          	sw	x15,4(x14)
    15f8:	00d70733          	add	x14,x14,x13
    15fc:	00d72023          	sw	x13,0(x14)
    1600:	ef9ff06f          	jal	x0,14f8 <_free_r+0xdc>
    1604:	00157513          	andi	x10,x10,1
    1608:	00d786b3          	add	x13,x15,x13
    160c:	02051063          	bne	x10,x0,162c <_free_r+0x210>
    1610:	ff842503          	lw	x10,-8(x8)
    1614:	40a70733          	sub	x14,x14,x10
    1618:	00c72783          	lw	x15,12(x14)
    161c:	00872603          	lw	x12,8(x14)
    1620:	00a686b3          	add	x13,x13,x10
    1624:	00f62623          	sw	x15,12(x12)
    1628:	00c7a423          	sw	x12,8(x15)
    162c:	0016e613          	ori	x12,x13,1
    1630:	f141a783          	lw	x15,-236(x3) # 13054 <__malloc_trim_threshold>
    1634:	00c72223          	sw	x12,4(x14)
    1638:	00e5a423          	sw	x14,8(x11)
    163c:	eaf6eee3          	bltu	x13,x15,14f8 <_free_r+0xdc>
    1640:	f2c1a583          	lw	x11,-212(x3) # 1306c <__malloc_top_pad>
    1644:	00048513          	addi	x10,x9,0
    1648:	c9dff0ef          	jal	x1,12e4 <_malloc_trim_r>
    164c:	eadff06f          	jal	x0,14f8 <_free_r+0xdc>
    1650:	00d787b3          	add	x15,x15,x13
    1654:	f5dff06f          	jal	x0,15b0 <_free_r+0x194>
    1658:	01400613          	addi	x12,x0,20
    165c:	02d67063          	bgeu	x12,x13,167c <_free_r+0x260>
    1660:	05400613          	addi	x12,x0,84
    1664:	06d66463          	bltu	x12,x13,16cc <_free_r+0x2b0>
    1668:	00c7d693          	srli	x13,x15,0xc
    166c:	06f68513          	addi	x10,x13,111
    1670:	06e68613          	addi	x12,x13,110
    1674:	00351513          	slli	x10,x10,0x3
    1678:	ed5ff06f          	jal	x0,154c <_free_r+0x130>
    167c:	05c68513          	addi	x10,x13,92
    1680:	05b68613          	addi	x12,x13,91
    1684:	00351513          	slli	x10,x10,0x3
    1688:	ec5ff06f          	jal	x0,154c <_free_r+0x130>
    168c:	00e5aa23          	sw	x14,20(x11)
    1690:	00e5a823          	sw	x14,16(x11)
    1694:	0017e693          	ori	x13,x15,1
    1698:	00a72623          	sw	x10,12(x14)
    169c:	00a72423          	sw	x10,8(x14)
    16a0:	00d72223          	sw	x13,4(x14)
    16a4:	00f70733          	add	x14,x14,x15
    16a8:	00f72023          	sw	x15,0(x14)
    16ac:	e4dff06f          	jal	x0,14f8 <_free_r+0xdc>
    16b0:	0045a803          	lw	x16,4(x11)
    16b4:	40265613          	srai	x12,x12,0x2
    16b8:	00100793          	addi	x15,x0,1
    16bc:	00c797b3          	sll	x15,x15,x12
    16c0:	0107e7b3          	or	x15,x15,x16
    16c4:	00f5a223          	sw	x15,4(x11)
    16c8:	eb1ff06f          	jal	x0,1578 <_free_r+0x15c>
    16cc:	15400613          	addi	x12,x0,340
    16d0:	00d66c63          	bltu	x12,x13,16e8 <_free_r+0x2cc>
    16d4:	00f7d693          	srli	x13,x15,0xf
    16d8:	07868513          	addi	x10,x13,120
    16dc:	07768613          	addi	x12,x13,119
    16e0:	00351513          	slli	x10,x10,0x3
    16e4:	e69ff06f          	jal	x0,154c <_free_r+0x130>
    16e8:	55400613          	addi	x12,x0,1364
    16ec:	00d66c63          	bltu	x12,x13,1704 <_free_r+0x2e8>
    16f0:	0127d693          	srli	x13,x15,0x12
    16f4:	07d68513          	addi	x10,x13,125
    16f8:	07c68613          	addi	x12,x13,124
    16fc:	00351513          	slli	x10,x10,0x3
    1700:	e4dff06f          	jal	x0,154c <_free_r+0x130>
    1704:	3f800513          	addi	x10,x0,1016
    1708:	07e00613          	addi	x12,x0,126
    170c:	e41ff06f          	jal	x0,154c <_free_r+0x130>
    1710:	0017e693          	ori	x13,x15,1
    1714:	00d72223          	sw	x13,4(x14)
    1718:	00f62023          	sw	x15,0(x12)
    171c:	dddff06f          	jal	x0,14f8 <_free_r+0xdc>

00001720 <_malloc_r>:
    1720:	fd010113          	addi	x2,x2,-48
    1724:	01312e23          	sw	x19,28(x2)
    1728:	02112623          	sw	x1,44(x2)
    172c:	02812423          	sw	x8,40(x2)
    1730:	02912223          	sw	x9,36(x2)
    1734:	03212023          	sw	x18,32(x2)
    1738:	00b58793          	addi	x15,x11,11
    173c:	01600713          	addi	x14,x0,22
    1740:	00050993          	addi	x19,x10,0
    1744:	08f76263          	bltu	x14,x15,17c8 <_malloc_r+0xa8>
    1748:	01000793          	addi	x15,x0,16
    174c:	20b7e663          	bltu	x15,x11,1958 <_malloc_r+0x238>
    1750:	78c000ef          	jal	x1,1edc <__malloc_lock>
    1754:	01800793          	addi	x15,x0,24
    1758:	00200593          	addi	x11,x0,2
    175c:	01000493          	addi	x9,x0,16
    1760:	00013937          	lui	x18,0x13
    1764:	a7090913          	addi	x18,x18,-1424 # 12a70 <__malloc_av_>
    1768:	00f907b3          	add	x15,x18,x15
    176c:	0047a403          	lw	x8,4(x15)
    1770:	ff878713          	addi	x14,x15,-8
    1774:	34e40463          	beq	x8,x14,1abc <_malloc_r+0x39c>
    1778:	00442783          	lw	x15,4(x8)
    177c:	00c42683          	lw	x13,12(x8)
    1780:	00842603          	lw	x12,8(x8)
    1784:	ffc7f793          	andi	x15,x15,-4
    1788:	00f407b3          	add	x15,x8,x15
    178c:	0047a703          	lw	x14,4(x15)
    1790:	00d62623          	sw	x13,12(x12)
    1794:	00c6a423          	sw	x12,8(x13)
    1798:	00176713          	ori	x14,x14,1
    179c:	00098513          	addi	x10,x19,0
    17a0:	00e7a223          	sw	x14,4(x15)
    17a4:	73c000ef          	jal	x1,1ee0 <__malloc_unlock>
    17a8:	00840513          	addi	x10,x8,8
    17ac:	02c12083          	lw	x1,44(x2)
    17b0:	02812403          	lw	x8,40(x2)
    17b4:	02412483          	lw	x9,36(x2)
    17b8:	02012903          	lw	x18,32(x2)
    17bc:	01c12983          	lw	x19,28(x2)
    17c0:	03010113          	addi	x2,x2,48
    17c4:	00008067          	jalr	x0,0(x1)
    17c8:	ff87f493          	andi	x9,x15,-8
    17cc:	1807c663          	blt	x15,x0,1958 <_malloc_r+0x238>
    17d0:	18b4e463          	bltu	x9,x11,1958 <_malloc_r+0x238>
    17d4:	708000ef          	jal	x1,1edc <__malloc_lock>
    17d8:	1f700793          	addi	x15,x0,503
    17dc:	3e97fa63          	bgeu	x15,x9,1bd0 <_malloc_r+0x4b0>
    17e0:	0094d793          	srli	x15,x9,0x9
    17e4:	18078263          	beq	x15,x0,1968 <_malloc_r+0x248>
    17e8:	00400713          	addi	x14,x0,4
    17ec:	34f76063          	bltu	x14,x15,1b2c <_malloc_r+0x40c>
    17f0:	0064d793          	srli	x15,x9,0x6
    17f4:	03978593          	addi	x11,x15,57
    17f8:	03878813          	addi	x16,x15,56
    17fc:	00359613          	slli	x12,x11,0x3
    1800:	00013937          	lui	x18,0x13
    1804:	a7090913          	addi	x18,x18,-1424 # 12a70 <__malloc_av_>
    1808:	00c90633          	add	x12,x18,x12
    180c:	00462403          	lw	x8,4(x12)
    1810:	ff860613          	addi	x12,x12,-8
    1814:	02860863          	beq	x12,x8,1844 <_malloc_r+0x124>
    1818:	00f00513          	addi	x10,x0,15
    181c:	0140006f          	jal	x0,1830 <_malloc_r+0x110>
    1820:	00c42683          	lw	x13,12(x8)
    1824:	28075863          	bge	x14,x0,1ab4 <_malloc_r+0x394>
    1828:	00d60e63          	beq	x12,x13,1844 <_malloc_r+0x124>
    182c:	00068413          	addi	x8,x13,0
    1830:	00442783          	lw	x15,4(x8)
    1834:	ffc7f793          	andi	x15,x15,-4
    1838:	40978733          	sub	x14,x15,x9
    183c:	fee552e3          	bge	x10,x14,1820 <_malloc_r+0x100>
    1840:	00080593          	addi	x11,x16,0
    1844:	01092403          	lw	x8,16(x18)
    1848:	00013837          	lui	x16,0x13
    184c:	a7880813          	addi	x16,x16,-1416 # 12a78 <__malloc_av_+0x8>
    1850:	25040e63          	beq	x8,x16,1aac <_malloc_r+0x38c>
    1854:	00442783          	lw	x15,4(x8)
    1858:	00f00693          	addi	x13,x0,15
    185c:	ffc7f793          	andi	x15,x15,-4
    1860:	40978733          	sub	x14,x15,x9
    1864:	36e6cc63          	blt	x13,x14,1bdc <_malloc_r+0x4bc>
    1868:	01092a23          	sw	x16,20(x18)
    186c:	01092823          	sw	x16,16(x18)
    1870:	34075063          	bge	x14,x0,1bb0 <_malloc_r+0x490>
    1874:	1ff00713          	addi	x14,x0,511
    1878:	00492503          	lw	x10,4(x18)
    187c:	24f76863          	bltu	x14,x15,1acc <_malloc_r+0x3ac>
    1880:	ff87f713          	andi	x14,x15,-8
    1884:	00870713          	addi	x14,x14,8
    1888:	00e90733          	add	x14,x18,x14
    188c:	00072683          	lw	x13,0(x14)
    1890:	0057d613          	srli	x12,x15,0x5
    1894:	00100793          	addi	x15,x0,1
    1898:	00c797b3          	sll	x15,x15,x12
    189c:	00f56533          	or	x10,x10,x15
    18a0:	ff870793          	addi	x15,x14,-8
    18a4:	00f42623          	sw	x15,12(x8)
    18a8:	00d42423          	sw	x13,8(x8)
    18ac:	00a92223          	sw	x10,4(x18)
    18b0:	00872023          	sw	x8,0(x14)
    18b4:	0086a623          	sw	x8,12(x13)
    18b8:	4025d793          	srai	x15,x11,0x2
    18bc:	00100613          	addi	x12,x0,1
    18c0:	00f61633          	sll	x12,x12,x15
    18c4:	0ac56a63          	bltu	x10,x12,1978 <_malloc_r+0x258>
    18c8:	00a677b3          	and	x15,x12,x10
    18cc:	02079463          	bne	x15,x0,18f4 <_malloc_r+0x1d4>
    18d0:	00161613          	slli	x12,x12,0x1
    18d4:	ffc5f593          	andi	x11,x11,-4
    18d8:	00a677b3          	and	x15,x12,x10
    18dc:	00458593          	addi	x11,x11,4
    18e0:	00079a63          	bne	x15,x0,18f4 <_malloc_r+0x1d4>
    18e4:	00161613          	slli	x12,x12,0x1
    18e8:	00a677b3          	and	x15,x12,x10
    18ec:	00458593          	addi	x11,x11,4
    18f0:	fe078ae3          	beq	x15,x0,18e4 <_malloc_r+0x1c4>
    18f4:	00f00893          	addi	x17,x0,15
    18f8:	00359313          	slli	x6,x11,0x3
    18fc:	00690333          	add	x6,x18,x6
    1900:	00030513          	addi	x10,x6,0
    1904:	00c52783          	lw	x15,12(x10)
    1908:	00058e13          	addi	x28,x11,0
    190c:	24f50263          	beq	x10,x15,1b50 <_malloc_r+0x430>
    1910:	0047a703          	lw	x14,4(x15)
    1914:	00078413          	addi	x8,x15,0
    1918:	00c7a783          	lw	x15,12(x15)
    191c:	ffc77713          	andi	x14,x14,-4
    1920:	409706b3          	sub	x13,x14,x9
    1924:	24d8c263          	blt	x17,x13,1b68 <_malloc_r+0x448>
    1928:	fe06c2e3          	blt	x13,x0,190c <_malloc_r+0x1ec>
    192c:	00e40733          	add	x14,x8,x14
    1930:	00472683          	lw	x13,4(x14)
    1934:	00842603          	lw	x12,8(x8)
    1938:	00098513          	addi	x10,x19,0
    193c:	0016e693          	ori	x13,x13,1
    1940:	00d72223          	sw	x13,4(x14)
    1944:	00f62623          	sw	x15,12(x12)
    1948:	00c7a423          	sw	x12,8(x15)
    194c:	594000ef          	jal	x1,1ee0 <__malloc_unlock>
    1950:	00840513          	addi	x10,x8,8
    1954:	e59ff06f          	jal	x0,17ac <_malloc_r+0x8c>
    1958:	00c00793          	addi	x15,x0,12
    195c:	00f9a023          	sw	x15,0(x19)
    1960:	00000513          	addi	x10,x0,0
    1964:	e49ff06f          	jal	x0,17ac <_malloc_r+0x8c>
    1968:	20000613          	addi	x12,x0,512
    196c:	04000593          	addi	x11,x0,64
    1970:	03f00813          	addi	x16,x0,63
    1974:	e8dff06f          	jal	x0,1800 <_malloc_r+0xe0>
    1978:	00892403          	lw	x8,8(x18)
    197c:	01612823          	sw	x22,16(x2)
    1980:	00442783          	lw	x15,4(x8)
    1984:	ffc7fb13          	andi	x22,x15,-4
    1988:	009b6863          	bltu	x22,x9,1998 <_malloc_r+0x278>
    198c:	409b0733          	sub	x14,x22,x9
    1990:	00f00793          	addi	x15,x0,15
    1994:	0ce7ca63          	blt	x15,x14,1a68 <_malloc_r+0x348>
    1998:	01912223          	sw	x25,4(x2)
    199c:	01512a23          	sw	x21,20(x2)
    19a0:	f101a703          	lw	x14,-240(x3) # 13050 <__malloc_sbrk_base>
    19a4:	f2c1aa83          	lw	x21,-212(x3) # 1306c <__malloc_top_pad>
    19a8:	01412c23          	sw	x20,24(x2)
    19ac:	01712623          	sw	x23,12(x2)
    19b0:	fff00793          	addi	x15,x0,-1
    19b4:	01640a33          	add	x20,x8,x22
    19b8:	01548ab3          	add	x21,x9,x21
    19bc:	3cf70663          	beq	x14,x15,1d88 <_malloc_r+0x668>
    19c0:	000017b7          	lui	x15,0x1
    19c4:	00f78793          	addi	x15,x15,15 # 100f <memset+0x5f>
    19c8:	00fa8ab3          	add	x21,x21,x15
    19cc:	fffff7b7          	lui	x15,0xfffff
    19d0:	00fafab3          	and	x21,x21,x15
    19d4:	000a8593          	addi	x11,x21,0
    19d8:	00098513          	addi	x10,x19,0
    19dc:	510050ef          	jal	x1,6eec <_sbrk_r>
    19e0:	fff00793          	addi	x15,x0,-1
    19e4:	00050b93          	addi	x23,x10,0
    19e8:	44f50a63          	beq	x10,x15,1e3c <_malloc_r+0x71c>
    19ec:	01812423          	sw	x24,8(x2)
    19f0:	23456e63          	bltu	x10,x20,1c2c <_malloc_r+0x50c>
    19f4:	1fc18c13          	addi	x24,x3,508 # 1333c <__malloc_current_mallinfo>
    19f8:	000c2583          	lw	x11,0(x24)
    19fc:	00ba85b3          	add	x11,x21,x11
    1a00:	00bc2023          	sw	x11,0(x24)
    1a04:	00058713          	addi	x14,x11,0
    1a08:	2aaa1663          	bne	x20,x10,1cb4 <_malloc_r+0x594>
    1a0c:	01451793          	slli	x15,x10,0x14
    1a10:	2a079263          	bne	x15,x0,1cb4 <_malloc_r+0x594>
    1a14:	00892b83          	lw	x23,8(x18)
    1a18:	015b07b3          	add	x15,x22,x21
    1a1c:	0017e793          	ori	x15,x15,1
    1a20:	00fba223          	sw	x15,4(x23)
    1a24:	f281a683          	lw	x13,-216(x3) # 13068 <__malloc_max_sbrked_mem>
    1a28:	00b6f463          	bgeu	x13,x11,1a30 <_malloc_r+0x310>
    1a2c:	f2b1a423          	sw	x11,-216(x3) # 13068 <__malloc_max_sbrked_mem>
    1a30:	f241a683          	lw	x13,-220(x3) # 13064 <__malloc_max_total_mem>
    1a34:	00b6f463          	bgeu	x13,x11,1a3c <_malloc_r+0x31c>
    1a38:	f2b1a223          	sw	x11,-220(x3) # 13064 <__malloc_max_total_mem>
    1a3c:	00812c03          	lw	x24,8(x2)
    1a40:	000b8413          	addi	x8,x23,0
    1a44:	ffc7f793          	andi	x15,x15,-4
    1a48:	40978733          	sub	x14,x15,x9
    1a4c:	3897ea63          	bltu	x15,x9,1de0 <_malloc_r+0x6c0>
    1a50:	00f00793          	addi	x15,x0,15
    1a54:	38e7d663          	bge	x15,x14,1de0 <_malloc_r+0x6c0>
    1a58:	01812a03          	lw	x20,24(x2)
    1a5c:	01412a83          	lw	x21,20(x2)
    1a60:	00c12b83          	lw	x23,12(x2)
    1a64:	00412c83          	lw	x25,4(x2)
    1a68:	0014e793          	ori	x15,x9,1
    1a6c:	00f42223          	sw	x15,4(x8)
    1a70:	009404b3          	add	x9,x8,x9
    1a74:	00992423          	sw	x9,8(x18)
    1a78:	00176713          	ori	x14,x14,1
    1a7c:	00098513          	addi	x10,x19,0
    1a80:	00e4a223          	sw	x14,4(x9)
    1a84:	45c000ef          	jal	x1,1ee0 <__malloc_unlock>
    1a88:	02c12083          	lw	x1,44(x2)
    1a8c:	00840513          	addi	x10,x8,8
    1a90:	02812403          	lw	x8,40(x2)
    1a94:	01012b03          	lw	x22,16(x2)
    1a98:	02412483          	lw	x9,36(x2)
    1a9c:	02012903          	lw	x18,32(x2)
    1aa0:	01c12983          	lw	x19,28(x2)
    1aa4:	03010113          	addi	x2,x2,48
    1aa8:	00008067          	jalr	x0,0(x1)
    1aac:	00492503          	lw	x10,4(x18)
    1ab0:	e09ff06f          	jal	x0,18b8 <_malloc_r+0x198>
    1ab4:	00842603          	lw	x12,8(x8)
    1ab8:	cd1ff06f          	jal	x0,1788 <_malloc_r+0x68>
    1abc:	00c7a403          	lw	x8,12(x15) # fffff00c <__heap_end+0xffbff00c>
    1ac0:	00258593          	addi	x11,x11,2
    1ac4:	d88780e3          	beq	x15,x8,1844 <_malloc_r+0x124>
    1ac8:	cb1ff06f          	jal	x0,1778 <_malloc_r+0x58>
    1acc:	0097d713          	srli	x14,x15,0x9
    1ad0:	00400693          	addi	x13,x0,4
    1ad4:	14e6f263          	bgeu	x13,x14,1c18 <_malloc_r+0x4f8>
    1ad8:	01400693          	addi	x13,x0,20
    1adc:	32e6e463          	bltu	x13,x14,1e04 <_malloc_r+0x6e4>
    1ae0:	05c70613          	addi	x12,x14,92
    1ae4:	05b70693          	addi	x13,x14,91
    1ae8:	00361613          	slli	x12,x12,0x3
    1aec:	00c90633          	add	x12,x18,x12
    1af0:	00062703          	lw	x14,0(x12)
    1af4:	ff860613          	addi	x12,x12,-8
    1af8:	00e61863          	bne	x12,x14,1b08 <_malloc_r+0x3e8>
    1afc:	2940006f          	jal	x0,1d90 <_malloc_r+0x670>
    1b00:	00872703          	lw	x14,8(x14)
    1b04:	00e60863          	beq	x12,x14,1b14 <_malloc_r+0x3f4>
    1b08:	00472683          	lw	x13,4(x14)
    1b0c:	ffc6f693          	andi	x13,x13,-4
    1b10:	fed7e8e3          	bltu	x15,x13,1b00 <_malloc_r+0x3e0>
    1b14:	00c72603          	lw	x12,12(x14)
    1b18:	00c42623          	sw	x12,12(x8)
    1b1c:	00e42423          	sw	x14,8(x8)
    1b20:	00862423          	sw	x8,8(x12)
    1b24:	00872623          	sw	x8,12(x14)
    1b28:	d91ff06f          	jal	x0,18b8 <_malloc_r+0x198>
    1b2c:	01400713          	addi	x14,x0,20
    1b30:	10f77863          	bgeu	x14,x15,1c40 <_malloc_r+0x520>
    1b34:	05400713          	addi	x14,x0,84
    1b38:	2ef76463          	bltu	x14,x15,1e20 <_malloc_r+0x700>
    1b3c:	00c4d793          	srli	x15,x9,0xc
    1b40:	06f78593          	addi	x11,x15,111
    1b44:	06e78813          	addi	x16,x15,110
    1b48:	00359613          	slli	x12,x11,0x3
    1b4c:	cb5ff06f          	jal	x0,1800 <_malloc_r+0xe0>
    1b50:	001e0e13          	addi	x28,x28,1
    1b54:	003e7793          	andi	x15,x28,3
    1b58:	00850513          	addi	x10,x10,8
    1b5c:	10078063          	beq	x15,x0,1c5c <_malloc_r+0x53c>
    1b60:	00c52783          	lw	x15,12(x10)
    1b64:	da9ff06f          	jal	x0,190c <_malloc_r+0x1ec>
    1b68:	00842603          	lw	x12,8(x8)
    1b6c:	0014e593          	ori	x11,x9,1
    1b70:	00b42223          	sw	x11,4(x8)
    1b74:	00f62623          	sw	x15,12(x12)
    1b78:	00c7a423          	sw	x12,8(x15)
    1b7c:	009404b3          	add	x9,x8,x9
    1b80:	00992a23          	sw	x9,20(x18)
    1b84:	00992823          	sw	x9,16(x18)
    1b88:	0016e793          	ori	x15,x13,1
    1b8c:	0104a623          	sw	x16,12(x9)
    1b90:	0104a423          	sw	x16,8(x9)
    1b94:	00f4a223          	sw	x15,4(x9)
    1b98:	00e40733          	add	x14,x8,x14
    1b9c:	00098513          	addi	x10,x19,0
    1ba0:	00d72023          	sw	x13,0(x14)
    1ba4:	33c000ef          	jal	x1,1ee0 <__malloc_unlock>
    1ba8:	00840513          	addi	x10,x8,8
    1bac:	c01ff06f          	jal	x0,17ac <_malloc_r+0x8c>
    1bb0:	00f407b3          	add	x15,x8,x15
    1bb4:	0047a703          	lw	x14,4(x15)
    1bb8:	00098513          	addi	x10,x19,0
    1bbc:	00176713          	ori	x14,x14,1
    1bc0:	00e7a223          	sw	x14,4(x15)
    1bc4:	31c000ef          	jal	x1,1ee0 <__malloc_unlock>
    1bc8:	00840513          	addi	x10,x8,8
    1bcc:	be1ff06f          	jal	x0,17ac <_malloc_r+0x8c>
    1bd0:	0034d593          	srli	x11,x9,0x3
    1bd4:	00848793          	addi	x15,x9,8
    1bd8:	b89ff06f          	jal	x0,1760 <_malloc_r+0x40>
    1bdc:	0014e693          	ori	x13,x9,1
    1be0:	00d42223          	sw	x13,4(x8)
    1be4:	009404b3          	add	x9,x8,x9
    1be8:	00992a23          	sw	x9,20(x18)
    1bec:	00992823          	sw	x9,16(x18)
    1bf0:	00176693          	ori	x13,x14,1
    1bf4:	0104a623          	sw	x16,12(x9)
    1bf8:	0104a423          	sw	x16,8(x9)
    1bfc:	00d4a223          	sw	x13,4(x9)
    1c00:	00f407b3          	add	x15,x8,x15
    1c04:	00098513          	addi	x10,x19,0
    1c08:	00e7a023          	sw	x14,0(x15)
    1c0c:	2d4000ef          	jal	x1,1ee0 <__malloc_unlock>
    1c10:	00840513          	addi	x10,x8,8
    1c14:	b99ff06f          	jal	x0,17ac <_malloc_r+0x8c>
    1c18:	0067d713          	srli	x14,x15,0x6
    1c1c:	03970613          	addi	x12,x14,57
    1c20:	03870693          	addi	x13,x14,56
    1c24:	00361613          	slli	x12,x12,0x3
    1c28:	ec5ff06f          	jal	x0,1aec <_malloc_r+0x3cc>
    1c2c:	07240c63          	beq	x8,x18,1ca4 <_malloc_r+0x584>
    1c30:	00892403          	lw	x8,8(x18)
    1c34:	00812c03          	lw	x24,8(x2)
    1c38:	00442783          	lw	x15,4(x8)
    1c3c:	e09ff06f          	jal	x0,1a44 <_malloc_r+0x324>
    1c40:	05c78593          	addi	x11,x15,92
    1c44:	05b78813          	addi	x16,x15,91
    1c48:	00359613          	slli	x12,x11,0x3
    1c4c:	bb5ff06f          	jal	x0,1800 <_malloc_r+0xe0>
    1c50:	00832783          	lw	x15,8(x6)
    1c54:	fff58593          	addi	x11,x11,-1
    1c58:	26679e63          	bne	x15,x6,1ed4 <_malloc_r+0x7b4>
    1c5c:	0035f793          	andi	x15,x11,3
    1c60:	ff830313          	addi	x6,x6,-8
    1c64:	fe0796e3          	bne	x15,x0,1c50 <_malloc_r+0x530>
    1c68:	00492703          	lw	x14,4(x18)
    1c6c:	fff64793          	xori	x15,x12,-1
    1c70:	00e7f7b3          	and	x15,x15,x14
    1c74:	00f92223          	sw	x15,4(x18)
    1c78:	00161613          	slli	x12,x12,0x1
    1c7c:	cec7eee3          	bltu	x15,x12,1978 <_malloc_r+0x258>
    1c80:	ce060ce3          	beq	x12,x0,1978 <_malloc_r+0x258>
    1c84:	00f67733          	and	x14,x12,x15
    1c88:	00071a63          	bne	x14,x0,1c9c <_malloc_r+0x57c>
    1c8c:	00161613          	slli	x12,x12,0x1
    1c90:	00f67733          	and	x14,x12,x15
    1c94:	004e0e13          	addi	x28,x28,4
    1c98:	fe070ae3          	beq	x14,x0,1c8c <_malloc_r+0x56c>
    1c9c:	000e0593          	addi	x11,x28,0
    1ca0:	c59ff06f          	jal	x0,18f8 <_malloc_r+0x1d8>
    1ca4:	1fc18c13          	addi	x24,x3,508 # 1333c <__malloc_current_mallinfo>
    1ca8:	000c2703          	lw	x14,0(x24)
    1cac:	00ea8733          	add	x14,x21,x14
    1cb0:	00ec2023          	sw	x14,0(x24)
    1cb4:	f101a683          	lw	x13,-240(x3) # 13050 <__malloc_sbrk_base>
    1cb8:	fff00793          	addi	x15,x0,-1
    1cbc:	18f68663          	beq	x13,x15,1e48 <_malloc_r+0x728>
    1cc0:	414b87b3          	sub	x15,x23,x20
    1cc4:	00e787b3          	add	x15,x15,x14
    1cc8:	00fc2023          	sw	x15,0(x24)
    1ccc:	007bfc93          	andi	x25,x23,7
    1cd0:	0c0c8c63          	beq	x25,x0,1da8 <_malloc_r+0x688>
    1cd4:	419b8bb3          	sub	x23,x23,x25
    1cd8:	000017b7          	lui	x15,0x1
    1cdc:	00878793          	addi	x15,x15,8 # 1008 <memset+0x58>
    1ce0:	008b8b93          	addi	x23,x23,8
    1ce4:	419785b3          	sub	x11,x15,x25
    1ce8:	015b8ab3          	add	x21,x23,x21
    1cec:	415585b3          	sub	x11,x11,x21
    1cf0:	01459593          	slli	x11,x11,0x14
    1cf4:	0145da13          	srli	x20,x11,0x14
    1cf8:	000a0593          	addi	x11,x20,0
    1cfc:	00098513          	addi	x10,x19,0
    1d00:	1ec050ef          	jal	x1,6eec <_sbrk_r>
    1d04:	fff00793          	addi	x15,x0,-1
    1d08:	18f50063          	beq	x10,x15,1e88 <_malloc_r+0x768>
    1d0c:	41750533          	sub	x10,x10,x23
    1d10:	01450ab3          	add	x21,x10,x20
    1d14:	000c2703          	lw	x14,0(x24)
    1d18:	01792423          	sw	x23,8(x18)
    1d1c:	001ae793          	ori	x15,x21,1
    1d20:	00ea05b3          	add	x11,x20,x14
    1d24:	00bc2023          	sw	x11,0(x24)
    1d28:	00fba223          	sw	x15,4(x23)
    1d2c:	cf240ce3          	beq	x8,x18,1a24 <_malloc_r+0x304>
    1d30:	00f00693          	addi	x13,x0,15
    1d34:	0b66f063          	bgeu	x13,x22,1dd4 <_malloc_r+0x6b4>
    1d38:	00442703          	lw	x14,4(x8)
    1d3c:	ff4b0793          	addi	x15,x22,-12
    1d40:	ff87f793          	andi	x15,x15,-8
    1d44:	00177713          	andi	x14,x14,1
    1d48:	00f76733          	or	x14,x14,x15
    1d4c:	00e42223          	sw	x14,4(x8)
    1d50:	00500613          	addi	x12,x0,5
    1d54:	00f40733          	add	x14,x8,x15
    1d58:	00c72223          	sw	x12,4(x14)
    1d5c:	00c72423          	sw	x12,8(x14)
    1d60:	00f6e663          	bltu	x13,x15,1d6c <_malloc_r+0x64c>
    1d64:	004ba783          	lw	x15,4(x23)
    1d68:	cbdff06f          	jal	x0,1a24 <_malloc_r+0x304>
    1d6c:	00840593          	addi	x11,x8,8
    1d70:	00098513          	addi	x10,x19,0
    1d74:	ea8ff0ef          	jal	x1,141c <_free_r>
    1d78:	00892b83          	lw	x23,8(x18)
    1d7c:	000c2583          	lw	x11,0(x24)
    1d80:	004ba783          	lw	x15,4(x23)
    1d84:	ca1ff06f          	jal	x0,1a24 <_malloc_r+0x304>
    1d88:	010a8a93          	addi	x21,x21,16
    1d8c:	c49ff06f          	jal	x0,19d4 <_malloc_r+0x2b4>
    1d90:	4026d693          	srai	x13,x13,0x2
    1d94:	00100793          	addi	x15,x0,1
    1d98:	00d797b3          	sll	x15,x15,x13
    1d9c:	00f56533          	or	x10,x10,x15
    1da0:	00a92223          	sw	x10,4(x18)
    1da4:	d75ff06f          	jal	x0,1b18 <_malloc_r+0x3f8>
    1da8:	015b85b3          	add	x11,x23,x21
    1dac:	40b005b3          	sub	x11,x0,x11
    1db0:	01459593          	slli	x11,x11,0x14
    1db4:	0145da13          	srli	x20,x11,0x14
    1db8:	000a0593          	addi	x11,x20,0
    1dbc:	00098513          	addi	x10,x19,0
    1dc0:	12c050ef          	jal	x1,6eec <_sbrk_r>
    1dc4:	fff00793          	addi	x15,x0,-1
    1dc8:	f4f512e3          	bne	x10,x15,1d0c <_malloc_r+0x5ec>
    1dcc:	00000a13          	addi	x20,x0,0
    1dd0:	f45ff06f          	jal	x0,1d14 <_malloc_r+0x5f4>
    1dd4:	00812c03          	lw	x24,8(x2)
    1dd8:	00100793          	addi	x15,x0,1
    1ddc:	00fba223          	sw	x15,4(x23)
    1de0:	00098513          	addi	x10,x19,0
    1de4:	0fc000ef          	jal	x1,1ee0 <__malloc_unlock>
    1de8:	00000513          	addi	x10,x0,0
    1dec:	01812a03          	lw	x20,24(x2)
    1df0:	01412a83          	lw	x21,20(x2)
    1df4:	01012b03          	lw	x22,16(x2)
    1df8:	00c12b83          	lw	x23,12(x2)
    1dfc:	00412c83          	lw	x25,4(x2)
    1e00:	9adff06f          	jal	x0,17ac <_malloc_r+0x8c>
    1e04:	05400693          	addi	x13,x0,84
    1e08:	04e6e463          	bltu	x13,x14,1e50 <_malloc_r+0x730>
    1e0c:	00c7d713          	srli	x14,x15,0xc
    1e10:	06f70613          	addi	x12,x14,111
    1e14:	06e70693          	addi	x13,x14,110
    1e18:	00361613          	slli	x12,x12,0x3
    1e1c:	cd1ff06f          	jal	x0,1aec <_malloc_r+0x3cc>
    1e20:	15400713          	addi	x14,x0,340
    1e24:	04f76463          	bltu	x14,x15,1e6c <_malloc_r+0x74c>
    1e28:	00f4d793          	srli	x15,x9,0xf
    1e2c:	07878593          	addi	x11,x15,120
    1e30:	07778813          	addi	x16,x15,119
    1e34:	00359613          	slli	x12,x11,0x3
    1e38:	9c9ff06f          	jal	x0,1800 <_malloc_r+0xe0>
    1e3c:	00892403          	lw	x8,8(x18)
    1e40:	00442783          	lw	x15,4(x8)
    1e44:	c01ff06f          	jal	x0,1a44 <_malloc_r+0x324>
    1e48:	f171a823          	sw	x23,-240(x3) # 13050 <__malloc_sbrk_base>
    1e4c:	e81ff06f          	jal	x0,1ccc <_malloc_r+0x5ac>
    1e50:	15400693          	addi	x13,x0,340
    1e54:	04e6e463          	bltu	x13,x14,1e9c <_malloc_r+0x77c>
    1e58:	00f7d713          	srli	x14,x15,0xf
    1e5c:	07870613          	addi	x12,x14,120
    1e60:	07770693          	addi	x13,x14,119
    1e64:	00361613          	slli	x12,x12,0x3
    1e68:	c85ff06f          	jal	x0,1aec <_malloc_r+0x3cc>
    1e6c:	55400713          	addi	x14,x0,1364
    1e70:	04f76463          	bltu	x14,x15,1eb8 <_malloc_r+0x798>
    1e74:	0124d793          	srli	x15,x9,0x12
    1e78:	07d78593          	addi	x11,x15,125
    1e7c:	07c78813          	addi	x16,x15,124
    1e80:	00359613          	slli	x12,x11,0x3
    1e84:	97dff06f          	jal	x0,1800 <_malloc_r+0xe0>
    1e88:	ff8c8c93          	addi	x25,x25,-8
    1e8c:	019a8ab3          	add	x21,x21,x25
    1e90:	417a8ab3          	sub	x21,x21,x23
    1e94:	00000a13          	addi	x20,x0,0
    1e98:	e7dff06f          	jal	x0,1d14 <_malloc_r+0x5f4>
    1e9c:	55400693          	addi	x13,x0,1364
    1ea0:	02e6e463          	bltu	x13,x14,1ec8 <_malloc_r+0x7a8>
    1ea4:	0127d713          	srli	x14,x15,0x12
    1ea8:	07d70613          	addi	x12,x14,125
    1eac:	07c70693          	addi	x13,x14,124
    1eb0:	00361613          	slli	x12,x12,0x3
    1eb4:	c39ff06f          	jal	x0,1aec <_malloc_r+0x3cc>
    1eb8:	3f800613          	addi	x12,x0,1016
    1ebc:	07f00593          	addi	x11,x0,127
    1ec0:	07e00813          	addi	x16,x0,126
    1ec4:	93dff06f          	jal	x0,1800 <_malloc_r+0xe0>
    1ec8:	3f800613          	addi	x12,x0,1016
    1ecc:	07e00693          	addi	x13,x0,126
    1ed0:	c1dff06f          	jal	x0,1aec <_malloc_r+0x3cc>
    1ed4:	00492783          	lw	x15,4(x18)
    1ed8:	da1ff06f          	jal	x0,1c78 <_malloc_r+0x558>

00001edc <__malloc_lock>:
    1edc:	00008067          	jalr	x0,0(x1)

00001ee0 <__malloc_unlock>:
    1ee0:	00008067          	jalr	x0,0(x1)

00001ee4 <_vfprintf_r>:
    1ee4:	e3010113          	addi	x2,x2,-464
    1ee8:	1c112623          	sw	x1,460(x2)
    1eec:	1c812423          	sw	x8,456(x2)
    1ef0:	1c912223          	sw	x9,452(x2)
    1ef4:	1b612823          	sw	x22,432(x2)
    1ef8:	00058493          	addi	x9,x11,0
    1efc:	00060b13          	addi	x22,x12,0
    1f00:	00d12623          	sw	x13,12(x2)
    1f04:	00050413          	addi	x8,x10,0
    1f08:	02a12223          	sw	x10,36(x2)
    1f0c:	7d1040ef          	jal	x1,6edc <_localeconv_r>
    1f10:	00052703          	lw	x14,0(x10)
    1f14:	00070513          	addi	x10,x14,0
    1f18:	02e12623          	sw	x14,44(x2)
    1f1c:	970ff0ef          	jal	x1,108c <strlen>
    1f20:	02a12423          	sw	x10,40(x2)
    1f24:	0c012823          	sw	x0,208(x2)
    1f28:	0c012a23          	sw	x0,212(x2)
    1f2c:	0c012c23          	sw	x0,216(x2)
    1f30:	0c012e23          	sw	x0,220(x2)
    1f34:	00040863          	beq	x8,x0,1f44 <_vfprintf_r+0x60>
    1f38:	03442703          	lw	x14,52(x8)
    1f3c:	00071463          	bne	x14,x0,1f44 <_vfprintf_r+0x60>
    1f40:	1150106f          	jal	x0,3854 <_vfprintf_r+0x1970>
    1f44:	00c49703          	lh	x14,12(x9)
    1f48:	01271693          	slli	x13,x14,0x12
    1f4c:	0206c663          	blt	x13,x0,1f78 <_vfprintf_r+0x94>
    1f50:	0644a683          	lw	x13,100(x9)
    1f54:	000025b7          	lui	x11,0x2
    1f58:	ffffe637          	lui	x12,0xffffe
    1f5c:	00b76733          	or	x14,x14,x11
    1f60:	fff60613          	addi	x12,x12,-1 # ffffdfff <__heap_end+0xffbfdfff>
    1f64:	01071713          	slli	x14,x14,0x10
    1f68:	41075713          	srai	x14,x14,0x10
    1f6c:	00c6f6b3          	and	x13,x13,x12
    1f70:	00e49623          	sh	x14,12(x9)
    1f74:	06d4a223          	sw	x13,100(x9)
    1f78:	00877693          	andi	x13,x14,8
    1f7c:	30068463          	beq	x13,x0,2284 <_vfprintf_r+0x3a0>
    1f80:	0104a683          	lw	x13,16(x9)
    1f84:	30068063          	beq	x13,x0,2284 <_vfprintf_r+0x3a0>
    1f88:	01a77713          	andi	x14,x14,26
    1f8c:	00a00693          	addi	x13,x0,10
    1f90:	30d70c63          	beq	x14,x13,22a8 <_vfprintf_r+0x3c4>
    1f94:	1b312e23          	sw	x19,444(x2)
    1f98:	1b512a23          	sw	x21,436(x2)
    1f9c:	1b712623          	sw	x23,428(x2)
    1fa0:	1ba12023          	sw	x26,416(x2)
    1fa4:	00012737          	lui	x14,0x12
    1fa8:	1d212023          	sw	x18,448(x2)
    1fac:	1b412c23          	sw	x20,440(x2)
    1fb0:	1b812423          	sw	x24,424(x2)
    1fb4:	1b912223          	sw	x25,420(x2)
    1fb8:	19b12e23          	sw	x27,412(x2)
    1fbc:	000b0d13          	addi	x26,x22,0
    1fc0:	15c70793          	addi	x15,x14,348 # 1215c <no_exception_handler_msg+0xb4>
    1fc4:	000d4703          	lbu	x14,0(x26)
    1fc8:	0ec10993          	addi	x19,x2,236
    1fcc:	00012ab7          	lui	x21,0x12
    1fd0:	0d312223          	sw	x19,196(x2)
    1fd4:	0c012623          	sw	x0,204(x2)
    1fd8:	0c012423          	sw	x0,200(x2)
    1fdc:	00012c23          	sw	x0,24(x2)
    1fe0:	02012823          	sw	x0,48(x2)
    1fe4:	02012e23          	sw	x0,60(x2)
    1fe8:	02012c23          	sw	x0,56(x2)
    1fec:	04012023          	sw	x0,64(x2)
    1ff0:	04012223          	sw	x0,68(x2)
    1ff4:	00012223          	sw	x0,4(x2)
    1ff8:	00f12823          	sw	x15,16(x2)
    1ffc:	02412b83          	lw	x23,36(x2)
    2000:	00098413          	addi	x8,x19,0
    2004:	360a8a93          	addi	x21,x21,864 # 12360 <zeroes.0>
    2008:	22070063          	beq	x14,x0,2228 <_vfprintf_r+0x344>
    200c:	000d0913          	addi	x18,x26,0
    2010:	02500693          	addi	x13,x0,37
    2014:	3ed70863          	beq	x14,x13,2404 <_vfprintf_r+0x520>
    2018:	00194703          	lbu	x14,1(x18)
    201c:	00190913          	addi	x18,x18,1
    2020:	fe071ae3          	bne	x14,x0,2014 <_vfprintf_r+0x130>
    2024:	41a90a33          	sub	x20,x18,x26
    2028:	21a90063          	beq	x18,x26,2228 <_vfprintf_r+0x344>
    202c:	0cc12683          	lw	x13,204(x2)
    2030:	0c812703          	lw	x14,200(x2)
    2034:	01a42023          	sw	x26,0(x8)
    2038:	014686b3          	add	x13,x13,x20
    203c:	00170713          	addi	x14,x14,1
    2040:	01442223          	sw	x20,4(x8)
    2044:	0cd12623          	sw	x13,204(x2)
    2048:	0ce12423          	sw	x14,200(x2)
    204c:	00700693          	addi	x13,x0,7
    2050:	00840413          	addi	x8,x8,8
    2054:	3ce6c063          	blt	x13,x14,2414 <_vfprintf_r+0x530>
    2058:	00412783          	lw	x15,4(x2)
    205c:	00094703          	lbu	x14,0(x18)
    2060:	014787b3          	add	x15,x15,x20
    2064:	00f12223          	sw	x15,4(x2)
    2068:	1c070063          	beq	x14,x0,2228 <_vfprintf_r+0x344>
    206c:	00194883          	lbu	x17,1(x18)
    2070:	0a0103a3          	sb	x0,167(x2)
    2074:	00190913          	addi	x18,x18,1
    2078:	fff00a13          	addi	x20,x0,-1
    207c:	00000c93          	addi	x25,x0,0
    2080:	00000d93          	addi	x27,x0,0
    2084:	05a00b13          	addi	x22,x0,90
    2088:	00190913          	addi	x18,x18,1
    208c:	fe088793          	addi	x15,x17,-32
    2090:	04fb6663          	bltu	x22,x15,20dc <_vfprintf_r+0x1f8>
    2094:	01012703          	lw	x14,16(x2)
    2098:	00279793          	slli	x15,x15,0x2
    209c:	00e787b3          	add	x15,x15,x14
    20a0:	0007a783          	lw	x15,0(x15)
    20a4:	00078067          	jalr	x0,0(x15)
    20a8:	00000c93          	addi	x25,x0,0
    20ac:	fd088793          	addi	x15,x17,-48
    20b0:	00900693          	addi	x13,x0,9
    20b4:	00094883          	lbu	x17,0(x18)
    20b8:	002c9713          	slli	x14,x25,0x2
    20bc:	01970cb3          	add	x25,x14,x25
    20c0:	001c9c93          	slli	x25,x25,0x1
    20c4:	01978cb3          	add	x25,x15,x25
    20c8:	fd088793          	addi	x15,x17,-48
    20cc:	00190913          	addi	x18,x18,1
    20d0:	fef6f2e3          	bgeu	x13,x15,20b4 <_vfprintf_r+0x1d0>
    20d4:	fe088793          	addi	x15,x17,-32
    20d8:	fafb7ee3          	bgeu	x22,x15,2094 <_vfprintf_r+0x1b0>
    20dc:	14088663          	beq	x17,x0,2228 <_vfprintf_r+0x344>
    20e0:	13110623          	sb	x17,300(x2)
    20e4:	0a0103a3          	sb	x0,167(x2)
    20e8:	00100c13          	addi	x24,x0,1
    20ec:	00100b13          	addi	x22,x0,1
    20f0:	12c10d13          	addi	x26,x2,300
    20f4:	00012423          	sw	x0,8(x2)
    20f8:	00000a13          	addi	x20,x0,0
    20fc:	02012023          	sw	x0,32(x2)
    2100:	00012e23          	sw	x0,28(x2)
    2104:	00012a23          	sw	x0,20(x2)
    2108:	002df293          	andi	x5,x27,2
    210c:	00028463          	beq	x5,x0,2114 <_vfprintf_r+0x230>
    2110:	002c0c13          	addi	x24,x24,2
    2114:	084dff93          	andi	x31,x27,132
    2118:	0cc12603          	lw	x12,204(x2)
    211c:	000f9663          	bne	x31,x0,2128 <_vfprintf_r+0x244>
    2120:	418c8733          	sub	x14,x25,x24
    2124:	46e04ce3          	blt	x0,x14,2d9c <_vfprintf_r+0xeb8>
    2128:	0a714703          	lbu	x14,167(x2)
    212c:	02070a63          	beq	x14,x0,2160 <_vfprintf_r+0x27c>
    2130:	0c812703          	lw	x14,200(x2)
    2134:	0a710593          	addi	x11,x2,167
    2138:	00b42023          	sw	x11,0(x8)
    213c:	00160613          	addi	x12,x12,1
    2140:	00100593          	addi	x11,x0,1
    2144:	00170713          	addi	x14,x14,1
    2148:	00b42223          	sw	x11,4(x8)
    214c:	0cc12623          	sw	x12,204(x2)
    2150:	0ce12423          	sw	x14,200(x2)
    2154:	00700593          	addi	x11,x0,7
    2158:	00840413          	addi	x8,x8,8
    215c:	3ee5c463          	blt	x11,x14,2544 <_vfprintf_r+0x660>
    2160:	02028a63          	beq	x5,x0,2194 <_vfprintf_r+0x2b0>
    2164:	0c812703          	lw	x14,200(x2)
    2168:	00200593          	addi	x11,x0,2
    216c:	00260613          	addi	x12,x12,2
    2170:	00170713          	addi	x14,x14,1
    2174:	0a810793          	addi	x15,x2,168
    2178:	00b42223          	sw	x11,4(x8)
    217c:	00f42023          	sw	x15,0(x8)
    2180:	0cc12623          	sw	x12,204(x2)
    2184:	0ce12423          	sw	x14,200(x2)
    2188:	00700593          	addi	x11,x0,7
    218c:	00840413          	addi	x8,x8,8
    2190:	50e5cce3          	blt	x11,x14,2ea8 <_vfprintf_r+0xfc4>
    2194:	08000713          	addi	x14,x0,128
    2198:	1eef8ee3          	beq	x31,x14,2b94 <_vfprintf_r+0xcb0>
    219c:	416a0a33          	sub	x20,x20,x22
    21a0:	2f4044e3          	blt	x0,x20,2c88 <_vfprintf_r+0xda4>
    21a4:	100df713          	andi	x14,x27,256
    21a8:	040718e3          	bne	x14,x0,29f8 <_vfprintf_r+0xb14>
    21ac:	0c812783          	lw	x15,200(x2)
    21b0:	01660633          	add	x12,x12,x22
    21b4:	01a42023          	sw	x26,0(x8)
    21b8:	00178793          	addi	x15,x15,1
    21bc:	01642223          	sw	x22,4(x8)
    21c0:	0cc12623          	sw	x12,204(x2)
    21c4:	0cf12423          	sw	x15,200(x2)
    21c8:	00700713          	addi	x14,x0,7
    21cc:	4cf74063          	blt	x14,x15,268c <_vfprintf_r+0x7a8>
    21d0:	00840413          	addi	x8,x8,8
    21d4:	004dfe13          	andi	x28,x27,4
    21d8:	000e0663          	beq	x28,x0,21e4 <_vfprintf_r+0x300>
    21dc:	418c8a33          	sub	x20,x25,x24
    21e0:	4f404ce3          	blt	x0,x20,2ed8 <_vfprintf_r+0xff4>
    21e4:	000c8313          	addi	x6,x25,0
    21e8:	018cd463          	bge	x25,x24,21f0 <_vfprintf_r+0x30c>
    21ec:	000c0313          	addi	x6,x24,0
    21f0:	00412783          	lw	x15,4(x2)
    21f4:	006787b3          	add	x15,x15,x6
    21f8:	00f12223          	sw	x15,4(x2)
    21fc:	360618e3          	bne	x12,x0,2d6c <_vfprintf_r+0xe88>
    2200:	00812783          	lw	x15,8(x2)
    2204:	0c012423          	sw	x0,200(x2)
    2208:	00078863          	beq	x15,x0,2218 <_vfprintf_r+0x334>
    220c:	00812583          	lw	x11,8(x2)
    2210:	000b8513          	addi	x10,x23,0
    2214:	a08ff0ef          	jal	x1,141c <_free_r>
    2218:	00098413          	addi	x8,x19,0
    221c:	00090d13          	addi	x26,x18,0
    2220:	000d4703          	lbu	x14,0(x26)
    2224:	de0714e3          	bne	x14,x0,200c <_vfprintf_r+0x128>
    2228:	0cc12783          	lw	x15,204(x2)
    222c:	00078463          	beq	x15,x0,2234 <_vfprintf_r+0x350>
    2230:	3890106f          	jal	x0,3db8 <_vfprintf_r+0x1ed4>
    2234:	00c4d783          	lhu	x15,12(x9)
    2238:	1c012903          	lw	x18,448(x2)
    223c:	1bc12983          	lw	x19,444(x2)
    2240:	0407f793          	andi	x15,x15,64
    2244:	1b812a03          	lw	x20,440(x2)
    2248:	1b412a83          	lw	x21,436(x2)
    224c:	1ac12b83          	lw	x23,428(x2)
    2250:	1a812c03          	lw	x24,424(x2)
    2254:	1a412c83          	lw	x25,420(x2)
    2258:	1a012d03          	lw	x26,416(x2)
    225c:	19c12d83          	lw	x27,412(x2)
    2260:	00078463          	beq	x15,x0,2268 <_vfprintf_r+0x384>
    2264:	1640206f          	jal	x0,43c8 <_vfprintf_r+0x24e4>
    2268:	1cc12083          	lw	x1,460(x2)
    226c:	1c812403          	lw	x8,456(x2)
    2270:	00412503          	lw	x10,4(x2)
    2274:	1c412483          	lw	x9,452(x2)
    2278:	1b012b03          	lw	x22,432(x2)
    227c:	1d010113          	addi	x2,x2,464
    2280:	00008067          	jalr	x0,0(x1)
    2284:	02412503          	lw	x10,36(x2)
    2288:	00048593          	addi	x11,x9,0
    228c:	6f4040ef          	jal	x1,6980 <__swsetup_r>
    2290:	00050463          	beq	x10,x0,2298 <_vfprintf_r+0x3b4>
    2294:	1340206f          	jal	x0,43c8 <_vfprintf_r+0x24e4>
    2298:	00c49703          	lh	x14,12(x9)
    229c:	00a00693          	addi	x13,x0,10
    22a0:	01a77713          	andi	x14,x14,26
    22a4:	ced718e3          	bne	x14,x13,1f94 <_vfprintf_r+0xb0>
    22a8:	00e49703          	lh	x14,14(x9)
    22ac:	ce0744e3          	blt	x14,x0,1f94 <_vfprintf_r+0xb0>
    22b0:	00c12683          	lw	x13,12(x2)
    22b4:	02412503          	lw	x10,36(x2)
    22b8:	000b0613          	addi	x12,x22,0
    22bc:	00048593          	addi	x11,x9,0
    22c0:	4c4020ef          	jal	x1,4784 <__sbprintf>
    22c4:	00a12223          	sw	x10,4(x2)
    22c8:	fa1ff06f          	jal	x0,2268 <_vfprintf_r+0x384>
    22cc:	000b8513          	addi	x10,x23,0
    22d0:	40d040ef          	jal	x1,6edc <_localeconv_r>
    22d4:	00452783          	lw	x15,4(x10)
    22d8:	00078513          	addi	x10,x15,0
    22dc:	04f12223          	sw	x15,68(x2)
    22e0:	dadfe0ef          	jal	x1,108c <strlen>
    22e4:	00050793          	addi	x15,x10,0
    22e8:	000b8513          	addi	x10,x23,0
    22ec:	00078c13          	addi	x24,x15,0
    22f0:	04f12023          	sw	x15,64(x2)
    22f4:	3e9040ef          	jal	x1,6edc <_localeconv_r>
    22f8:	00852703          	lw	x14,8(x10)
    22fc:	02e12c23          	sw	x14,56(x2)
    2300:	760c10e3          	bne	x24,x0,3260 <_vfprintf_r+0x137c>
    2304:	00094883          	lbu	x17,0(x18)
    2308:	d81ff06f          	jal	x0,2088 <_vfprintf_r+0x1a4>
    230c:	00094883          	lbu	x17,0(x18)
    2310:	020ded93          	ori	x27,x27,32
    2314:	d75ff06f          	jal	x0,2088 <_vfprintf_r+0x1a4>
    2318:	010ded93          	ori	x27,x27,16
    231c:	020df793          	andi	x15,x27,32
    2320:	3a078e63          	beq	x15,x0,26dc <_vfprintf_r+0x7f8>
    2324:	00c12783          	lw	x15,12(x2)
    2328:	00778c13          	addi	x24,x15,7
    232c:	ff8c7c13          	andi	x24,x24,-8
    2330:	004c2783          	lw	x15,4(x24)
    2334:	000c2b03          	lw	x22,0(x24)
    2338:	008c0713          	addi	x14,x24,8
    233c:	00e12623          	sw	x14,12(x2)
    2340:	00078813          	addi	x16,x15,0
    2344:	3c07c663          	blt	x15,x0,2710 <_vfprintf_r+0x82c>
    2348:	000d8613          	addi	x12,x27,0
    234c:	4e0a4e63          	blt	x20,x0,2848 <_vfprintf_r+0x964>
    2350:	010b67b3          	or	x15,x22,x16
    2354:	f7fdf613          	andi	x12,x27,-129
    2358:	4e079863          	bne	x15,x0,2848 <_vfprintf_r+0x964>
    235c:	4e0a1c63          	bne	x20,x0,2854 <_vfprintf_r+0x970>
    2360:	00000b13          	addi	x22,x0,0
    2364:	00060d93          	addi	x27,x12,0
    2368:	19010d13          	addi	x26,x2,400
    236c:	0a714703          	lbu	x14,167(x2)
    2370:	000a0c13          	addi	x24,x20,0
    2374:	016a5463          	bge	x20,x22,237c <_vfprintf_r+0x498>
    2378:	000b0c13          	addi	x24,x22,0
    237c:	00012423          	sw	x0,8(x2)
    2380:	02012023          	sw	x0,32(x2)
    2384:	00012e23          	sw	x0,28(x2)
    2388:	00012a23          	sw	x0,20(x2)
    238c:	d6070ee3          	beq	x14,x0,2108 <_vfprintf_r+0x224>
    2390:	001c0c13          	addi	x24,x24,1
    2394:	d75ff06f          	jal	x0,2108 <_vfprintf_r+0x224>
    2398:	010ded93          	ori	x27,x27,16
    239c:	020df793          	andi	x15,x27,32
    23a0:	30078663          	beq	x15,x0,26ac <_vfprintf_r+0x7c8>
    23a4:	00c12783          	lw	x15,12(x2)
    23a8:	00778c13          	addi	x24,x15,7
    23ac:	ff8c7c13          	andi	x24,x24,-8
    23b0:	000c2b03          	lw	x22,0(x24)
    23b4:	004c2803          	lw	x16,4(x24)
    23b8:	008c0793          	addi	x15,x24,8
    23bc:	00f12623          	sw	x15,12(x2)
    23c0:	bffdf613          	andi	x12,x27,-1025
    23c4:	00000793          	addi	x15,x0,0
    23c8:	00000693          	addi	x13,x0,0
    23cc:	0ad103a3          	sb	x13,167(x2)
    23d0:	360a4263          	blt	x20,x0,2734 <_vfprintf_r+0x850>
    23d4:	010b66b3          	or	x13,x22,x16
    23d8:	f7f67d93          	andi	x27,x12,-129
    23dc:	1a069ce3          	bne	x13,x0,2d94 <_vfprintf_r+0xeb0>
    23e0:	740a1c63          	bne	x20,x0,2b38 <_vfprintf_r+0xc54>
    23e4:	5e0796e3          	bne	x15,x0,31d0 <_vfprintf_r+0x12ec>
    23e8:	00167b13          	andi	x22,x12,1
    23ec:	19010d13          	addi	x26,x2,400
    23f0:	f60b0ee3          	beq	x22,x0,236c <_vfprintf_r+0x488>
    23f4:	03000793          	addi	x15,x0,48
    23f8:	18f107a3          	sb	x15,399(x2)
    23fc:	18f10d13          	addi	x26,x2,399
    2400:	f6dff06f          	jal	x0,236c <_vfprintf_r+0x488>
    2404:	41a90a33          	sub	x20,x18,x26
    2408:	c3a912e3          	bne	x18,x26,202c <_vfprintf_r+0x148>
    240c:	00094703          	lbu	x14,0(x18)
    2410:	c59ff06f          	jal	x0,2068 <_vfprintf_r+0x184>
    2414:	0c410613          	addi	x12,x2,196
    2418:	00048593          	addi	x11,x9,0
    241c:	000b8513          	addi	x10,x23,0
    2420:	554020ef          	jal	x1,4974 <__sprint_r>
    2424:	e00518e3          	bne	x10,x0,2234 <_vfprintf_r+0x350>
    2428:	00098413          	addi	x8,x19,0
    242c:	c2dff06f          	jal	x0,2058 <_vfprintf_r+0x174>
    2430:	008df713          	andi	x14,x27,8
    2434:	600714e3          	bne	x14,x0,323c <_vfprintf_r+0x1358>
    2438:	00c12783          	lw	x15,12(x2)
    243c:	09010513          	addi	x10,x2,144
    2440:	01112423          	sw	x17,8(x2)
    2444:	00778c13          	addi	x24,x15,7
    2448:	ff8c7c13          	andi	x24,x24,-8
    244c:	000c2583          	lw	x11,0(x24)
    2450:	004c2603          	lw	x12,4(x24)
    2454:	008c0793          	addi	x15,x24,8
    2458:	00f12623          	sw	x15,12(x2)
    245c:	4b40f0ef          	jal	x1,11910 <__extenddftf2>
    2460:	09012583          	lw	x11,144(x2)
    2464:	09412603          	lw	x12,148(x2)
    2468:	09812683          	lw	x13,152(x2)
    246c:	09c12703          	lw	x14,156(x2)
    2470:	00812883          	lw	x17,8(x2)
    2474:	0d010513          	addi	x10,x2,208
    2478:	01112423          	sw	x17,8(x2)
    247c:	0ce12e23          	sw	x14,220(x2)
    2480:	0cb12823          	sw	x11,208(x2)
    2484:	0cc12a23          	sw	x12,212(x2)
    2488:	0cd12c23          	sw	x13,216(x2)
    248c:	324050ef          	jal	x1,77b0 <_ldcheck>
    2490:	0aa12623          	sw	x10,172(x2)
    2494:	00200713          	addi	x14,x0,2
    2498:	00812883          	lw	x17,8(x2)
    249c:	00e51463          	bne	x10,x14,24a4 <_vfprintf_r+0x5c0>
    24a0:	4100106f          	jal	x0,38b0 <_vfprintf_r+0x19cc>
    24a4:	00100713          	addi	x14,x0,1
    24a8:	00e51463          	bne	x10,x14,24b0 <_vfprintf_r+0x5cc>
    24ac:	5640106f          	jal	x0,3a10 <_vfprintf_r+0x1b2c>
    24b0:	06100713          	addi	x14,x0,97
    24b4:	00e89463          	bne	x17,x14,24bc <_vfprintf_r+0x5d8>
    24b8:	7b10006f          	jal	x0,3468 <_vfprintf_r+0x1584>
    24bc:	04100713          	addi	x14,x0,65
    24c0:	05800793          	addi	x15,x0,88
    24c4:	00e89463          	bne	x17,x14,24cc <_vfprintf_r+0x5e8>
    24c8:	7a50006f          	jal	x0,346c <_vfprintf_r+0x1588>
    24cc:	fff00713          	addi	x14,x0,-1
    24d0:	00ea1463          	bne	x20,x14,24d8 <_vfprintf_r+0x5f4>
    24d4:	0ec0206f          	jal	x0,45c0 <_vfprintf_r+0x26dc>
    24d8:	fdf8f713          	andi	x14,x17,-33
    24dc:	04700693          	addi	x13,x0,71
    24e0:	00012423          	sw	x0,8(x2)
    24e4:	00d71663          	bne	x14,x13,24f0 <_vfprintf_r+0x60c>
    24e8:	000a1463          	bne	x20,x0,24f0 <_vfprintf_r+0x60c>
    24ec:	00100a13          	addi	x20,x0,1
    24f0:	0dc12c03          	lw	x24,220(x2)
    24f4:	100de793          	ori	x15,x27,256
    24f8:	04f12423          	sw	x15,72(x2)
    24fc:	02012a23          	sw	x0,52(x2)
    2500:	0d012f83          	lw	x31,208(x2)
    2504:	0d412f03          	lw	x30,212(x2)
    2508:	0d812e83          	lw	x29,216(x2)
    250c:	000c5a63          	bge	x24,x0,2520 <_vfprintf_r+0x63c>
    2510:	80000737          	lui	x14,0x80000
    2514:	02d00793          	addi	x15,x0,45
    2518:	01874c33          	xor	x24,x14,x24
    251c:	02f12a23          	sw	x15,52(x2)
    2520:	fbf88713          	addi	x14,x17,-65
    2524:	02500693          	addi	x13,x0,37
    2528:	78e6e6e3          	bltu	x13,x14,34b4 <_vfprintf_r+0x15d0>
    252c:	000126b7          	lui	x13,0x12
    2530:	00271713          	slli	x14,x14,0x2
    2534:	2c868693          	addi	x13,x13,712 # 122c8 <no_exception_handler_msg+0x220>
    2538:	00d70733          	add	x14,x14,x13
    253c:	00072703          	lw	x14,0(x14) # 80000000 <__heap_end+0x7fc00000>
    2540:	00070067          	jalr	x0,0(x14)
    2544:	0c410613          	addi	x12,x2,196
    2548:	00048593          	addi	x11,x9,0
    254c:	000b8513          	addi	x10,x23,0
    2550:	05112623          	sw	x17,76(x2)
    2554:	05f12423          	sw	x31,72(x2)
    2558:	02512a23          	sw	x5,52(x2)
    255c:	418020ef          	jal	x1,4974 <__sprint_r>
    2560:	020510e3          	bne	x10,x0,2d80 <_vfprintf_r+0xe9c>
    2564:	0cc12603          	lw	x12,204(x2)
    2568:	04c12883          	lw	x17,76(x2)
    256c:	04812f83          	lw	x31,72(x2)
    2570:	03412283          	lw	x5,52(x2)
    2574:	00098413          	addi	x8,x19,0
    2578:	be9ff06f          	jal	x0,2160 <_vfprintf_r+0x27c>
    257c:	0c812a03          	lw	x20,200(x2)
    2580:	01812783          	lw	x15,24(x2)
    2584:	00100713          	addi	x14,x0,1
    2588:	01a42023          	sw	x26,0(x8)
    258c:	00160613          	addi	x12,x12,1
    2590:	001a0a13          	addi	x20,x20,1
    2594:	00840b13          	addi	x22,x8,8
    2598:	34f752e3          	bge	x14,x15,30dc <_vfprintf_r+0x11f8>
    259c:	00100713          	addi	x14,x0,1
    25a0:	00e42223          	sw	x14,4(x8)
    25a4:	0cc12623          	sw	x12,204(x2)
    25a8:	0d412423          	sw	x20,200(x2)
    25ac:	00700713          	addi	x14,x0,7
    25b0:	01475463          	bge	x14,x20,25b8 <_vfprintf_r+0x6d4>
    25b4:	0fc0106f          	jal	x0,36b0 <_vfprintf_r+0x17cc>
    25b8:	02812783          	lw	x15,40(x2)
    25bc:	02c12703          	lw	x14,44(x2)
    25c0:	001a0a13          	addi	x20,x20,1
    25c4:	00f60633          	add	x12,x12,x15
    25c8:	00eb2023          	sw	x14,0(x22)
    25cc:	00fb2223          	sw	x15,4(x22)
    25d0:	0cc12623          	sw	x12,204(x2)
    25d4:	0d412423          	sw	x20,200(x2)
    25d8:	00700713          	addi	x14,x0,7
    25dc:	008b0b13          	addi	x22,x22,8
    25e0:	01475463          	bge	x14,x20,25e8 <_vfprintf_r+0x704>
    25e4:	0f00106f          	jal	x0,36d4 <_vfprintf_r+0x17f0>
    25e8:	0d012703          	lw	x14,208(x2)
    25ec:	01812783          	lw	x15,24(x2)
    25f0:	08010593          	addi	x11,x2,128
    25f4:	08e12823          	sw	x14,144(x2)
    25f8:	0d412703          	lw	x14,212(x2)
    25fc:	09010513          	addi	x10,x2,144
    2600:	00c12a23          	sw	x12,20(x2)
    2604:	08e12a23          	sw	x14,148(x2)
    2608:	0d812703          	lw	x14,216(x2)
    260c:	08012023          	sw	x0,128(x2)
    2610:	08012223          	sw	x0,132(x2)
    2614:	08e12c23          	sw	x14,152(x2)
    2618:	0dc12703          	lw	x14,220(x2)
    261c:	08012423          	sw	x0,136(x2)
    2620:	08012623          	sw	x0,140(x2)
    2624:	08e12e23          	sw	x14,156(x2)
    2628:	fff78413          	addi	x8,x15,-1
    262c:	44c0c0ef          	jal	x1,ea78 <__eqtf2>
    2630:	01412603          	lw	x12,20(x2)
    2634:	2e0504e3          	beq	x10,x0,311c <_vfprintf_r+0x1238>
    2638:	001d0793          	addi	x15,x26,1
    263c:	001a0a13          	addi	x20,x20,1
    2640:	00860633          	add	x12,x12,x8
    2644:	00fb2023          	sw	x15,0(x22)
    2648:	008b2223          	sw	x8,4(x22)
    264c:	0cc12623          	sw	x12,204(x2)
    2650:	0d412423          	sw	x20,200(x2)
    2654:	00700793          	addi	x15,x0,7
    2658:	008b0b13          	addi	x22,x22,8
    265c:	2947cee3          	blt	x15,x20,30f8 <_vfprintf_r+0x1214>
    2660:	03c12683          	lw	x13,60(x2)
    2664:	0b410713          	addi	x14,x2,180
    2668:	001a0793          	addi	x15,x20,1
    266c:	00c68633          	add	x12,x13,x12
    2670:	00eb2023          	sw	x14,0(x22)
    2674:	00db2223          	sw	x13,4(x22)
    2678:	0cc12623          	sw	x12,204(x2)
    267c:	0cf12423          	sw	x15,200(x2)
    2680:	00700713          	addi	x14,x0,7
    2684:	008b0413          	addi	x8,x22,8
    2688:	b4f756e3          	bge	x14,x15,21d4 <_vfprintf_r+0x2f0>
    268c:	0c410613          	addi	x12,x2,196
    2690:	00048593          	addi	x11,x9,0
    2694:	000b8513          	addi	x10,x23,0
    2698:	2dc020ef          	jal	x1,4974 <__sprint_r>
    269c:	6e051263          	bne	x10,x0,2d80 <_vfprintf_r+0xe9c>
    26a0:	0cc12603          	lw	x12,204(x2)
    26a4:	00098413          	addi	x8,x19,0
    26a8:	b2dff06f          	jal	x0,21d4 <_vfprintf_r+0x2f0>
    26ac:	00c12683          	lw	x13,12(x2)
    26b0:	010df793          	andi	x15,x27,16
    26b4:	0006a703          	lw	x14,0(x13)
    26b8:	00468693          	addi	x13,x13,4
    26bc:	00d12623          	sw	x13,12(x2)
    26c0:	360798e3          	bne	x15,x0,3230 <_vfprintf_r+0x134c>
    26c4:	040df793          	andi	x15,x27,64
    26c8:	360780e3          	beq	x15,x0,3228 <_vfprintf_r+0x1344>
    26cc:	01071b13          	slli	x22,x14,0x10
    26d0:	010b5b13          	srli	x22,x22,0x10
    26d4:	00000813          	addi	x16,x0,0
    26d8:	ce9ff06f          	jal	x0,23c0 <_vfprintf_r+0x4dc>
    26dc:	00c12683          	lw	x13,12(x2)
    26e0:	010df793          	andi	x15,x27,16
    26e4:	0006a703          	lw	x14,0(x13)
    26e8:	00468693          	addi	x13,x13,4
    26ec:	00d12623          	sw	x13,12(x2)
    26f0:	320794e3          	bne	x15,x0,3218 <_vfprintf_r+0x1334>
    26f4:	040df793          	andi	x15,x27,64
    26f8:	30078ce3          	beq	x15,x0,3210 <_vfprintf_r+0x132c>
    26fc:	01071b13          	slli	x22,x14,0x10
    2700:	410b5b13          	srai	x22,x22,0x10
    2704:	41fb5813          	srai	x16,x22,0x1f
    2708:	00080793          	addi	x15,x16,0
    270c:	c207dee3          	bge	x15,x0,2348 <_vfprintf_r+0x464>
    2710:	02d00693          	addi	x13,x0,45
    2714:	016037b3          	sltu	x15,x0,x22
    2718:	41000833          	sub	x16,x0,x16
    271c:	0ad103a3          	sb	x13,167(x2)
    2720:	40f80833          	sub	x16,x16,x15
    2724:	41600b33          	sub	x22,x0,x22
    2728:	000d8613          	addi	x12,x27,0
    272c:	00100793          	addi	x15,x0,1
    2730:	ca0a52e3          	bge	x20,x0,23d4 <_vfprintf_r+0x4f0>
    2734:	00100693          	addi	x13,x0,1
    2738:	10d78863          	beq	x15,x13,2848 <_vfprintf_r+0x964>
    273c:	00200693          	addi	x13,x0,2
    2740:	40d78863          	beq	x15,x13,2b50 <_vfprintf_r+0xc6c>
    2744:	19010d13          	addi	x26,x2,400
    2748:	01d81793          	slli	x15,x16,0x1d
    274c:	007b7693          	andi	x13,x22,7
    2750:	003b5b13          	srli	x22,x22,0x3
    2754:	03068693          	addi	x13,x13,48
    2758:	0167eb33          	or	x22,x15,x22
    275c:	00385813          	srli	x16,x16,0x3
    2760:	fedd0fa3          	sb	x13,-1(x26)
    2764:	010b67b3          	or	x15,x22,x16
    2768:	000d0513          	addi	x10,x26,0
    276c:	fffd0d13          	addi	x26,x26,-1
    2770:	fc079ce3          	bne	x15,x0,2748 <_vfprintf_r+0x864>
    2774:	00167713          	andi	x14,x12,1
    2778:	40070663          	beq	x14,x0,2b84 <_vfprintf_r+0xca0>
    277c:	03000713          	addi	x14,x0,48
    2780:	40e68263          	beq	x13,x14,2b84 <_vfprintf_r+0xca0>
    2784:	ffe50513          	addi	x10,x10,-2
    2788:	19010793          	addi	x15,x2,400
    278c:	feed0fa3          	sb	x14,-1(x26)
    2790:	40a78b33          	sub	x22,x15,x10
    2794:	00060d93          	addi	x27,x12,0
    2798:	00050d13          	addi	x26,x10,0
    279c:	bd1ff06f          	jal	x0,236c <_vfprintf_r+0x488>
    27a0:	00c12703          	lw	x14,12(x2)
    27a4:	0a0103a3          	sb	x0,167(x2)
    27a8:	00100c13          	addi	x24,x0,1
    27ac:	00072783          	lw	x15,0(x14)
    27b0:	00470713          	addi	x14,x14,4
    27b4:	00e12623          	sw	x14,12(x2)
    27b8:	12f10623          	sb	x15,300(x2)
    27bc:	00100b13          	addi	x22,x0,1
    27c0:	12c10d13          	addi	x26,x2,300
    27c4:	931ff06f          	jal	x0,20f4 <_vfprintf_r+0x210>
    27c8:	00c12783          	lw	x15,12(x2)
    27cc:	0a0103a3          	sb	x0,167(x2)
    27d0:	0007ad03          	lw	x26,0(x15)
    27d4:	00478813          	addi	x16,x15,4
    27d8:	3a0d02e3          	beq	x26,x0,337c <_vfprintf_r+0x1498>
    27dc:	000a5463          	bge	x20,x0,27e4 <_vfprintf_r+0x900>
    27e0:	1c80106f          	jal	x0,39a8 <_vfprintf_r+0x1ac4>
    27e4:	000a0613          	addi	x12,x20,0
    27e8:	00000593          	addi	x11,x0,0
    27ec:	000d0513          	addi	x10,x26,0
    27f0:	01012a23          	sw	x16,20(x2)
    27f4:	01112623          	sw	x17,12(x2)
    27f8:	464040ef          	jal	x1,6c5c <memchr>
    27fc:	00a12423          	sw	x10,8(x2)
    2800:	00c12883          	lw	x17,12(x2)
    2804:	01412803          	lw	x16,20(x2)
    2808:	00051463          	bne	x10,x0,2810 <_vfprintf_r+0x92c>
    280c:	3450106f          	jal	x0,4350 <_vfprintf_r+0x246c>
    2810:	00812783          	lw	x15,8(x2)
    2814:	0a714703          	lbu	x14,167(x2)
    2818:	01012623          	sw	x16,12(x2)
    281c:	41a78b33          	sub	x22,x15,x26
    2820:	fffb4693          	xori	x13,x22,-1
    2824:	41f6d693          	srai	x13,x13,0x1f
    2828:	00012423          	sw	x0,8(x2)
    282c:	02012023          	sw	x0,32(x2)
    2830:	00012e23          	sw	x0,28(x2)
    2834:	00012a23          	sw	x0,20(x2)
    2838:	00db7c33          	and	x24,x22,x13
    283c:	00000a13          	addi	x20,x0,0
    2840:	b40718e3          	bne	x14,x0,2390 <_vfprintf_r+0x4ac>
    2844:	8c5ff06f          	jal	x0,2108 <_vfprintf_r+0x224>
    2848:	6c0812e3          	bne	x16,x0,370c <_vfprintf_r+0x1828>
    284c:	00900793          	addi	x15,x0,9
    2850:	6b67eee3          	bltu	x15,x22,370c <_vfprintf_r+0x1828>
    2854:	030b0713          	addi	x14,x22,48
    2858:	18e107a3          	sb	x14,399(x2)
    285c:	00060d93          	addi	x27,x12,0
    2860:	00100b13          	addi	x22,x0,1
    2864:	18f10d13          	addi	x26,x2,399
    2868:	b05ff06f          	jal	x0,236c <_vfprintf_r+0x488>
    286c:	00c12783          	lw	x15,12(x2)
    2870:	0007ac83          	lw	x25,0(x15)
    2874:	00478793          	addi	x15,x15,4
    2878:	160cdae3          	bge	x25,x0,31ec <_vfprintf_r+0x1308>
    287c:	41900cb3          	sub	x25,x0,x25
    2880:	00f12623          	sw	x15,12(x2)
    2884:	00094883          	lbu	x17,0(x18)
    2888:	004ded93          	ori	x27,x27,4
    288c:	ffcff06f          	jal	x0,2088 <_vfprintf_r+0x1a4>
    2890:	010de613          	ori	x12,x27,16
    2894:	02067793          	andi	x15,x12,32
    2898:	100782e3          	beq	x15,x0,319c <_vfprintf_r+0x12b8>
    289c:	00c12783          	lw	x15,12(x2)
    28a0:	00778c13          	addi	x24,x15,7
    28a4:	ff8c7c13          	andi	x24,x24,-8
    28a8:	008c0793          	addi	x15,x24,8
    28ac:	00f12623          	sw	x15,12(x2)
    28b0:	000c2b03          	lw	x22,0(x24)
    28b4:	004c2803          	lw	x16,4(x24)
    28b8:	00100793          	addi	x15,x0,1
    28bc:	b0dff06f          	jal	x0,23c8 <_vfprintf_r+0x4e4>
    28c0:	02b00793          	addi	x15,x0,43
    28c4:	00094883          	lbu	x17,0(x18)
    28c8:	0af103a3          	sb	x15,167(x2)
    28cc:	fbcff06f          	jal	x0,2088 <_vfprintf_r+0x1a4>
    28d0:	00c12703          	lw	x14,12(x2)
    28d4:	000087b7          	lui	x15,0x8
    28d8:	83078793          	addi	x15,x15,-2000 # 7830 <_ldcheck+0x80>
    28dc:	0af11423          	sh	x15,168(x2)
    28e0:	00470793          	addi	x15,x14,4
    28e4:	00f12623          	sw	x15,12(x2)
    28e8:	000127b7          	lui	x15,0x12
    28ec:	ee478793          	addi	x15,x15,-284 # 11ee4 <__clzsi2+0x2f4>
    28f0:	02f12823          	sw	x15,48(x2)
    28f4:	00072b03          	lw	x22,0(x14)
    28f8:	00000813          	addi	x16,x0,0
    28fc:	002de613          	ori	x12,x27,2
    2900:	00200793          	addi	x15,x0,2
    2904:	07800893          	addi	x17,x0,120
    2908:	ac1ff06f          	jal	x0,23c8 <_vfprintf_r+0x4e4>
    290c:	020df793          	andi	x15,x27,32
    2910:	16078ae3          	beq	x15,x0,3284 <_vfprintf_r+0x13a0>
    2914:	00c12783          	lw	x15,12(x2)
    2918:	00412683          	lw	x13,4(x2)
    291c:	0007a783          	lw	x15,0(x15)
    2920:	41f6d713          	srai	x14,x13,0x1f
    2924:	00d7a023          	sw	x13,0(x15)
    2928:	00e7a223          	sw	x14,4(x15)
    292c:	00c12783          	lw	x15,12(x2)
    2930:	00090d13          	addi	x26,x18,0
    2934:	00478793          	addi	x15,x15,4
    2938:	00f12623          	sw	x15,12(x2)
    293c:	8e5ff06f          	jal	x0,2220 <_vfprintf_r+0x33c>
    2940:	00094883          	lbu	x17,0(x18)
    2944:	06c00793          	addi	x15,x0,108
    2948:	22f882e3          	beq	x17,x15,336c <_vfprintf_r+0x1488>
    294c:	010ded93          	ori	x27,x27,16
    2950:	f38ff06f          	jal	x0,2088 <_vfprintf_r+0x1a4>
    2954:	00094883          	lbu	x17,0(x18)
    2958:	06800793          	addi	x15,x0,104
    295c:	20f880e3          	beq	x17,x15,335c <_vfprintf_r+0x1478>
    2960:	040ded93          	ori	x27,x27,64
    2964:	f24ff06f          	jal	x0,2088 <_vfprintf_r+0x1a4>
    2968:	00094883          	lbu	x17,0(x18)
    296c:	008ded93          	ori	x27,x27,8
    2970:	f18ff06f          	jal	x0,2088 <_vfprintf_r+0x1a4>
    2974:	00094883          	lbu	x17,0(x18)
    2978:	001ded93          	ori	x27,x27,1
    297c:	f0cff06f          	jal	x0,2088 <_vfprintf_r+0x1a4>
    2980:	0a714783          	lbu	x15,167(x2)
    2984:	00094883          	lbu	x17,0(x18)
    2988:	f0079063          	bne	x15,x0,2088 <_vfprintf_r+0x1a4>
    298c:	02000793          	addi	x15,x0,32
    2990:	0af103a3          	sb	x15,167(x2)
    2994:	ef4ff06f          	jal	x0,2088 <_vfprintf_r+0x1a4>
    2998:	00094883          	lbu	x17,0(x18)
    299c:	080ded93          	ori	x27,x27,128
    29a0:	ee8ff06f          	jal	x0,2088 <_vfprintf_r+0x1a4>
    29a4:	00094883          	lbu	x17,0(x18)
    29a8:	02a00793          	addi	x15,x0,42
    29ac:	00190693          	addi	x13,x18,1
    29b0:	00f89463          	bne	x17,x15,29b8 <_vfprintf_r+0xad4>
    29b4:	56d0106f          	jal	x0,4720 <_vfprintf_r+0x283c>
    29b8:	fd088793          	addi	x15,x17,-48
    29bc:	00900713          	addi	x14,x0,9
    29c0:	00000a13          	addi	x20,x0,0
    29c4:	00900613          	addi	x12,x0,9
    29c8:	02f76463          	bltu	x14,x15,29f0 <_vfprintf_r+0xb0c>
    29cc:	0006c883          	lbu	x17,0(x13)
    29d0:	002a1713          	slli	x14,x20,0x2
    29d4:	01470a33          	add	x20,x14,x20
    29d8:	001a1a13          	slli	x20,x20,0x1
    29dc:	00fa0a33          	add	x20,x20,x15
    29e0:	fd088793          	addi	x15,x17,-48
    29e4:	00168693          	addi	x13,x13,1
    29e8:	fef672e3          	bgeu	x12,x15,29cc <_vfprintf_r+0xae8>
    29ec:	0c0a48e3          	blt	x20,x0,32bc <_vfprintf_r+0x13d8>
    29f0:	00068913          	addi	x18,x13,0
    29f4:	e98ff06f          	jal	x0,208c <_vfprintf_r+0x1a8>
    29f8:	06500713          	addi	x14,x0,101
    29fc:	b91750e3          	bge	x14,x17,257c <_vfprintf_r+0x698>
    2a00:	0d012703          	lw	x14,208(x2)
    2a04:	08010593          	addi	x11,x2,128
    2a08:	09010513          	addi	x10,x2,144
    2a0c:	08e12823          	sw	x14,144(x2)
    2a10:	0d412703          	lw	x14,212(x2)
    2a14:	02c12a23          	sw	x12,52(x2)
    2a18:	08012023          	sw	x0,128(x2)
    2a1c:	08e12a23          	sw	x14,148(x2)
    2a20:	0d812703          	lw	x14,216(x2)
    2a24:	08012223          	sw	x0,132(x2)
    2a28:	08012423          	sw	x0,136(x2)
    2a2c:	08e12c23          	sw	x14,152(x2)
    2a30:	0dc12703          	lw	x14,220(x2)
    2a34:	08012623          	sw	x0,140(x2)
    2a38:	08e12e23          	sw	x14,156(x2)
    2a3c:	03c0c0ef          	jal	x1,ea78 <__eqtf2>
    2a40:	03412603          	lw	x12,52(x2)
    2a44:	54051463          	bne	x10,x0,2f8c <_vfprintf_r+0x10a8>
    2a48:	0c812783          	lw	x15,200(x2)
    2a4c:	00012737          	lui	x14,0x12
    2a50:	f1470713          	addi	x14,x14,-236 # 11f14 <__clzsi2+0x324>
    2a54:	00e42023          	sw	x14,0(x8)
    2a58:	00160613          	addi	x12,x12,1
    2a5c:	00100713          	addi	x14,x0,1
    2a60:	00178793          	addi	x15,x15,1
    2a64:	00e42223          	sw	x14,4(x8)
    2a68:	0cc12623          	sw	x12,204(x2)
    2a6c:	0cf12423          	sw	x15,200(x2)
    2a70:	00700713          	addi	x14,x0,7
    2a74:	00840413          	addi	x8,x8,8
    2a78:	5ef744e3          	blt	x14,x15,3860 <_vfprintf_r+0x197c>
    2a7c:	0ac12783          	lw	x15,172(x2)
    2a80:	01812703          	lw	x14,24(x2)
    2a84:	74e7dc63          	bge	x15,x14,31dc <_vfprintf_r+0x12f8>
    2a88:	02c12783          	lw	x15,44(x2)
    2a8c:	02812703          	lw	x14,40(x2)
    2a90:	00840413          	addi	x8,x8,8
    2a94:	fef42c23          	sw	x15,-8(x8)
    2a98:	0c812783          	lw	x15,200(x2)
    2a9c:	00e60633          	add	x12,x12,x14
    2aa0:	fee42e23          	sw	x14,-4(x8)
    2aa4:	00178793          	addi	x15,x15,1
    2aa8:	0cc12623          	sw	x12,204(x2)
    2aac:	0cf12423          	sw	x15,200(x2)
    2ab0:	00700713          	addi	x14,x0,7
    2ab4:	08f744e3          	blt	x14,x15,333c <_vfprintf_r+0x1458>
    2ab8:	01812783          	lw	x15,24(x2)
    2abc:	fff78a13          	addi	x20,x15,-1
    2ac0:	f1405a63          	bge	x0,x20,21d4 <_vfprintf_r+0x2f0>
    2ac4:	00012837          	lui	x16,0x12
    2ac8:	01000713          	addi	x14,x0,16
    2acc:	0c812783          	lw	x15,200(x2)
    2ad0:	36080813          	addi	x16,x16,864 # 12360 <zeroes.0>
    2ad4:	5b475ae3          	bge	x14,x20,3888 <_vfprintf_r+0x19a4>
    2ad8:	01212a23          	sw	x18,20(x2)
    2adc:	01000b13          	addi	x22,x0,16
    2ae0:	00700d13          	addi	x26,x0,7
    2ae4:	00080913          	addi	x18,x16,0
    2ae8:	00c0006f          	jal	x0,2af4 <_vfprintf_r+0xc10>
    2aec:	ff0a0a13          	addi	x20,x20,-16
    2af0:	594b58e3          	bge	x22,x20,3880 <_vfprintf_r+0x199c>
    2af4:	01060613          	addi	x12,x12,16
    2af8:	00178793          	addi	x15,x15,1
    2afc:	01242023          	sw	x18,0(x8)
    2b00:	01642223          	sw	x22,4(x8)
    2b04:	0cc12623          	sw	x12,204(x2)
    2b08:	0cf12423          	sw	x15,200(x2)
    2b0c:	00840413          	addi	x8,x8,8
    2b10:	fcfd5ee3          	bge	x26,x15,2aec <_vfprintf_r+0xc08>
    2b14:	0c410613          	addi	x12,x2,196
    2b18:	00048593          	addi	x11,x9,0
    2b1c:	000b8513          	addi	x10,x23,0
    2b20:	655010ef          	jal	x1,4974 <__sprint_r>
    2b24:	24051e63          	bne	x10,x0,2d80 <_vfprintf_r+0xe9c>
    2b28:	0cc12603          	lw	x12,204(x2)
    2b2c:	0c812783          	lw	x15,200(x2)
    2b30:	00098413          	addi	x8,x19,0
    2b34:	fb9ff06f          	jal	x0,2aec <_vfprintf_r+0xc08>
    2b38:	00100693          	addi	x13,x0,1
    2b3c:	00d79463          	bne	x15,x13,2b44 <_vfprintf_r+0xc60>
    2b40:	1f90106f          	jal	x0,4538 <_vfprintf_r+0x2654>
    2b44:	00200693          	addi	x13,x0,2
    2b48:	000d8613          	addi	x12,x27,0
    2b4c:	bed79ce3          	bne	x15,x13,2744 <_vfprintf_r+0x860>
    2b50:	03012683          	lw	x13,48(x2)
    2b54:	19010d13          	addi	x26,x2,400
    2b58:	00fb7793          	andi	x15,x22,15
    2b5c:	00f687b3          	add	x15,x13,x15
    2b60:	0007c703          	lbu	x14,0(x15)
    2b64:	004b5b13          	srli	x22,x22,0x4
    2b68:	01c81793          	slli	x15,x16,0x1c
    2b6c:	0167eb33          	or	x22,x15,x22
    2b70:	00485813          	srli	x16,x16,0x4
    2b74:	feed0fa3          	sb	x14,-1(x26)
    2b78:	010b67b3          	or	x15,x22,x16
    2b7c:	fffd0d13          	addi	x26,x26,-1
    2b80:	fc079ce3          	bne	x15,x0,2b58 <_vfprintf_r+0xc74>
    2b84:	19010793          	addi	x15,x2,400
    2b88:	41a78b33          	sub	x22,x15,x26
    2b8c:	00060d93          	addi	x27,x12,0
    2b90:	fdcff06f          	jal	x0,236c <_vfprintf_r+0x488>
    2b94:	418c8733          	sub	x14,x25,x24
    2b98:	e0e05263          	bge	x0,x14,219c <_vfprintf_r+0x2b8>
    2b9c:	00012837          	lui	x16,0x12
    2ba0:	01000513          	addi	x10,x0,16
    2ba4:	0c812583          	lw	x11,200(x2)
    2ba8:	36080813          	addi	x16,x16,864 # 12360 <zeroes.0>
    2bac:	08e55863          	bge	x10,x14,2c3c <_vfprintf_r+0xd58>
    2bb0:	03212a23          	sw	x18,52(x2)
    2bb4:	00040793          	addi	x15,x8,0
    2bb8:	01000e93          	addi	x29,x0,16
    2bbc:	00700f93          	addi	x31,x0,7
    2bc0:	05112423          	sw	x17,72(x2)
    2bc4:	00070413          	addi	x8,x14,0
    2bc8:	00080913          	addi	x18,x16,0
    2bcc:	00c0006f          	jal	x0,2bd8 <_vfprintf_r+0xcf4>
    2bd0:	ff040413          	addi	x8,x8,-16
    2bd4:	048eda63          	bge	x29,x8,2c28 <_vfprintf_r+0xd44>
    2bd8:	01060613          	addi	x12,x12,16
    2bdc:	00158593          	addi	x11,x11,1 # 2001 <_vfprintf_r+0x11d>
    2be0:	0127a023          	sw	x18,0(x15)
    2be4:	01d7a223          	sw	x29,4(x15)
    2be8:	0cc12623          	sw	x12,204(x2)
    2bec:	0cb12423          	sw	x11,200(x2)
    2bf0:	00878793          	addi	x15,x15,8
    2bf4:	fcbfdee3          	bge	x31,x11,2bd0 <_vfprintf_r+0xcec>
    2bf8:	0c410613          	addi	x12,x2,196
    2bfc:	00048593          	addi	x11,x9,0
    2c00:	000b8513          	addi	x10,x23,0
    2c04:	571010ef          	jal	x1,4974 <__sprint_r>
    2c08:	16051c63          	bne	x10,x0,2d80 <_vfprintf_r+0xe9c>
    2c0c:	01000e93          	addi	x29,x0,16
    2c10:	ff040413          	addi	x8,x8,-16
    2c14:	0cc12603          	lw	x12,204(x2)
    2c18:	0c812583          	lw	x11,200(x2)
    2c1c:	00098793          	addi	x15,x19,0
    2c20:	00700f93          	addi	x31,x0,7
    2c24:	fa8ecae3          	blt	x29,x8,2bd8 <_vfprintf_r+0xcf4>
    2c28:	00090813          	addi	x16,x18,0
    2c2c:	04812883          	lw	x17,72(x2)
    2c30:	03412903          	lw	x18,52(x2)
    2c34:	00040713          	addi	x14,x8,0
    2c38:	00078413          	addi	x8,x15,0
    2c3c:	00e60633          	add	x12,x12,x14
    2c40:	00158593          	addi	x11,x11,1
    2c44:	00e42223          	sw	x14,4(x8)
    2c48:	01042023          	sw	x16,0(x8)
    2c4c:	0cc12623          	sw	x12,204(x2)
    2c50:	0cb12423          	sw	x11,200(x2)
    2c54:	00700713          	addi	x14,x0,7
    2c58:	00840413          	addi	x8,x8,8
    2c5c:	d4b75063          	bge	x14,x11,219c <_vfprintf_r+0x2b8>
    2c60:	0c410613          	addi	x12,x2,196
    2c64:	00048593          	addi	x11,x9,0
    2c68:	000b8513          	addi	x10,x23,0
    2c6c:	03112a23          	sw	x17,52(x2)
    2c70:	505010ef          	jal	x1,4974 <__sprint_r>
    2c74:	10051663          	bne	x10,x0,2d80 <_vfprintf_r+0xe9c>
    2c78:	0cc12603          	lw	x12,204(x2)
    2c7c:	03412883          	lw	x17,52(x2)
    2c80:	00098413          	addi	x8,x19,0
    2c84:	d18ff06f          	jal	x0,219c <_vfprintf_r+0x2b8>
    2c88:	00012837          	lui	x16,0x12
    2c8c:	01000713          	addi	x14,x0,16
    2c90:	0c812583          	lw	x11,200(x2)
    2c94:	36080813          	addi	x16,x16,864 # 12360 <zeroes.0>
    2c98:	09475463          	bge	x14,x20,2d20 <_vfprintf_r+0xe3c>
    2c9c:	00040793          	addi	x15,x8,0
    2ca0:	01000713          	addi	x14,x0,16
    2ca4:	000a0413          	addi	x8,x20,0
    2ca8:	00700e93          	addi	x29,x0,7
    2cac:	03112a23          	sw	x17,52(x2)
    2cb0:	000a8a13          	addi	x20,x21,0
    2cb4:	00c0006f          	jal	x0,2cc0 <_vfprintf_r+0xddc>
    2cb8:	ff040413          	addi	x8,x8,-16
    2cbc:	04875a63          	bge	x14,x8,2d10 <_vfprintf_r+0xe2c>
    2cc0:	01060613          	addi	x12,x12,16
    2cc4:	00158593          	addi	x11,x11,1
    2cc8:	0157a023          	sw	x21,0(x15)
    2ccc:	00e7a223          	sw	x14,4(x15)
    2cd0:	0cc12623          	sw	x12,204(x2)
    2cd4:	0cb12423          	sw	x11,200(x2)
    2cd8:	00878793          	addi	x15,x15,8
    2cdc:	fcbedee3          	bge	x29,x11,2cb8 <_vfprintf_r+0xdd4>
    2ce0:	0c410613          	addi	x12,x2,196
    2ce4:	00048593          	addi	x11,x9,0
    2ce8:	000b8513          	addi	x10,x23,0
    2cec:	489010ef          	jal	x1,4974 <__sprint_r>
    2cf0:	08051863          	bne	x10,x0,2d80 <_vfprintf_r+0xe9c>
    2cf4:	01000713          	addi	x14,x0,16
    2cf8:	ff040413          	addi	x8,x8,-16
    2cfc:	0cc12603          	lw	x12,204(x2)
    2d00:	0c812583          	lw	x11,200(x2)
    2d04:	00098793          	addi	x15,x19,0
    2d08:	00700e93          	addi	x29,x0,7
    2d0c:	fa874ae3          	blt	x14,x8,2cc0 <_vfprintf_r+0xddc>
    2d10:	03412883          	lw	x17,52(x2)
    2d14:	000a0813          	addi	x16,x20,0
    2d18:	00040a13          	addi	x20,x8,0
    2d1c:	00078413          	addi	x8,x15,0
    2d20:	01460633          	add	x12,x12,x20
    2d24:	00158593          	addi	x11,x11,1
    2d28:	01042023          	sw	x16,0(x8)
    2d2c:	01442223          	sw	x20,4(x8)
    2d30:	0cc12623          	sw	x12,204(x2)
    2d34:	0cb12423          	sw	x11,200(x2)
    2d38:	00700713          	addi	x14,x0,7
    2d3c:	00840413          	addi	x8,x8,8
    2d40:	c6b75263          	bge	x14,x11,21a4 <_vfprintf_r+0x2c0>
    2d44:	0c410613          	addi	x12,x2,196
    2d48:	00048593          	addi	x11,x9,0
    2d4c:	000b8513          	addi	x10,x23,0
    2d50:	03112a23          	sw	x17,52(x2)
    2d54:	421010ef          	jal	x1,4974 <__sprint_r>
    2d58:	02051463          	bne	x10,x0,2d80 <_vfprintf_r+0xe9c>
    2d5c:	0cc12603          	lw	x12,204(x2)
    2d60:	03412883          	lw	x17,52(x2)
    2d64:	00098413          	addi	x8,x19,0
    2d68:	c3cff06f          	jal	x0,21a4 <_vfprintf_r+0x2c0>
    2d6c:	0c410613          	addi	x12,x2,196
    2d70:	00048593          	addi	x11,x9,0
    2d74:	000b8513          	addi	x10,x23,0
    2d78:	3fd010ef          	jal	x1,4974 <__sprint_r>
    2d7c:	c8050263          	beq	x10,x0,2200 <_vfprintf_r+0x31c>
    2d80:	00812583          	lw	x11,8(x2)
    2d84:	ca058863          	beq	x11,x0,2234 <_vfprintf_r+0x350>
    2d88:	02412503          	lw	x10,36(x2)
    2d8c:	e90fe0ef          	jal	x1,141c <_free_r>
    2d90:	ca4ff06f          	jal	x0,2234 <_vfprintf_r+0x350>
    2d94:	000d8613          	addi	x12,x27,0
    2d98:	99dff06f          	jal	x0,2734 <_vfprintf_r+0x850>
    2d9c:	00012837          	lui	x16,0x12
    2da0:	01000513          	addi	x10,x0,16
    2da4:	0c812583          	lw	x11,200(x2)
    2da8:	37080813          	addi	x16,x16,880 # 12370 <blanks.1>
    2dac:	0ae55063          	bge	x10,x14,2e4c <_vfprintf_r+0xf68>
    2db0:	05212623          	sw	x18,76(x2)
    2db4:	00040793          	addi	x15,x8,0
    2db8:	01000e93          	addi	x29,x0,16
    2dbc:	00700393          	addi	x7,x0,7
    2dc0:	02512a23          	sw	x5,52(x2)
    2dc4:	05f12423          	sw	x31,72(x2)
    2dc8:	05112823          	sw	x17,80(x2)
    2dcc:	00070413          	addi	x8,x14,0
    2dd0:	00080913          	addi	x18,x16,0
    2dd4:	00c0006f          	jal	x0,2de0 <_vfprintf_r+0xefc>
    2dd8:	ff040413          	addi	x8,x8,-16
    2ddc:	048eda63          	bge	x29,x8,2e30 <_vfprintf_r+0xf4c>
    2de0:	01060613          	addi	x12,x12,16
    2de4:	00158593          	addi	x11,x11,1
    2de8:	0127a023          	sw	x18,0(x15)
    2dec:	01d7a223          	sw	x29,4(x15)
    2df0:	0cc12623          	sw	x12,204(x2)
    2df4:	0cb12423          	sw	x11,200(x2)
    2df8:	00878793          	addi	x15,x15,8
    2dfc:	fcb3dee3          	bge	x7,x11,2dd8 <_vfprintf_r+0xef4>
    2e00:	0c410613          	addi	x12,x2,196
    2e04:	00048593          	addi	x11,x9,0
    2e08:	000b8513          	addi	x10,x23,0
    2e0c:	369010ef          	jal	x1,4974 <__sprint_r>
    2e10:	f60518e3          	bne	x10,x0,2d80 <_vfprintf_r+0xe9c>
    2e14:	01000e93          	addi	x29,x0,16
    2e18:	ff040413          	addi	x8,x8,-16
    2e1c:	0cc12603          	lw	x12,204(x2)
    2e20:	0c812583          	lw	x11,200(x2)
    2e24:	00098793          	addi	x15,x19,0
    2e28:	00700393          	addi	x7,x0,7
    2e2c:	fa8ecae3          	blt	x29,x8,2de0 <_vfprintf_r+0xefc>
    2e30:	00090813          	addi	x16,x18,0
    2e34:	03412283          	lw	x5,52(x2)
    2e38:	04812f83          	lw	x31,72(x2)
    2e3c:	05012883          	lw	x17,80(x2)
    2e40:	04c12903          	lw	x18,76(x2)
    2e44:	00040713          	addi	x14,x8,0
    2e48:	00078413          	addi	x8,x15,0
    2e4c:	00e60633          	add	x12,x12,x14
    2e50:	00158593          	addi	x11,x11,1
    2e54:	00e42223          	sw	x14,4(x8)
    2e58:	01042023          	sw	x16,0(x8)
    2e5c:	0cc12623          	sw	x12,204(x2)
    2e60:	0cb12423          	sw	x11,200(x2)
    2e64:	00700713          	addi	x14,x0,7
    2e68:	00840413          	addi	x8,x8,8
    2e6c:	aab75e63          	bge	x14,x11,2128 <_vfprintf_r+0x244>
    2e70:	0c410613          	addi	x12,x2,196
    2e74:	00048593          	addi	x11,x9,0
    2e78:	000b8513          	addi	x10,x23,0
    2e7c:	05112623          	sw	x17,76(x2)
    2e80:	05f12423          	sw	x31,72(x2)
    2e84:	02512a23          	sw	x5,52(x2)
    2e88:	2ed010ef          	jal	x1,4974 <__sprint_r>
    2e8c:	ee051ae3          	bne	x10,x0,2d80 <_vfprintf_r+0xe9c>
    2e90:	0cc12603          	lw	x12,204(x2)
    2e94:	04c12883          	lw	x17,76(x2)
    2e98:	04812f83          	lw	x31,72(x2)
    2e9c:	03412283          	lw	x5,52(x2)
    2ea0:	00098413          	addi	x8,x19,0
    2ea4:	a84ff06f          	jal	x0,2128 <_vfprintf_r+0x244>
    2ea8:	0c410613          	addi	x12,x2,196
    2eac:	00048593          	addi	x11,x9,0
    2eb0:	000b8513          	addi	x10,x23,0
    2eb4:	05112423          	sw	x17,72(x2)
    2eb8:	03f12a23          	sw	x31,52(x2)
    2ebc:	2b9010ef          	jal	x1,4974 <__sprint_r>
    2ec0:	ec0510e3          	bne	x10,x0,2d80 <_vfprintf_r+0xe9c>
    2ec4:	0cc12603          	lw	x12,204(x2)
    2ec8:	04812883          	lw	x17,72(x2)
    2ecc:	03412f83          	lw	x31,52(x2)
    2ed0:	00098413          	addi	x8,x19,0
    2ed4:	ac0ff06f          	jal	x0,2194 <_vfprintf_r+0x2b0>
    2ed8:	00012837          	lui	x16,0x12
    2edc:	37080813          	addi	x16,x16,880 # 12370 <blanks.1>
    2ee0:	01000713          	addi	x14,x0,16
    2ee4:	0c812783          	lw	x15,200(x2)
    2ee8:	01000b13          	addi	x22,x0,16
    2eec:	00700d13          	addi	x26,x0,7
    2ef0:	00080d93          	addi	x27,x16,0
    2ef4:	01474863          	blt	x14,x20,2f04 <_vfprintf_r+0x1020>
    2ef8:	0580006f          	jal	x0,2f50 <_vfprintf_r+0x106c>
    2efc:	ff0a0a13          	addi	x20,x20,-16
    2f00:	054b5663          	bge	x22,x20,2f4c <_vfprintf_r+0x1068>
    2f04:	01060613          	addi	x12,x12,16
    2f08:	00178793          	addi	x15,x15,1
    2f0c:	01b42023          	sw	x27,0(x8)
    2f10:	01642223          	sw	x22,4(x8)
    2f14:	0cc12623          	sw	x12,204(x2)
    2f18:	0cf12423          	sw	x15,200(x2)
    2f1c:	00840413          	addi	x8,x8,8
    2f20:	fcfd5ee3          	bge	x26,x15,2efc <_vfprintf_r+0x1018>
    2f24:	0c410613          	addi	x12,x2,196
    2f28:	00048593          	addi	x11,x9,0
    2f2c:	000b8513          	addi	x10,x23,0
    2f30:	245010ef          	jal	x1,4974 <__sprint_r>
    2f34:	e40516e3          	bne	x10,x0,2d80 <_vfprintf_r+0xe9c>
    2f38:	ff0a0a13          	addi	x20,x20,-16
    2f3c:	0cc12603          	lw	x12,204(x2)
    2f40:	0c812783          	lw	x15,200(x2)
    2f44:	00098413          	addi	x8,x19,0
    2f48:	fb4b4ee3          	blt	x22,x20,2f04 <_vfprintf_r+0x1020>
    2f4c:	000d8813          	addi	x16,x27,0
    2f50:	01460633          	add	x12,x12,x20
    2f54:	00178793          	addi	x15,x15,1
    2f58:	01042023          	sw	x16,0(x8)
    2f5c:	01442223          	sw	x20,4(x8)
    2f60:	0cc12623          	sw	x12,204(x2)
    2f64:	0cf12423          	sw	x15,200(x2)
    2f68:	00700713          	addi	x14,x0,7
    2f6c:	a6f75c63          	bge	x14,x15,21e4 <_vfprintf_r+0x300>
    2f70:	0c410613          	addi	x12,x2,196
    2f74:	00048593          	addi	x11,x9,0
    2f78:	000b8513          	addi	x10,x23,0
    2f7c:	1f9010ef          	jal	x1,4974 <__sprint_r>
    2f80:	e00510e3          	bne	x10,x0,2d80 <_vfprintf_r+0xe9c>
    2f84:	0cc12603          	lw	x12,204(x2)
    2f88:	a5cff06f          	jal	x0,21e4 <_vfprintf_r+0x300>
    2f8c:	0ac12503          	lw	x10,172(x2)
    2f90:	04a052e3          	bge	x0,x10,37d4 <_vfprintf_r+0x18f0>
    2f94:	01412783          	lw	x15,20(x2)
    2f98:	01812703          	lw	x14,24(x2)
    2f9c:	00078a13          	addi	x20,x15,0
    2fa0:	30f74863          	blt	x14,x15,32b0 <_vfprintf_r+0x13cc>
    2fa4:	03405663          	bge	x0,x20,2fd0 <_vfprintf_r+0x10ec>
    2fa8:	0c812703          	lw	x14,200(x2)
    2fac:	01460633          	add	x12,x12,x20
    2fb0:	01a42023          	sw	x26,0(x8)
    2fb4:	00170713          	addi	x14,x14,1
    2fb8:	01442223          	sw	x20,4(x8)
    2fbc:	0cc12623          	sw	x12,204(x2)
    2fc0:	0ce12423          	sw	x14,200(x2)
    2fc4:	00700593          	addi	x11,x0,7
    2fc8:	00840413          	addi	x8,x8,8
    2fcc:	56e5c0e3          	blt	x11,x14,3d2c <_vfprintf_r+0x1e48>
    2fd0:	fffa4713          	xori	x14,x20,-1
    2fd4:	01412783          	lw	x15,20(x2)
    2fd8:	41f75713          	srai	x14,x14,0x1f
    2fdc:	00ea7a33          	and	x20,x20,x14
    2fe0:	41478a33          	sub	x20,x15,x20
    2fe4:	3b404c63          	blt	x0,x20,339c <_vfprintf_r+0x14b8>
    2fe8:	01412783          	lw	x15,20(x2)
    2fec:	400df713          	andi	x14,x27,1024
    2ff0:	00fd0a33          	add	x20,x26,x15
    2ff4:	280714e3          	bne	x14,x0,3a7c <_vfprintf_r+0x1b98>
    2ff8:	0ac12583          	lw	x11,172(x2)
    2ffc:	01812783          	lw	x15,24(x2)
    3000:	40f5ca63          	blt	x11,x15,3414 <_vfprintf_r+0x1530>
    3004:	001df713          	andi	x14,x27,1
    3008:	40071663          	bne	x14,x0,3414 <_vfprintf_r+0x1530>
    300c:	01812703          	lw	x14,24(x2)
    3010:	00ed07b3          	add	x15,x26,x14
    3014:	40b705b3          	sub	x11,x14,x11
    3018:	41478b33          	sub	x22,x15,x20
    301c:	0165d463          	bge	x11,x22,3024 <_vfprintf_r+0x1140>
    3020:	00058b13          	addi	x22,x11,0
    3024:	03605863          	bge	x0,x22,3054 <_vfprintf_r+0x1170>
    3028:	0c812703          	lw	x14,200(x2)
    302c:	01660633          	add	x12,x12,x22
    3030:	01442023          	sw	x20,0(x8)
    3034:	00170713          	addi	x14,x14,1
    3038:	01642223          	sw	x22,4(x8)
    303c:	0cc12623          	sw	x12,204(x2)
    3040:	0ce12423          	sw	x14,200(x2)
    3044:	00700793          	addi	x15,x0,7
    3048:	00840413          	addi	x8,x8,8
    304c:	00e7d463          	bge	x15,x14,3054 <_vfprintf_r+0x1170>
    3050:	3380106f          	jal	x0,4388 <_vfprintf_r+0x24a4>
    3054:	fffb4713          	xori	x14,x22,-1
    3058:	41f75713          	srai	x14,x14,0x1f
    305c:	00eb77b3          	and	x15,x22,x14
    3060:	40f58a33          	sub	x20,x11,x15
    3064:	97405863          	bge	x0,x20,21d4 <_vfprintf_r+0x2f0>
    3068:	00012837          	lui	x16,0x12
    306c:	01000713          	addi	x14,x0,16
    3070:	0c812783          	lw	x15,200(x2)
    3074:	36080813          	addi	x16,x16,864 # 12360 <zeroes.0>
    3078:	014758e3          	bge	x14,x20,3888 <_vfprintf_r+0x19a4>
    307c:	01212a23          	sw	x18,20(x2)
    3080:	01000b13          	addi	x22,x0,16
    3084:	00700d13          	addi	x26,x0,7
    3088:	00080913          	addi	x18,x16,0
    308c:	00c0006f          	jal	x0,3098 <_vfprintf_r+0x11b4>
    3090:	ff0a0a13          	addi	x20,x20,-16
    3094:	7f4b5663          	bge	x22,x20,3880 <_vfprintf_r+0x199c>
    3098:	01060613          	addi	x12,x12,16
    309c:	00178793          	addi	x15,x15,1
    30a0:	01242023          	sw	x18,0(x8)
    30a4:	01642223          	sw	x22,4(x8)
    30a8:	0cc12623          	sw	x12,204(x2)
    30ac:	0cf12423          	sw	x15,200(x2)
    30b0:	00840413          	addi	x8,x8,8
    30b4:	fcfd5ee3          	bge	x26,x15,3090 <_vfprintf_r+0x11ac>
    30b8:	0c410613          	addi	x12,x2,196
    30bc:	00048593          	addi	x11,x9,0
    30c0:	000b8513          	addi	x10,x23,0
    30c4:	0b1010ef          	jal	x1,4974 <__sprint_r>
    30c8:	ca051ce3          	bne	x10,x0,2d80 <_vfprintf_r+0xe9c>
    30cc:	0cc12603          	lw	x12,204(x2)
    30d0:	0c812783          	lw	x15,200(x2)
    30d4:	00098413          	addi	x8,x19,0
    30d8:	fb9ff06f          	jal	x0,3090 <_vfprintf_r+0x11ac>
    30dc:	001df593          	andi	x11,x27,1
    30e0:	ca059e63          	bne	x11,x0,259c <_vfprintf_r+0x6b8>
    30e4:	00e42223          	sw	x14,4(x8)
    30e8:	0cc12623          	sw	x12,204(x2)
    30ec:	0d412423          	sw	x20,200(x2)
    30f0:	00700793          	addi	x15,x0,7
    30f4:	d747d663          	bge	x15,x20,2660 <_vfprintf_r+0x77c>
    30f8:	0c410613          	addi	x12,x2,196
    30fc:	00048593          	addi	x11,x9,0
    3100:	000b8513          	addi	x10,x23,0
    3104:	071010ef          	jal	x1,4974 <__sprint_r>
    3108:	c6051ce3          	bne	x10,x0,2d80 <_vfprintf_r+0xe9c>
    310c:	0cc12603          	lw	x12,204(x2)
    3110:	0c812a03          	lw	x20,200(x2)
    3114:	00098b13          	addi	x22,x19,0
    3118:	d48ff06f          	jal	x0,2660 <_vfprintf_r+0x77c>
    311c:	01812703          	lw	x14,24(x2)
    3120:	00100793          	addi	x15,x0,1
    3124:	d2e7de63          	bge	x15,x14,2660 <_vfprintf_r+0x77c>
    3128:	00012837          	lui	x16,0x12
    312c:	01100793          	addi	x15,x0,17
    3130:	36080813          	addi	x16,x16,864 # 12360 <zeroes.0>
    3134:	0ce7d6e3          	bge	x15,x14,3a00 <_vfprintf_r+0x1b1c>
    3138:	01212a23          	sw	x18,20(x2)
    313c:	01000793          	addi	x15,x0,16
    3140:	00700d13          	addi	x26,x0,7
    3144:	00080913          	addi	x18,x16,0
    3148:	00c0006f          	jal	x0,3154 <_vfprintf_r+0x1270>
    314c:	ff040413          	addi	x8,x8,-16
    3150:	0a87d4e3          	bge	x15,x8,39f8 <_vfprintf_r+0x1b14>
    3154:	01060613          	addi	x12,x12,16
    3158:	001a0a13          	addi	x20,x20,1
    315c:	012b2023          	sw	x18,0(x22)
    3160:	00fb2223          	sw	x15,4(x22)
    3164:	0cc12623          	sw	x12,204(x2)
    3168:	0d412423          	sw	x20,200(x2)
    316c:	008b0b13          	addi	x22,x22,8
    3170:	fd4d5ee3          	bge	x26,x20,314c <_vfprintf_r+0x1268>
    3174:	0c410613          	addi	x12,x2,196
    3178:	00048593          	addi	x11,x9,0
    317c:	000b8513          	addi	x10,x23,0
    3180:	7f4010ef          	jal	x1,4974 <__sprint_r>
    3184:	be051ee3          	bne	x10,x0,2d80 <_vfprintf_r+0xe9c>
    3188:	0cc12603          	lw	x12,204(x2)
    318c:	0c812a03          	lw	x20,200(x2)
    3190:	00098b13          	addi	x22,x19,0
    3194:	01000793          	addi	x15,x0,16
    3198:	fb5ff06f          	jal	x0,314c <_vfprintf_r+0x1268>
    319c:	00c12683          	lw	x13,12(x2)
    31a0:	01067793          	andi	x15,x12,16
    31a4:	0006a703          	lw	x14,0(x13)
    31a8:	00468693          	addi	x13,x13,4
    31ac:	00d12623          	sw	x13,12(x2)
    31b0:	04079863          	bne	x15,x0,3200 <_vfprintf_r+0x131c>
    31b4:	04067793          	andi	x15,x12,64
    31b8:	04078063          	beq	x15,x0,31f8 <_vfprintf_r+0x1314>
    31bc:	01071b13          	slli	x22,x14,0x10
    31c0:	010b5b13          	srli	x22,x22,0x10
    31c4:	00000813          	addi	x16,x0,0
    31c8:	00100793          	addi	x15,x0,1
    31cc:	9fcff06f          	jal	x0,23c8 <_vfprintf_r+0x4e4>
    31d0:	00000b13          	addi	x22,x0,0
    31d4:	19010d13          	addi	x26,x2,400
    31d8:	994ff06f          	jal	x0,236c <_vfprintf_r+0x488>
    31dc:	001df793          	andi	x15,x27,1
    31e0:	00079463          	bne	x15,x0,31e8 <_vfprintf_r+0x1304>
    31e4:	ff1fe06f          	jal	x0,21d4 <_vfprintf_r+0x2f0>
    31e8:	8a1ff06f          	jal	x0,2a88 <_vfprintf_r+0xba4>
    31ec:	00094883          	lbu	x17,0(x18)
    31f0:	00f12623          	sw	x15,12(x2)
    31f4:	e95fe06f          	jal	x0,2088 <_vfprintf_r+0x1a4>
    31f8:	20067793          	andi	x15,x12,512
    31fc:	360798e3          	bne	x15,x0,3d6c <_vfprintf_r+0x1e88>
    3200:	00070b13          	addi	x22,x14,0
    3204:	00000813          	addi	x16,x0,0
    3208:	00100793          	addi	x15,x0,1
    320c:	9bcff06f          	jal	x0,23c8 <_vfprintf_r+0x4e4>
    3210:	200df793          	andi	x15,x27,512
    3214:	360794e3          	bne	x15,x0,3d7c <_vfprintf_r+0x1e98>
    3218:	41f75813          	srai	x16,x14,0x1f
    321c:	00070b13          	addi	x22,x14,0
    3220:	00080793          	addi	x15,x16,0
    3224:	920ff06f          	jal	x0,2344 <_vfprintf_r+0x460>
    3228:	200df793          	andi	x15,x27,512
    322c:	360798e3          	bne	x15,x0,3d9c <_vfprintf_r+0x1eb8>
    3230:	00070b13          	addi	x22,x14,0
    3234:	00000813          	addi	x16,x0,0
    3238:	988ff06f          	jal	x0,23c0 <_vfprintf_r+0x4dc>
    323c:	00c12783          	lw	x15,12(x2)
    3240:	0007a703          	lw	x14,0(x15)
    3244:	00478793          	addi	x15,x15,4
    3248:	00f12623          	sw	x15,12(x2)
    324c:	00072583          	lw	x11,0(x14)
    3250:	00472603          	lw	x12,4(x14)
    3254:	00872683          	lw	x13,8(x14)
    3258:	00c72703          	lw	x14,12(x14)
    325c:	a18ff06f          	jal	x0,2474 <_vfprintf_r+0x590>
    3260:	03812783          	lw	x15,56(x2)
    3264:	00094883          	lbu	x17,0(x18)
    3268:	00079463          	bne	x15,x0,3270 <_vfprintf_r+0x138c>
    326c:	e1dfe06f          	jal	x0,2088 <_vfprintf_r+0x1a4>
    3270:	0007c783          	lbu	x15,0(x15)
    3274:	00079463          	bne	x15,x0,327c <_vfprintf_r+0x1398>
    3278:	e11fe06f          	jal	x0,2088 <_vfprintf_r+0x1a4>
    327c:	400ded93          	ori	x27,x27,1024
    3280:	e09fe06f          	jal	x0,2088 <_vfprintf_r+0x1a4>
    3284:	010df793          	andi	x15,x27,16
    3288:	6a079663          	bne	x15,x0,3934 <_vfprintf_r+0x1a50>
    328c:	040df793          	andi	x15,x27,64
    3290:	2c0794e3          	bne	x15,x0,3d58 <_vfprintf_r+0x1e74>
    3294:	200dfe13          	andi	x28,x27,512
    3298:	680e0e63          	beq	x28,x0,3934 <_vfprintf_r+0x1a50>
    329c:	00c12783          	lw	x15,12(x2)
    32a0:	00412703          	lw	x14,4(x2)
    32a4:	0007a783          	lw	x15,0(x15)
    32a8:	00e78023          	sb	x14,0(x15)
    32ac:	e80ff06f          	jal	x0,292c <_vfprintf_r+0xa48>
    32b0:	00070a13          	addi	x20,x14,0
    32b4:	cf404ae3          	blt	x0,x20,2fa8 <_vfprintf_r+0x10c4>
    32b8:	d19ff06f          	jal	x0,2fd0 <_vfprintf_r+0x10ec>
    32bc:	fff00a13          	addi	x20,x0,-1
    32c0:	00068913          	addi	x18,x13,0
    32c4:	dc9fe06f          	jal	x0,208c <_vfprintf_r+0x1a8>
    32c8:	000127b7          	lui	x15,0x12
    32cc:	ef878793          	addi	x15,x15,-264 # 11ef8 <__clzsi2+0x308>
    32d0:	02f12823          	sw	x15,48(x2)
    32d4:	020df793          	andi	x15,x27,32
    32d8:	3a078463          	beq	x15,x0,3680 <_vfprintf_r+0x179c>
    32dc:	00c12783          	lw	x15,12(x2)
    32e0:	00778c13          	addi	x24,x15,7
    32e4:	ff8c7c13          	andi	x24,x24,-8
    32e8:	000c2b03          	lw	x22,0(x24)
    32ec:	004c2803          	lw	x16,4(x24)
    32f0:	008c0793          	addi	x15,x24,8
    32f4:	00f12623          	sw	x15,12(x2)
    32f8:	001df793          	andi	x15,x27,1
    32fc:	00078e63          	beq	x15,x0,3318 <_vfprintf_r+0x1434>
    3300:	010b67b3          	or	x15,x22,x16
    3304:	00078a63          	beq	x15,x0,3318 <_vfprintf_r+0x1434>
    3308:	03000793          	addi	x15,x0,48
    330c:	0af10423          	sb	x15,168(x2)
    3310:	0b1104a3          	sb	x17,169(x2)
    3314:	002ded93          	ori	x27,x27,2
    3318:	bffdf613          	andi	x12,x27,-1025
    331c:	00200793          	addi	x15,x0,2
    3320:	8a8ff06f          	jal	x0,23c8 <_vfprintf_r+0x4e4>
    3324:	000d8613          	addi	x12,x27,0
    3328:	d6cff06f          	jal	x0,2894 <_vfprintf_r+0x9b0>
    332c:	000127b7          	lui	x15,0x12
    3330:	ee478793          	addi	x15,x15,-284 # 11ee4 <__clzsi2+0x2f4>
    3334:	02f12823          	sw	x15,48(x2)
    3338:	f9dff06f          	jal	x0,32d4 <_vfprintf_r+0x13f0>
    333c:	0c410613          	addi	x12,x2,196
    3340:	00048593          	addi	x11,x9,0
    3344:	000b8513          	addi	x10,x23,0
    3348:	62c010ef          	jal	x1,4974 <__sprint_r>
    334c:	a2051ae3          	bne	x10,x0,2d80 <_vfprintf_r+0xe9c>
    3350:	0cc12603          	lw	x12,204(x2)
    3354:	00098413          	addi	x8,x19,0
    3358:	f60ff06f          	jal	x0,2ab8 <_vfprintf_r+0xbd4>
    335c:	00194883          	lbu	x17,1(x18)
    3360:	200ded93          	ori	x27,x27,512
    3364:	00190913          	addi	x18,x18,1
    3368:	d21fe06f          	jal	x0,2088 <_vfprintf_r+0x1a4>
    336c:	00194883          	lbu	x17,1(x18)
    3370:	020ded93          	ori	x27,x27,32
    3374:	00190913          	addi	x18,x18,1
    3378:	d11fe06f          	jal	x0,2088 <_vfprintf_r+0x1a4>
    337c:	00600793          	addi	x15,x0,6
    3380:	000a0b13          	addi	x22,x20,0
    3384:	1d47e6e3          	bltu	x15,x20,3d50 <_vfprintf_r+0x1e6c>
    3388:	000127b7          	lui	x15,0x12
    338c:	000b0c13          	addi	x24,x22,0
    3390:	01012623          	sw	x16,12(x2)
    3394:	f0c78d13          	addi	x26,x15,-244 # 11f0c <__clzsi2+0x31c>
    3398:	d5dfe06f          	jal	x0,20f4 <_vfprintf_r+0x210>
    339c:	00012837          	lui	x16,0x12
    33a0:	01000593          	addi	x11,x0,16
    33a4:	0c812703          	lw	x14,200(x2)
    33a8:	36080813          	addi	x16,x16,864 # 12360 <zeroes.0>
    33ac:	6945d663          	bge	x11,x20,3a38 <_vfprintf_r+0x1b54>
    33b0:	03212a23          	sw	x18,52(x2)
    33b4:	01000893          	addi	x17,x0,16
    33b8:	00700b13          	addi	x22,x0,7
    33bc:	00080913          	addi	x18,x16,0
    33c0:	00c0006f          	jal	x0,33cc <_vfprintf_r+0x14e8>
    33c4:	ff0a0a13          	addi	x20,x20,-16
    33c8:	6748d463          	bge	x17,x20,3a30 <_vfprintf_r+0x1b4c>
    33cc:	01060613          	addi	x12,x12,16
    33d0:	00170713          	addi	x14,x14,1
    33d4:	01242023          	sw	x18,0(x8)
    33d8:	01142223          	sw	x17,4(x8)
    33dc:	0cc12623          	sw	x12,204(x2)
    33e0:	0ce12423          	sw	x14,200(x2)
    33e4:	00840413          	addi	x8,x8,8
    33e8:	fceb5ee3          	bge	x22,x14,33c4 <_vfprintf_r+0x14e0>
    33ec:	0c410613          	addi	x12,x2,196
    33f0:	00048593          	addi	x11,x9,0
    33f4:	000b8513          	addi	x10,x23,0
    33f8:	57c010ef          	jal	x1,4974 <__sprint_r>
    33fc:	980512e3          	bne	x10,x0,2d80 <_vfprintf_r+0xe9c>
    3400:	0cc12603          	lw	x12,204(x2)
    3404:	0c812703          	lw	x14,200(x2)
    3408:	00098413          	addi	x8,x19,0
    340c:	01000893          	addi	x17,x0,16
    3410:	fb5ff06f          	jal	x0,33c4 <_vfprintf_r+0x14e0>
    3414:	02c12703          	lw	x14,44(x2)
    3418:	02812783          	lw	x15,40(x2)
    341c:	00700513          	addi	x10,x0,7
    3420:	00e42023          	sw	x14,0(x8)
    3424:	0c812703          	lw	x14,200(x2)
    3428:	00f60633          	add	x12,x12,x15
    342c:	00f42223          	sw	x15,4(x8)
    3430:	00170713          	addi	x14,x14,1
    3434:	0cc12623          	sw	x12,204(x2)
    3438:	0ce12423          	sw	x14,200(x2)
    343c:	00840413          	addi	x8,x8,8
    3440:	bce556e3          	bge	x10,x14,300c <_vfprintf_r+0x1128>
    3444:	0c410613          	addi	x12,x2,196
    3448:	00048593          	addi	x11,x9,0
    344c:	000b8513          	addi	x10,x23,0
    3450:	524010ef          	jal	x1,4974 <__sprint_r>
    3454:	920516e3          	bne	x10,x0,2d80 <_vfprintf_r+0xe9c>
    3458:	0ac12583          	lw	x11,172(x2)
    345c:	0cc12603          	lw	x12,204(x2)
    3460:	00098413          	addi	x8,x19,0
    3464:	ba9ff06f          	jal	x0,300c <_vfprintf_r+0x1128>
    3468:	07800793          	addi	x15,x0,120
    346c:	03000713          	addi	x14,x0,48
    3470:	0ae10423          	sb	x14,168(x2)
    3474:	0af104a3          	sb	x15,169(x2)
    3478:	06300713          	addi	x14,x0,99
    347c:	00012423          	sw	x0,8(x2)
    3480:	002ded93          	ori	x27,x27,2
    3484:	12c10d13          	addi	x26,x2,300
    3488:	87475463          	bge	x14,x20,24f0 <_vfprintf_r+0x60c>
    348c:	001a0593          	addi	x11,x20,1
    3490:	000b8513          	addi	x10,x23,0
    3494:	01112423          	sw	x17,8(x2)
    3498:	a88fe0ef          	jal	x1,1720 <_malloc_r>
    349c:	00812883          	lw	x17,8(x2)
    34a0:	00050d13          	addi	x26,x10,0
    34a4:	00051463          	bne	x10,x0,34ac <_vfprintf_r+0x15c8>
    34a8:	2b40106f          	jal	x0,475c <_vfprintf_r+0x2878>
    34ac:	00a12423          	sw	x10,8(x2)
    34b0:	840ff06f          	jal	x0,24f0 <_vfprintf_r+0x60c>
    34b4:	09010b13          	addi	x22,x2,144
    34b8:	0ac10713          	addi	x14,x2,172
    34bc:	0bc10813          	addi	x16,x2,188
    34c0:	0b010793          	addi	x15,x2,176
    34c4:	000a0693          	addi	x13,x20,0
    34c8:	00200613          	addi	x12,x0,2
    34cc:	000b0593          	addi	x11,x22,0
    34d0:	000b8513          	addi	x10,x23,0
    34d4:	03112023          	sw	x17,32(x2)
    34d8:	09f12823          	sw	x31,144(x2)
    34dc:	01f12e23          	sw	x31,28(x2)
    34e0:	09e12a23          	sw	x30,148(x2)
    34e4:	01e12c23          	sw	x30,24(x2)
    34e8:	09d12c23          	sw	x29,152(x2)
    34ec:	01d12a23          	sw	x29,20(x2)
    34f0:	09812e23          	sw	x24,156(x2)
    34f4:	004040ef          	jal	x1,74f8 <_ldtoa_r>
    34f8:	001df713          	andi	x14,x27,1
    34fc:	01412e83          	lw	x29,20(x2)
    3500:	01812f03          	lw	x30,24(x2)
    3504:	01c12f83          	lw	x31,28(x2)
    3508:	02012883          	lw	x17,32(x2)
    350c:	00050d13          	addi	x26,x10,0
    3510:	0e0714e3          	bne	x14,x0,3df8 <_vfprintf_r+0x1f14>
    3514:	0ac12783          	lw	x15,172(x2)
    3518:	00f12a23          	sw	x15,20(x2)
    351c:	0bc12783          	lw	x15,188(x2)
    3520:	40a787b3          	sub	x15,x15,x10
    3524:	00f12c23          	sw	x15,24(x2)
    3528:	01412783          	lw	x15,20(x2)
    352c:	ffd00713          	addi	x14,x0,-3
    3530:	00e7c463          	blt	x15,x14,3538 <_vfprintf_r+0x1654>
    3534:	56fa5ae3          	bge	x20,x15,42a8 <_vfprintf_r+0x23c4>
    3538:	01412783          	lw	x15,20(x2)
    353c:	ffe88893          	addi	x17,x17,-2
    3540:	fff78a13          	addi	x20,x15,-1
    3544:	0b412623          	sw	x20,172(x2)
    3548:	0ff8f693          	andi	x13,x17,255
    354c:	00000613          	addi	x12,x0,0
    3550:	0ad10a23          	sb	x13,180(x2)
    3554:	02b00693          	addi	x13,x0,43
    3558:	000a5a63          	bge	x20,x0,356c <_vfprintf_r+0x1688>
    355c:	01412783          	lw	x15,20(x2)
    3560:	00100713          	addi	x14,x0,1
    3564:	02d00693          	addi	x13,x0,45
    3568:	40f70a33          	sub	x20,x14,x15
    356c:	0ad10aa3          	sb	x13,181(x2)
    3570:	00900693          	addi	x13,x0,9
    3574:	0146c463          	blt	x13,x20,357c <_vfprintf_r+0x1698>
    3578:	0180106f          	jal	x0,4590 <_vfprintf_r+0x26ac>
    357c:	0c310613          	addi	x12,x2,195
    3580:	00812a23          	sw	x8,20(x2)
    3584:	00088b13          	addi	x22,x17,0
    3588:	00060413          	addi	x8,x12,0
    358c:	00912e23          	sw	x9,28(x2)
    3590:	00a00593          	addi	x11,x0,10
    3594:	000a0513          	addi	x10,x20,0
    3598:	6280e0ef          	jal	x1,11bc0 <__modsi3>
    359c:	03050793          	addi	x15,x10,48
    35a0:	00040c13          	addi	x24,x8,0
    35a4:	fefc0fa3          	sb	x15,-1(x24)
    35a8:	000a0513          	addi	x10,x20,0
    35ac:	00a00593          	addi	x11,x0,10
    35b0:	58c0e0ef          	jal	x1,11b3c <__divsi3>
    35b4:	000a0493          	addi	x9,x20,0
    35b8:	06300793          	addi	x15,x0,99
    35bc:	fff40413          	addi	x8,x8,-1
    35c0:	00050a13          	addi	x20,x10,0
    35c4:	fc97c6e3          	blt	x15,x9,3590 <_vfprintf_r+0x16ac>
    35c8:	00040613          	addi	x12,x8,0
    35cc:	03050713          	addi	x14,x10,48
    35d0:	ffec0693          	addi	x13,x24,-2
    35d4:	fee60fa3          	sb	x14,-1(x12)
    35d8:	0c310793          	addi	x15,x2,195
    35dc:	01412403          	lw	x8,20(x2)
    35e0:	01c12483          	lw	x9,28(x2)
    35e4:	000b0893          	addi	x17,x22,0
    35e8:	00f6e463          	bltu	x13,x15,35f0 <_vfprintf_r+0x170c>
    35ec:	1280106f          	jal	x0,4714 <_vfprintf_r+0x2830>
    35f0:	0b610613          	addi	x12,x2,182
    35f4:	0006c783          	lbu	x15,0(x13)
    35f8:	00168693          	addi	x13,x13,1
    35fc:	00160613          	addi	x12,x12,1
    3600:	fef60fa3          	sb	x15,-1(x12)
    3604:	0c310793          	addi	x15,x2,195
    3608:	fef696e3          	bne	x13,x15,35f4 <_vfprintf_r+0x1710>
    360c:	19010793          	addi	x15,x2,400
    3610:	41878733          	sub	x14,x15,x24
    3614:	f3770793          	addi	x15,x14,-201
    3618:	02f12e23          	sw	x15,60(x2)
    361c:	01812783          	lw	x15,24(x2)
    3620:	03c12683          	lw	x13,60(x2)
    3624:	00100713          	addi	x14,x0,1
    3628:	00d78b33          	add	x22,x15,x13
    362c:	00f74463          	blt	x14,x15,3634 <_vfprintf_r+0x1750>
    3630:	79d0006f          	jal	x0,45cc <_vfprintf_r+0x26e8>
    3634:	02812783          	lw	x15,40(x2)
    3638:	00fb0b33          	add	x22,x22,x15
    363c:	fffb4693          	xori	x13,x22,-1
    3640:	bffdfe13          	andi	x28,x27,-1025
    3644:	41f6d693          	srai	x13,x13,0x1f
    3648:	100e6793          	ori	x15,x28,256
    364c:	04f12423          	sw	x15,72(x2)
    3650:	00db7c33          	and	x24,x22,x13
    3654:	02012023          	sw	x0,32(x2)
    3658:	00012e23          	sw	x0,28(x2)
    365c:	00012a23          	sw	x0,20(x2)
    3660:	03412783          	lw	x15,52(x2)
    3664:	420786e3          	beq	x15,x0,4290 <_vfprintf_r+0x23ac>
    3668:	02d00713          	addi	x14,x0,45
    366c:	04812d83          	lw	x27,72(x2)
    3670:	0ae103a3          	sb	x14,167(x2)
    3674:	00000a13          	addi	x20,x0,0
    3678:	001c0c13          	addi	x24,x24,1
    367c:	a8dfe06f          	jal	x0,2108 <_vfprintf_r+0x224>
    3680:	00c12683          	lw	x13,12(x2)
    3684:	010df793          	andi	x15,x27,16
    3688:	0006a703          	lw	x14,0(x13)
    368c:	00468693          	addi	x13,x13,4
    3690:	00d12623          	sw	x13,12(x2)
    3694:	06079663          	bne	x15,x0,3700 <_vfprintf_r+0x181c>
    3698:	040df793          	andi	x15,x27,64
    369c:	04078e63          	beq	x15,x0,36f8 <_vfprintf_r+0x1814>
    36a0:	01071b13          	slli	x22,x14,0x10
    36a4:	010b5b13          	srli	x22,x22,0x10
    36a8:	00000813          	addi	x16,x0,0
    36ac:	c4dff06f          	jal	x0,32f8 <_vfprintf_r+0x1414>
    36b0:	0c410613          	addi	x12,x2,196
    36b4:	00048593          	addi	x11,x9,0
    36b8:	000b8513          	addi	x10,x23,0
    36bc:	2b8010ef          	jal	x1,4974 <__sprint_r>
    36c0:	ec051063          	bne	x10,x0,2d80 <_vfprintf_r+0xe9c>
    36c4:	0cc12603          	lw	x12,204(x2)
    36c8:	0c812a03          	lw	x20,200(x2)
    36cc:	00098b13          	addi	x22,x19,0
    36d0:	ee9fe06f          	jal	x0,25b8 <_vfprintf_r+0x6d4>
    36d4:	0c410613          	addi	x12,x2,196
    36d8:	00048593          	addi	x11,x9,0
    36dc:	000b8513          	addi	x10,x23,0
    36e0:	294010ef          	jal	x1,4974 <__sprint_r>
    36e4:	e8051e63          	bne	x10,x0,2d80 <_vfprintf_r+0xe9c>
    36e8:	0cc12603          	lw	x12,204(x2)
    36ec:	0c812a03          	lw	x20,200(x2)
    36f0:	00098b13          	addi	x22,x19,0
    36f4:	ef5fe06f          	jal	x0,25e8 <_vfprintf_r+0x704>
    36f8:	200df793          	andi	x15,x27,512
    36fc:	68079a63          	bne	x15,x0,3d90 <_vfprintf_r+0x1eac>
    3700:	00070b13          	addi	x22,x14,0
    3704:	00000813          	addi	x16,x0,0
    3708:	bf1ff06f          	jal	x0,32f8 <_vfprintf_r+0x1414>
    370c:	19010c13          	addi	x24,x2,400
    3710:	01212423          	sw	x18,8(x2)
    3714:	02812023          	sw	x8,32(x2)
    3718:	02912a23          	sw	x9,52(x2)
    371c:	03812403          	lw	x8,56(x2)
    3720:	40067d93          	andi	x27,x12,1024
    3724:	00000d13          	addi	x26,x0,0
    3728:	01112a23          	sw	x17,20(x2)
    372c:	00c12e23          	sw	x12,28(x2)
    3730:	000c0493          	addi	x9,x24,0
    3734:	00080913          	addi	x18,x16,0
    3738:	0280006f          	jal	x0,3760 <_vfprintf_r+0x187c>
    373c:	00a00613          	addi	x12,x0,10
    3740:	00000693          	addi	x13,x0,0
    3744:	000b0513          	addi	x10,x22,0
    3748:	00090593          	addi	x11,x18,0
    374c:	760080ef          	jal	x1,beac <__udivdi3>
    3750:	3e0902e3          	beq	x18,x0,4334 <_vfprintf_r+0x2450>
    3754:	00050b13          	addi	x22,x10,0
    3758:	00058913          	addi	x18,x11,0
    375c:	000c0493          	addi	x9,x24,0
    3760:	00a00613          	addi	x12,x0,10
    3764:	00000693          	addi	x13,x0,0
    3768:	000b0513          	addi	x10,x22,0
    376c:	00090593          	addi	x11,x18,0
    3770:	501080ef          	jal	x1,c470 <__umoddi3>
    3774:	03050513          	addi	x10,x10,48
    3778:	fea48fa3          	sb	x10,-1(x9)
    377c:	fff48c13          	addi	x24,x9,-1
    3780:	001d0d13          	addi	x26,x26,1
    3784:	fa0d8ce3          	beq	x27,x0,373c <_vfprintf_r+0x1858>
    3788:	00044783          	lbu	x15,0(x8)
    378c:	fafd18e3          	bne	x26,x15,373c <_vfprintf_r+0x1858>
    3790:	0ff00793          	addi	x15,x0,255
    3794:	fafd04e3          	beq	x26,x15,373c <_vfprintf_r+0x1858>
    3798:	52091063          	bne	x18,x0,3cb8 <_vfprintf_r+0x1dd4>
    379c:	00900793          	addi	x15,x0,9
    37a0:	5167ec63          	bltu	x15,x22,3cb8 <_vfprintf_r+0x1dd4>
    37a4:	01c12603          	lw	x12,28(x2)
    37a8:	01a12c23          	sw	x26,24(x2)
    37ac:	19010793          	addi	x15,x2,400
    37b0:	000c0d13          	addi	x26,x24,0
    37b4:	02812c23          	sw	x8,56(x2)
    37b8:	00812903          	lw	x18,8(x2)
    37bc:	01412883          	lw	x17,20(x2)
    37c0:	02012403          	lw	x8,32(x2)
    37c4:	03412483          	lw	x9,52(x2)
    37c8:	41a78b33          	sub	x22,x15,x26
    37cc:	00060d93          	addi	x27,x12,0
    37d0:	b9dfe06f          	jal	x0,236c <_vfprintf_r+0x488>
    37d4:	0c812703          	lw	x14,200(x2)
    37d8:	000125b7          	lui	x11,0x12
    37dc:	f1458593          	addi	x11,x11,-236 # 11f14 <__clzsi2+0x324>
    37e0:	00b42023          	sw	x11,0(x8)
    37e4:	00160613          	addi	x12,x12,1
    37e8:	00100593          	addi	x11,x0,1
    37ec:	00170713          	addi	x14,x14,1
    37f0:	00b42223          	sw	x11,4(x8)
    37f4:	0cc12623          	sw	x12,204(x2)
    37f8:	0ce12423          	sw	x14,200(x2)
    37fc:	00700593          	addi	x11,x0,7
    3800:	00840413          	addi	x8,x8,8
    3804:	4ee5ca63          	blt	x11,x14,3cf8 <_vfprintf_r+0x1e14>
    3808:	14051063          	bne	x10,x0,3948 <_vfprintf_r+0x1a64>
    380c:	01812783          	lw	x15,24(x2)
    3810:	001df713          	andi	x14,x27,1
    3814:	00f76733          	or	x14,x14,x15
    3818:	00071463          	bne	x14,x0,3820 <_vfprintf_r+0x193c>
    381c:	9b9fe06f          	jal	x0,21d4 <_vfprintf_r+0x2f0>
    3820:	02c12703          	lw	x14,44(x2)
    3824:	02812783          	lw	x15,40(x2)
    3828:	00700593          	addi	x11,x0,7
    382c:	00e42023          	sw	x14,0(x8)
    3830:	0c812703          	lw	x14,200(x2)
    3834:	00c78633          	add	x12,x15,x12
    3838:	00f42223          	sw	x15,4(x8)
    383c:	00170713          	addi	x14,x14,1
    3840:	0cc12623          	sw	x12,204(x2)
    3844:	0ce12423          	sw	x14,200(x2)
    3848:	58e5c263          	blt	x11,x14,3dcc <_vfprintf_r+0x1ee8>
    384c:	00840413          	addi	x8,x8,8
    3850:	12c0006f          	jal	x0,397c <_vfprintf_r+0x1a98>
    3854:	02412503          	lw	x10,36(x2)
    3858:	814fd0ef          	jal	x1,86c <__sinit>
    385c:	ee8fe06f          	jal	x0,1f44 <_vfprintf_r+0x60>
    3860:	0c410613          	addi	x12,x2,196
    3864:	00048593          	addi	x11,x9,0
    3868:	000b8513          	addi	x10,x23,0
    386c:	108010ef          	jal	x1,4974 <__sprint_r>
    3870:	d0051863          	bne	x10,x0,2d80 <_vfprintf_r+0xe9c>
    3874:	0cc12603          	lw	x12,204(x2)
    3878:	00098413          	addi	x8,x19,0
    387c:	a00ff06f          	jal	x0,2a7c <_vfprintf_r+0xb98>
    3880:	00090813          	addi	x16,x18,0
    3884:	01412903          	lw	x18,20(x2)
    3888:	01042023          	sw	x16,0(x8)
    388c:	01442223          	sw	x20,4(x8)
    3890:	01460633          	add	x12,x12,x20
    3894:	00178793          	addi	x15,x15,1
    3898:	0cc12623          	sw	x12,204(x2)
    389c:	0cf12423          	sw	x15,200(x2)
    38a0:	00700713          	addi	x14,x0,7
    38a4:	00f74463          	blt	x14,x15,38ac <_vfprintf_r+0x19c8>
    38a8:	929fe06f          	jal	x0,21d0 <_vfprintf_r+0x2ec>
    38ac:	de1fe06f          	jal	x0,268c <_vfprintf_r+0x7a8>
    38b0:	0d012783          	lw	x15,208(x2)
    38b4:	08010593          	addi	x11,x2,128
    38b8:	09010513          	addi	x10,x2,144
    38bc:	08f12823          	sw	x15,144(x2)
    38c0:	0d412783          	lw	x15,212(x2)
    38c4:	08012023          	sw	x0,128(x2)
    38c8:	08012223          	sw	x0,132(x2)
    38cc:	08f12a23          	sw	x15,148(x2)
    38d0:	0d812783          	lw	x15,216(x2)
    38d4:	08012423          	sw	x0,136(x2)
    38d8:	08012623          	sw	x0,140(x2)
    38dc:	08f12c23          	sw	x15,152(x2)
    38e0:	0dc12783          	lw	x15,220(x2)
    38e4:	08f12e23          	sw	x15,156(x2)
    38e8:	38c0b0ef          	jal	x1,ec74 <__letf2>
    38ec:	00812883          	lw	x17,8(x2)
    38f0:	240548e3          	blt	x10,x0,4340 <_vfprintf_r+0x245c>
    38f4:	0a714703          	lbu	x14,167(x2)
    38f8:	04700793          	addi	x15,x0,71
    38fc:	4317d263          	bge	x15,x17,3d20 <_vfprintf_r+0x1e3c>
    3900:	000127b7          	lui	x15,0x12
    3904:	ed878d13          	addi	x26,x15,-296 # 11ed8 <__clzsi2+0x2e8>
    3908:	00012423          	sw	x0,8(x2)
    390c:	02012023          	sw	x0,32(x2)
    3910:	00012e23          	sw	x0,28(x2)
    3914:	00012a23          	sw	x0,20(x2)
    3918:	f7fdfd93          	andi	x27,x27,-129
    391c:	00300c13          	addi	x24,x0,3
    3920:	00300b13          	addi	x22,x0,3
    3924:	00000a13          	addi	x20,x0,0
    3928:	00070463          	beq	x14,x0,3930 <_vfprintf_r+0x1a4c>
    392c:	a65fe06f          	jal	x0,2390 <_vfprintf_r+0x4ac>
    3930:	fd8fe06f          	jal	x0,2108 <_vfprintf_r+0x224>
    3934:	00c12783          	lw	x15,12(x2)
    3938:	00412703          	lw	x14,4(x2)
    393c:	0007a783          	lw	x15,0(x15)
    3940:	00e7a023          	sw	x14,0(x15)
    3944:	fe9fe06f          	jal	x0,292c <_vfprintf_r+0xa48>
    3948:	02c12703          	lw	x14,44(x2)
    394c:	02812783          	lw	x15,40(x2)
    3950:	00700593          	addi	x11,x0,7
    3954:	00e42023          	sw	x14,0(x8)
    3958:	0c812703          	lw	x14,200(x2)
    395c:	00c78633          	add	x12,x15,x12
    3960:	00f42223          	sw	x15,4(x8)
    3964:	00170713          	addi	x14,x14,1
    3968:	0cc12623          	sw	x12,204(x2)
    396c:	0ce12423          	sw	x14,200(x2)
    3970:	00840413          	addi	x8,x8,8
    3974:	44e5cc63          	blt	x11,x14,3dcc <_vfprintf_r+0x1ee8>
    3978:	340542e3          	blt	x10,x0,44bc <_vfprintf_r+0x25d8>
    397c:	01812783          	lw	x15,24(x2)
    3980:	00170713          	addi	x14,x14,1
    3984:	01a42023          	sw	x26,0(x8)
    3988:	00c78633          	add	x12,x15,x12
    398c:	00f42223          	sw	x15,4(x8)
    3990:	0cc12623          	sw	x12,204(x2)
    3994:	0ce12423          	sw	x14,200(x2)
    3998:	00700793          	addi	x15,x0,7
    399c:	00e7c463          	blt	x15,x14,39a4 <_vfprintf_r+0x1ac0>
    39a0:	831fe06f          	jal	x0,21d0 <_vfprintf_r+0x2ec>
    39a4:	ce9fe06f          	jal	x0,268c <_vfprintf_r+0x7a8>
    39a8:	000d0513          	addi	x10,x26,0
    39ac:	01012423          	sw	x16,8(x2)
    39b0:	03112a23          	sw	x17,52(x2)
    39b4:	ed8fd0ef          	jal	x1,108c <strlen>
    39b8:	00812803          	lw	x16,8(x2)
    39bc:	0a714703          	lbu	x14,167(x2)
    39c0:	fff54693          	xori	x13,x10,-1
    39c4:	41f6d693          	srai	x13,x13,0x1f
    39c8:	01012623          	sw	x16,12(x2)
    39cc:	00012423          	sw	x0,8(x2)
    39d0:	02012023          	sw	x0,32(x2)
    39d4:	00012e23          	sw	x0,28(x2)
    39d8:	00012a23          	sw	x0,20(x2)
    39dc:	03412883          	lw	x17,52(x2)
    39e0:	00050b13          	addi	x22,x10,0
    39e4:	00d57c33          	and	x24,x10,x13
    39e8:	00000a13          	addi	x20,x0,0
    39ec:	00070463          	beq	x14,x0,39f4 <_vfprintf_r+0x1b10>
    39f0:	9a1fe06f          	jal	x0,2390 <_vfprintf_r+0x4ac>
    39f4:	f14fe06f          	jal	x0,2108 <_vfprintf_r+0x224>
    39f8:	00090813          	addi	x16,x18,0
    39fc:	01412903          	lw	x18,20(x2)
    3a00:	00860633          	add	x12,x12,x8
    3a04:	001a0a13          	addi	x20,x20,1
    3a08:	010b2023          	sw	x16,0(x22)
    3a0c:	c3dfe06f          	jal	x0,2648 <_vfprintf_r+0x764>
    3a10:	0dc12783          	lw	x15,220(x2)
    3a14:	3807ca63          	blt	x15,x0,3da8 <_vfprintf_r+0x1ec4>
    3a18:	0a714703          	lbu	x14,167(x2)
    3a1c:	04700793          	addi	x15,x0,71
    3a20:	1517cee3          	blt	x15,x17,437c <_vfprintf_r+0x2498>
    3a24:	000127b7          	lui	x15,0x12
    3a28:	edc78d13          	addi	x26,x15,-292 # 11edc <__clzsi2+0x2ec>
    3a2c:	eddff06f          	jal	x0,3908 <_vfprintf_r+0x1a24>
    3a30:	00090813          	addi	x16,x18,0
    3a34:	03412903          	lw	x18,52(x2)
    3a38:	01460633          	add	x12,x12,x20
    3a3c:	00170713          	addi	x14,x14,1
    3a40:	01042023          	sw	x16,0(x8)
    3a44:	01442223          	sw	x20,4(x8)
    3a48:	0cc12623          	sw	x12,204(x2)
    3a4c:	0ce12423          	sw	x14,200(x2)
    3a50:	00700593          	addi	x11,x0,7
    3a54:	00840413          	addi	x8,x8,8
    3a58:	d8e5d863          	bge	x11,x14,2fe8 <_vfprintf_r+0x1104>
    3a5c:	0c410613          	addi	x12,x2,196
    3a60:	00048593          	addi	x11,x9,0
    3a64:	000b8513          	addi	x10,x23,0
    3a68:	70d000ef          	jal	x1,4974 <__sprint_r>
    3a6c:	b0051a63          	bne	x10,x0,2d80 <_vfprintf_r+0xe9c>
    3a70:	0cc12603          	lw	x12,204(x2)
    3a74:	00098413          	addi	x8,x19,0
    3a78:	d70ff06f          	jal	x0,2fe8 <_vfprintf_r+0x1104>
    3a7c:	01812783          	lw	x15,24(x2)
    3a80:	01c12b03          	lw	x22,28(x2)
    3a84:	000128b7          	lui	x17,0x12
    3a88:	00fd07b3          	add	x15,x26,x15
    3a8c:	03212a23          	sw	x18,52(x2)
    3a90:	05912623          	sw	x25,76(x2)
    3a94:	01812e23          	sw	x24,28(x2)
    3a98:	05a12823          	sw	x26,80(x2)
    3a9c:	05b12423          	sw	x27,72(x2)
    3aa0:	000a0c93          	addi	x25,x20,0
    3aa4:	00040693          	addi	x13,x8,0
    3aa8:	04012a03          	lw	x20,64(x2)
    3aac:	04412403          	lw	x8,68(x2)
    3ab0:	03812c03          	lw	x24,56(x2)
    3ab4:	02012d03          	lw	x26,32(x2)
    3ab8:	00700813          	addi	x16,x0,7
    3abc:	01000713          	addi	x14,x0,16
    3ac0:	36088893          	addi	x17,x17,864 # 12360 <zeroes.0>
    3ac4:	00078913          	addi	x18,x15,0
    3ac8:	09605463          	bge	x0,x22,3b50 <_vfprintf_r+0x1c6c>
    3acc:	17a05e63          	bge	x0,x26,3c48 <_vfprintf_r+0x1d64>
    3ad0:	fffd0d13          	addi	x26,x26,-1
    3ad4:	0c812783          	lw	x15,200(x2)
    3ad8:	01460633          	add	x12,x12,x20
    3adc:	0086a023          	sw	x8,0(x13)
    3ae0:	00178793          	addi	x15,x15,1
    3ae4:	0146a223          	sw	x20,4(x13)
    3ae8:	0cc12623          	sw	x12,204(x2)
    3aec:	0cf12423          	sw	x15,200(x2)
    3af0:	00868693          	addi	x13,x13,8
    3af4:	16f84063          	blt	x16,x15,3c54 <_vfprintf_r+0x1d70>
    3af8:	000c4583          	lbu	x11,0(x24)
    3afc:	41990db3          	sub	x27,x18,x25
    3b00:	01b5d463          	bge	x11,x27,3b08 <_vfprintf_r+0x1c24>
    3b04:	00058d93          	addi	x27,x11,0
    3b08:	03b05663          	bge	x0,x27,3b34 <_vfprintf_r+0x1c50>
    3b0c:	0c812583          	lw	x11,200(x2)
    3b10:	01b60633          	add	x12,x12,x27
    3b14:	0196a023          	sw	x25,0(x13)
    3b18:	00158593          	addi	x11,x11,1
    3b1c:	01b6a223          	sw	x27,4(x13)
    3b20:	0cc12623          	sw	x12,204(x2)
    3b24:	0cb12423          	sw	x11,200(x2)
    3b28:	14b84e63          	blt	x16,x11,3c84 <_vfprintf_r+0x1da0>
    3b2c:	000c4583          	lbu	x11,0(x24)
    3b30:	00868693          	addi	x13,x13,8
    3b34:	fffdc513          	xori	x10,x27,-1
    3b38:	41f55513          	srai	x10,x10,0x1f
    3b3c:	00adf7b3          	and	x15,x27,x10
    3b40:	40f58db3          	sub	x27,x11,x15
    3b44:	05b04263          	blt	x0,x27,3b88 <_vfprintf_r+0x1ca4>
    3b48:	00bc8cb3          	add	x25,x25,x11
    3b4c:	f96040e3          	blt	x0,x22,3acc <_vfprintf_r+0x1be8>
    3b50:	f9a040e3          	blt	x0,x26,3ad0 <_vfprintf_r+0x1bec>
    3b54:	05012d03          	lw	x26,80(x2)
    3b58:	01812783          	lw	x15,24(x2)
    3b5c:	03812c23          	sw	x24,56(x2)
    3b60:	000c8a13          	addi	x20,x25,0
    3b64:	00fd0733          	add	x14,x26,x15
    3b68:	03412903          	lw	x18,52(x2)
    3b6c:	04812d83          	lw	x27,72(x2)
    3b70:	04c12c83          	lw	x25,76(x2)
    3b74:	01c12c03          	lw	x24,28(x2)
    3b78:	00068413          	addi	x8,x13,0
    3b7c:	c7477e63          	bgeu	x14,x20,2ff8 <_vfprintf_r+0x1114>
    3b80:	00070a13          	addi	x20,x14,0
    3b84:	c74ff06f          	jal	x0,2ff8 <_vfprintf_r+0x1114>
    3b88:	00012fb7          	lui	x31,0x12
    3b8c:	0c812583          	lw	x11,200(x2)
    3b90:	360f8f93          	addi	x31,x31,864 # 12360 <zeroes.0>
    3b94:	09b75463          	bge	x14,x27,3c1c <_vfprintf_r+0x1d38>
    3b98:	00812a23          	sw	x8,20(x2)
    3b9c:	000d8413          	addi	x8,x27,0
    3ba0:	00090d93          	addi	x27,x18,0
    3ba4:	00088913          	addi	x18,x17,0
    3ba8:	00c0006f          	jal	x0,3bb4 <_vfprintf_r+0x1cd0>
    3bac:	ff040413          	addi	x8,x8,-16
    3bb0:	04875e63          	bge	x14,x8,3c0c <_vfprintf_r+0x1d28>
    3bb4:	01060613          	addi	x12,x12,16
    3bb8:	00158593          	addi	x11,x11,1
    3bbc:	0116a023          	sw	x17,0(x13)
    3bc0:	00e6a223          	sw	x14,4(x13)
    3bc4:	0cc12623          	sw	x12,204(x2)
    3bc8:	0cb12423          	sw	x11,200(x2)
    3bcc:	00868693          	addi	x13,x13,8
    3bd0:	fcb85ee3          	bge	x16,x11,3bac <_vfprintf_r+0x1cc8>
    3bd4:	0c410613          	addi	x12,x2,196
    3bd8:	00048593          	addi	x11,x9,0
    3bdc:	000b8513          	addi	x10,x23,0
    3be0:	595000ef          	jal	x1,4974 <__sprint_r>
    3be4:	98051e63          	bne	x10,x0,2d80 <_vfprintf_r+0xe9c>
    3be8:	000127b7          	lui	x15,0x12
    3bec:	01000713          	addi	x14,x0,16
    3bf0:	ff040413          	addi	x8,x8,-16
    3bf4:	0cc12603          	lw	x12,204(x2)
    3bf8:	0c812583          	lw	x11,200(x2)
    3bfc:	00098693          	addi	x13,x19,0
    3c00:	36078893          	addi	x17,x15,864 # 12360 <zeroes.0>
    3c04:	00700813          	addi	x16,x0,7
    3c08:	fa8746e3          	blt	x14,x8,3bb4 <_vfprintf_r+0x1cd0>
    3c0c:	00090f93          	addi	x31,x18,0
    3c10:	000d8913          	addi	x18,x27,0
    3c14:	00040d93          	addi	x27,x8,0
    3c18:	01412403          	lw	x8,20(x2)
    3c1c:	01b60633          	add	x12,x12,x27
    3c20:	00158593          	addi	x11,x11,1
    3c24:	01f6a023          	sw	x31,0(x13)
    3c28:	01b6a223          	sw	x27,4(x13)
    3c2c:	0cc12623          	sw	x12,204(x2)
    3c30:	0cb12423          	sw	x11,200(x2)
    3c34:	6cb84263          	blt	x16,x11,42f8 <_vfprintf_r+0x2414>
    3c38:	000c4583          	lbu	x11,0(x24)
    3c3c:	00868693          	addi	x13,x13,8
    3c40:	00bc8cb3          	add	x25,x25,x11
    3c44:	f09ff06f          	jal	x0,3b4c <_vfprintf_r+0x1c68>
    3c48:	fffc0c13          	addi	x24,x24,-1
    3c4c:	fffb0b13          	addi	x22,x22,-1
    3c50:	e85ff06f          	jal	x0,3ad4 <_vfprintf_r+0x1bf0>
    3c54:	0c410613          	addi	x12,x2,196
    3c58:	00048593          	addi	x11,x9,0
    3c5c:	000b8513          	addi	x10,x23,0
    3c60:	515000ef          	jal	x1,4974 <__sprint_r>
    3c64:	90051e63          	bne	x10,x0,2d80 <_vfprintf_r+0xe9c>
    3c68:	000127b7          	lui	x15,0x12
    3c6c:	0cc12603          	lw	x12,204(x2)
    3c70:	00098693          	addi	x13,x19,0
    3c74:	36078893          	addi	x17,x15,864 # 12360 <zeroes.0>
    3c78:	01000713          	addi	x14,x0,16
    3c7c:	00700813          	addi	x16,x0,7
    3c80:	e79ff06f          	jal	x0,3af8 <_vfprintf_r+0x1c14>
    3c84:	0c410613          	addi	x12,x2,196
    3c88:	00048593          	addi	x11,x9,0
    3c8c:	000b8513          	addi	x10,x23,0
    3c90:	4e5000ef          	jal	x1,4974 <__sprint_r>
    3c94:	8e051663          	bne	x10,x0,2d80 <_vfprintf_r+0xe9c>
    3c98:	000127b7          	lui	x15,0x12
    3c9c:	000c4583          	lbu	x11,0(x24)
    3ca0:	0cc12603          	lw	x12,204(x2)
    3ca4:	00098693          	addi	x13,x19,0
    3ca8:	36078893          	addi	x17,x15,864 # 12360 <zeroes.0>
    3cac:	01000713          	addi	x14,x0,16
    3cb0:	00700813          	addi	x16,x0,7
    3cb4:	e81ff06f          	jal	x0,3b34 <_vfprintf_r+0x1c50>
    3cb8:	04012783          	lw	x15,64(x2)
    3cbc:	04412583          	lw	x11,68(x2)
    3cc0:	00000d13          	addi	x26,x0,0
    3cc4:	40fc0c33          	sub	x24,x24,x15
    3cc8:	00078613          	addi	x12,x15,0
    3ccc:	000c0513          	addi	x10,x24,0
    3cd0:	050030ef          	jal	x1,6d20 <strncpy>
    3cd4:	00144783          	lbu	x15,1(x8)
    3cd8:	00a00613          	addi	x12,x0,10
    3cdc:	00000693          	addi	x13,x0,0
    3ce0:	00f037b3          	sltu	x15,x0,x15
    3ce4:	000b0513          	addi	x10,x22,0
    3ce8:	00090593          	addi	x11,x18,0
    3cec:	00f40433          	add	x8,x8,x15
    3cf0:	1bc080ef          	jal	x1,beac <__udivdi3>
    3cf4:	a61ff06f          	jal	x0,3754 <_vfprintf_r+0x1870>
    3cf8:	0c410613          	addi	x12,x2,196
    3cfc:	00048593          	addi	x11,x9,0
    3d00:	000b8513          	addi	x10,x23,0
    3d04:	471000ef          	jal	x1,4974 <__sprint_r>
    3d08:	00050463          	beq	x10,x0,3d10 <_vfprintf_r+0x1e2c>
    3d0c:	874ff06f          	jal	x0,2d80 <_vfprintf_r+0xe9c>
    3d10:	0ac12503          	lw	x10,172(x2)
    3d14:	0cc12603          	lw	x12,204(x2)
    3d18:	00098413          	addi	x8,x19,0
    3d1c:	aedff06f          	jal	x0,3808 <_vfprintf_r+0x1924>
    3d20:	000127b7          	lui	x15,0x12
    3d24:	ed478d13          	addi	x26,x15,-300 # 11ed4 <__clzsi2+0x2e4>
    3d28:	be1ff06f          	jal	x0,3908 <_vfprintf_r+0x1a24>
    3d2c:	0c410613          	addi	x12,x2,196
    3d30:	00048593          	addi	x11,x9,0
    3d34:	000b8513          	addi	x10,x23,0
    3d38:	43d000ef          	jal	x1,4974 <__sprint_r>
    3d3c:	00050463          	beq	x10,x0,3d44 <_vfprintf_r+0x1e60>
    3d40:	840ff06f          	jal	x0,2d80 <_vfprintf_r+0xe9c>
    3d44:	0cc12603          	lw	x12,204(x2)
    3d48:	00098413          	addi	x8,x19,0
    3d4c:	a84ff06f          	jal	x0,2fd0 <_vfprintf_r+0x10ec>
    3d50:	00600b13          	addi	x22,x0,6
    3d54:	e34ff06f          	jal	x0,3388 <_vfprintf_r+0x14a4>
    3d58:	00c12783          	lw	x15,12(x2)
    3d5c:	00412703          	lw	x14,4(x2)
    3d60:	0007a783          	lw	x15,0(x15)
    3d64:	00e79023          	sh	x14,0(x15)
    3d68:	bc5fe06f          	jal	x0,292c <_vfprintf_r+0xa48>
    3d6c:	0ff77b13          	andi	x22,x14,255
    3d70:	00000813          	addi	x16,x0,0
    3d74:	00100793          	addi	x15,x0,1
    3d78:	e50fe06f          	jal	x0,23c8 <_vfprintf_r+0x4e4>
    3d7c:	01871b13          	slli	x22,x14,0x18
    3d80:	418b5b13          	srai	x22,x22,0x18
    3d84:	41fb5813          	srai	x16,x22,0x1f
    3d88:	00080793          	addi	x15,x16,0
    3d8c:	db8fe06f          	jal	x0,2344 <_vfprintf_r+0x460>
    3d90:	0ff77b13          	andi	x22,x14,255
    3d94:	00000813          	addi	x16,x0,0
    3d98:	d60ff06f          	jal	x0,32f8 <_vfprintf_r+0x1414>
    3d9c:	0ff77b13          	andi	x22,x14,255
    3da0:	00000813          	addi	x16,x0,0
    3da4:	e1cfe06f          	jal	x0,23c0 <_vfprintf_r+0x4dc>
    3da8:	02d00793          	addi	x15,x0,45
    3dac:	0af103a3          	sb	x15,167(x2)
    3db0:	02d00713          	addi	x14,x0,45
    3db4:	c69ff06f          	jal	x0,3a1c <_vfprintf_r+0x1b38>
    3db8:	02412503          	lw	x10,36(x2)
    3dbc:	0c410613          	addi	x12,x2,196
    3dc0:	00048593          	addi	x11,x9,0
    3dc4:	3b1000ef          	jal	x1,4974 <__sprint_r>
    3dc8:	c6cfe06f          	jal	x0,2234 <_vfprintf_r+0x350>
    3dcc:	0c410613          	addi	x12,x2,196
    3dd0:	00048593          	addi	x11,x9,0
    3dd4:	000b8513          	addi	x10,x23,0
    3dd8:	39d000ef          	jal	x1,4974 <__sprint_r>
    3ddc:	00050463          	beq	x10,x0,3de4 <_vfprintf_r+0x1f00>
    3de0:	fa1fe06f          	jal	x0,2d80 <_vfprintf_r+0xe9c>
    3de4:	0ac12503          	lw	x10,172(x2)
    3de8:	0cc12603          	lw	x12,204(x2)
    3dec:	0c812703          	lw	x14,200(x2)
    3df0:	00098413          	addi	x8,x19,0
    3df4:	b85ff06f          	jal	x0,3978 <_vfprintf_r+0x1a94>
    3df8:	01450733          	add	x14,x10,x20
    3dfc:	04700613          	addi	x12,x0,71
    3e00:	08010593          	addi	x11,x2,128
    3e04:	000b0513          	addi	x10,x22,0
    3e08:	00e12e23          	sw	x14,28(x2)
    3e0c:	00c12c23          	sw	x12,24(x2)
    3e10:	01112a23          	sw	x17,20(x2)
    3e14:	09f12823          	sw	x31,144(x2)
    3e18:	09e12a23          	sw	x30,148(x2)
    3e1c:	09d12c23          	sw	x29,152(x2)
    3e20:	09812e23          	sw	x24,156(x2)
    3e24:	08012023          	sw	x0,128(x2)
    3e28:	08012223          	sw	x0,132(x2)
    3e2c:	08012423          	sw	x0,136(x2)
    3e30:	08012623          	sw	x0,140(x2)
    3e34:	4450a0ef          	jal	x1,ea78 <__eqtf2>
    3e38:	01412883          	lw	x17,20(x2)
    3e3c:	01812603          	lw	x12,24(x2)
    3e40:	01c12703          	lw	x14,28(x2)
    3e44:	56050a63          	beq	x10,x0,43b8 <_vfprintf_r+0x24d4>
    3e48:	0bc12783          	lw	x15,188(x2)
    3e4c:	00e7fe63          	bgeu	x15,x14,3e68 <_vfprintf_r+0x1f84>
    3e50:	03000593          	addi	x11,x0,48
    3e54:	00178693          	addi	x13,x15,1
    3e58:	0ad12e23          	sw	x13,188(x2)
    3e5c:	00b78023          	sb	x11,0(x15)
    3e60:	0bc12783          	lw	x15,188(x2)
    3e64:	fee7e8e3          	bltu	x15,x14,3e54 <_vfprintf_r+0x1f70>
    3e68:	0ac12703          	lw	x14,172(x2)
    3e6c:	00e12a23          	sw	x14,20(x2)
    3e70:	41a787b3          	sub	x15,x15,x26
    3e74:	04700713          	addi	x14,x0,71
    3e78:	00f12c23          	sw	x15,24(x2)
    3e7c:	eae60663          	beq	x12,x14,3528 <_vfprintf_r+0x1644>
    3e80:	04600713          	addi	x14,x0,70
    3e84:	5ce60a63          	beq	x12,x14,4458 <_vfprintf_r+0x2574>
    3e88:	01412783          	lw	x15,20(x2)
    3e8c:	fff78a13          	addi	x20,x15,-1
    3e90:	eb4ff06f          	jal	x0,3544 <_vfprintf_r+0x1660>
    3e94:	001a0693          	addi	x13,x20,1
    3e98:	00200613          	addi	x12,x0,2
    3e9c:	09010b13          	addi	x22,x2,144
    3ea0:	0ac10713          	addi	x14,x2,172
    3ea4:	000b0593          	addi	x11,x22,0
    3ea8:	0bc10813          	addi	x16,x2,188
    3eac:	0b010793          	addi	x15,x2,176
    3eb0:	000b8513          	addi	x10,x23,0
    3eb4:	05112623          	sw	x17,76(x2)
    3eb8:	02d12023          	sw	x13,32(x2)
    3ebc:	09f12823          	sw	x31,144(x2)
    3ec0:	01f12e23          	sw	x31,28(x2)
    3ec4:	09e12a23          	sw	x30,148(x2)
    3ec8:	01e12c23          	sw	x30,24(x2)
    3ecc:	09d12c23          	sw	x29,152(x2)
    3ed0:	01d12a23          	sw	x29,20(x2)
    3ed4:	09812e23          	sw	x24,156(x2)
    3ed8:	620030ef          	jal	x1,74f8 <_ldtoa_r>
    3edc:	04c12883          	lw	x17,76(x2)
    3ee0:	02012683          	lw	x13,32(x2)
    3ee4:	04600593          	addi	x11,x0,70
    3ee8:	fdf8f613          	andi	x12,x17,-33
    3eec:	01412e83          	lw	x29,20(x2)
    3ef0:	01812f03          	lw	x30,24(x2)
    3ef4:	01c12f83          	lw	x31,28(x2)
    3ef8:	00050d13          	addi	x26,x10,0
    3efc:	00d50733          	add	x14,x10,x13
    3f00:	04b618e3          	bne	x12,x11,4750 <_vfprintf_r+0x286c>
    3f04:	000d4503          	lbu	x10,0(x26)
    3f08:	03000593          	addi	x11,x0,48
    3f0c:	4cb50463          	beq	x10,x11,43d4 <_vfprintf_r+0x24f0>
    3f10:	0ac12683          	lw	x13,172(x2)
    3f14:	08010593          	addi	x11,x2,128
    3f18:	00d70733          	add	x14,x14,x13
    3f1c:	ee9ff06f          	jal	x0,3e04 <_vfprintf_r+0x1f20>
    3f20:	09010b13          	addi	x22,x2,144
    3f24:	08010593          	addi	x11,x2,128
    3f28:	0ac10613          	addi	x12,x2,172
    3f2c:	000b0513          	addi	x10,x22,0
    3f30:	05112423          	sw	x17,72(x2)
    3f34:	09f12023          	sw	x31,128(x2)
    3f38:	09e12223          	sw	x30,132(x2)
    3f3c:	09d12423          	sw	x29,136(x2)
    3f40:	00b12a23          	sw	x11,20(x2)
    3f44:	09812623          	sw	x24,140(x2)
    3f48:	42c030ef          	jal	x1,7374 <frexpl>
    3f4c:	09012703          	lw	x14,144(x2)
    3f50:	01412583          	lw	x11,20(x2)
    3f54:	07010613          	addi	x12,x2,112
    3f58:	08e12023          	sw	x14,128(x2)
    3f5c:	09412703          	lw	x14,148(x2)
    3f60:	000b0513          	addi	x10,x22,0
    3f64:	06012823          	sw	x0,112(x2)
    3f68:	08e12223          	sw	x14,132(x2)
    3f6c:	09812703          	lw	x14,152(x2)
    3f70:	06012a23          	sw	x0,116(x2)
    3f74:	06012c23          	sw	x0,120(x2)
    3f78:	08e12423          	sw	x14,136(x2)
    3f7c:	09c12703          	lw	x14,156(x2)
    3f80:	08e12623          	sw	x14,140(x2)
    3f84:	3ffc0737          	lui	x14,0x3ffc0
    3f88:	06e12e23          	sw	x14,124(x2)
    3f8c:	6190a0ef          	jal	x1,eda4 <__multf3>
    3f90:	01412583          	lw	x11,20(x2)
    3f94:	09012f03          	lw	x30,144(x2)
    3f98:	09412e83          	lw	x29,148(x2)
    3f9c:	09812803          	lw	x16,152(x2)
    3fa0:	09c12603          	lw	x12,156(x2)
    3fa4:	000b0513          	addi	x10,x22,0
    3fa8:	02b12e23          	sw	x11,60(x2)
    3fac:	03e12023          	sw	x30,32(x2)
    3fb0:	01d12e23          	sw	x29,28(x2)
    3fb4:	01012c23          	sw	x16,24(x2)
    3fb8:	00c12a23          	sw	x12,20(x2)
    3fbc:	08012023          	sw	x0,128(x2)
    3fc0:	08012223          	sw	x0,132(x2)
    3fc4:	08012423          	sw	x0,136(x2)
    3fc8:	08012623          	sw	x0,140(x2)
    3fcc:	2ad0a0ef          	jal	x1,ea78 <__eqtf2>
    3fd0:	01412603          	lw	x12,20(x2)
    3fd4:	01812803          	lw	x16,24(x2)
    3fd8:	01c12e83          	lw	x29,28(x2)
    3fdc:	02012f03          	lw	x30,32(x2)
    3fe0:	03c12583          	lw	x11,60(x2)
    3fe4:	04812883          	lw	x17,72(x2)
    3fe8:	00051663          	bne	x10,x0,3ff4 <_vfprintf_r+0x2110>
    3fec:	00100713          	addi	x14,x0,1
    3ff0:	0ae12623          	sw	x14,172(x2)
    3ff4:	06100713          	addi	x14,x0,97
    3ff8:	6ce88263          	beq	x17,x14,46bc <_vfprintf_r+0x27d8>
    3ffc:	00012737          	lui	x14,0x12
    4000:	ef870793          	addi	x15,x14,-264 # 11ef8 <__clzsi2+0x308>
    4004:	00f12a23          	sw	x15,20(x2)
    4008:	01212c23          	sw	x18,24(x2)
    400c:	03912e23          	sw	x25,60(x2)
    4010:	04812423          	sw	x8,72(x2)
    4014:	000d0913          	addi	x18,x26,0
    4018:	05712623          	sw	x23,76(x2)
    401c:	04912823          	sw	x9,80(x2)
    4020:	05a12a23          	sw	x26,84(x2)
    4024:	01412483          	lw	x9,20(x2)
    4028:	fffa0a13          	addi	x20,x20,-1
    402c:	01112e23          	sw	x17,28(x2)
    4030:	03b12023          	sw	x27,32(x2)
    4034:	000f0b93          	addi	x23,x30,0
    4038:	000e8c13          	addi	x24,x29,0
    403c:	00080c93          	addi	x25,x16,0
    4040:	00060d13          	addi	x26,x12,0
    4044:	00058413          	addi	x8,x11,0
    4048:	03c0006f          	jal	x0,4084 <_vfprintf_r+0x21a0>
    404c:	00040593          	addi	x11,x8,0
    4050:	000b0513          	addi	x10,x22,0
    4054:	09712823          	sw	x23,144(x2)
    4058:	09812a23          	sw	x24,148(x2)
    405c:	09912c23          	sw	x25,152(x2)
    4060:	09a12e23          	sw	x26,156(x2)
    4064:	08012023          	sw	x0,128(x2)
    4068:	08012223          	sw	x0,132(x2)
    406c:	08012423          	sw	x0,136(x2)
    4070:	08012623          	sw	x0,140(x2)
    4074:	fffa0d93          	addi	x27,x20,-1
    4078:	2010a0ef          	jal	x1,ea78 <__eqtf2>
    407c:	5e050463          	beq	x10,x0,4664 <_vfprintf_r+0x2780>
    4080:	000d8a13          	addi	x20,x27,0
    4084:	400307b7          	lui	x15,0x40030
    4088:	07010613          	addi	x12,x2,112
    408c:	00040593          	addi	x11,x8,0
    4090:	000b0513          	addi	x10,x22,0
    4094:	06f12e23          	sw	x15,124(x2)
    4098:	09712023          	sw	x23,128(x2)
    409c:	09812223          	sw	x24,132(x2)
    40a0:	09912423          	sw	x25,136(x2)
    40a4:	09a12623          	sw	x26,140(x2)
    40a8:	06012823          	sw	x0,112(x2)
    40ac:	06012a23          	sw	x0,116(x2)
    40b0:	06012c23          	sw	x0,120(x2)
    40b4:	4f10a0ef          	jal	x1,eda4 <__multf3>
    40b8:	000b0513          	addi	x10,x22,0
    40bc:	6080d0ef          	jal	x1,116c4 <__fixtfsi>
    40c0:	00050593          	addi	x11,x10,0
    40c4:	00050d93          	addi	x27,x10,0
    40c8:	000b0513          	addi	x10,x22,0
    40cc:	09012d03          	lw	x26,144(x2)
    40d0:	09412c83          	lw	x25,148(x2)
    40d4:	09812c03          	lw	x24,152(x2)
    40d8:	09c12b83          	lw	x23,156(x2)
    40dc:	6e00d0ef          	jal	x1,117bc <__floatsitf>
    40e0:	09012683          	lw	x13,144(x2)
    40e4:	06010613          	addi	x12,x2,96
    40e8:	07010593          	addi	x11,x2,112
    40ec:	06d12023          	sw	x13,96(x2)
    40f0:	09412683          	lw	x13,148(x2)
    40f4:	00040513          	addi	x10,x8,0
    40f8:	07a12823          	sw	x26,112(x2)
    40fc:	06d12223          	sw	x13,100(x2)
    4100:	09812683          	lw	x13,152(x2)
    4104:	07912a23          	sw	x25,116(x2)
    4108:	07812c23          	sw	x24,120(x2)
    410c:	06d12423          	sw	x13,104(x2)
    4110:	09c12683          	lw	x13,156(x2)
    4114:	07712e23          	sw	x23,124(x2)
    4118:	06d12623          	sw	x13,108(x2)
    411c:	03c0c0ef          	jal	x1,10158 <__subtf3>
    4120:	01b486b3          	add	x13,x9,x27
    4124:	0006c683          	lbu	x13,0(x13)
    4128:	00090f93          	addi	x31,x18,0
    412c:	00190913          	addi	x18,x18,1
    4130:	08012b83          	lw	x23,128(x2)
    4134:	08412c03          	lw	x24,132(x2)
    4138:	08812c83          	lw	x25,136(x2)
    413c:	08c12d03          	lw	x26,140(x2)
    4140:	fff00793          	addi	x15,x0,-1
    4144:	fed90fa3          	sb	x13,-1(x18)
    4148:	f0fa12e3          	bne	x20,x15,404c <_vfprintf_r+0x2168>
    414c:	000b8f13          	addi	x30,x23,0
    4150:	000c0e93          	addi	x29,x24,0
    4154:	000c8813          	addi	x16,x25,0
    4158:	000d0613          	addi	x12,x26,0
    415c:	00040593          	addi	x11,x8,0
    4160:	3ffe0a37          	lui	x20,0x3ffe0
    4164:	000b0513          	addi	x10,x22,0
    4168:	05f12e23          	sw	x31,92(x2)
    416c:	05b12c23          	sw	x27,88(x2)
    4170:	05012483          	lw	x9,80(x2)
    4174:	02012d83          	lw	x27,32(x2)
    4178:	04c12b83          	lw	x23,76(x2)
    417c:	03c12c83          	lw	x25,60(x2)
    4180:	04812403          	lw	x8,72(x2)
    4184:	09e12823          	sw	x30,144(x2)
    4188:	05e12823          	sw	x30,80(x2)
    418c:	09d12a23          	sw	x29,148(x2)
    4190:	05d12623          	sw	x29,76(x2)
    4194:	09012c23          	sw	x16,152(x2)
    4198:	05012423          	sw	x16,72(x2)
    419c:	08c12e23          	sw	x12,156(x2)
    41a0:	02c12e23          	sw	x12,60(x2)
    41a4:	08012023          	sw	x0,128(x2)
    41a8:	08012223          	sw	x0,132(x2)
    41ac:	08012423          	sw	x0,136(x2)
    41b0:	09412623          	sw	x20,140(x2)
    41b4:	02b12023          	sw	x11,32(x2)
    41b8:	18d0a0ef          	jal	x1,eb44 <__getf2>
    41bc:	00090c13          	addi	x24,x18,0
    41c0:	05412d03          	lw	x26,84(x2)
    41c4:	01812903          	lw	x18,24(x2)
    41c8:	01c12883          	lw	x17,28(x2)
    41cc:	05c12f83          	lw	x31,92(x2)
    41d0:	02a04663          	blt	x0,x10,41fc <_vfprintf_r+0x2318>
    41d4:	02012583          	lw	x11,32(x2)
    41d8:	000b0513          	addi	x10,x22,0
    41dc:	01f12c23          	sw	x31,24(x2)
    41e0:	0990a0ef          	jal	x1,ea78 <__eqtf2>
    41e4:	01c12883          	lw	x17,28(x2)
    41e8:	04051e63          	bne	x10,x0,4244 <_vfprintf_r+0x2360>
    41ec:	05812783          	lw	x15,88(x2)
    41f0:	01812f83          	lw	x31,24(x2)
    41f4:	0017f693          	andi	x13,x15,1
    41f8:	04068663          	beq	x13,x0,4244 <_vfprintf_r+0x2360>
    41fc:	01412783          	lw	x15,20(x2)
    4200:	0bf12e23          	sw	x31,188(x2)
    4204:	fffc4603          	lbu	x12,-1(x24)
    4208:	00f7c583          	lbu	x11,15(x15) # 4003000f <__heap_end+0x3fc3000f>
    420c:	000c0693          	addi	x13,x24,0
    4210:	02b61063          	bne	x12,x11,4230 <_vfprintf_r+0x234c>
    4214:	03000513          	addi	x10,x0,48
    4218:	fea68fa3          	sb	x10,-1(x13)
    421c:	0bc12683          	lw	x13,188(x2)
    4220:	fff68793          	addi	x15,x13,-1
    4224:	0af12e23          	sw	x15,188(x2)
    4228:	fff6c603          	lbu	x12,-1(x13)
    422c:	fec586e3          	beq	x11,x12,4218 <_vfprintf_r+0x2334>
    4230:	00160593          	addi	x11,x12,1
    4234:	03900513          	addi	x10,x0,57
    4238:	0ff5f593          	andi	x11,x11,255
    423c:	04a60463          	beq	x12,x10,4284 <_vfprintf_r+0x23a0>
    4240:	feb68fa3          	sb	x11,-1(x13)
    4244:	0ac12783          	lw	x15,172(x2)
    4248:	41ac0733          	sub	x14,x24,x26
    424c:	06100613          	addi	x12,x0,97
    4250:	fff78a13          	addi	x20,x15,-1
    4254:	00f12a23          	sw	x15,20(x2)
    4258:	00e12c23          	sw	x14,24(x2)
    425c:	0b412623          	sw	x20,172(x2)
    4260:	07000693          	addi	x13,x0,112
    4264:	00c88663          	beq	x17,x12,4270 <_vfprintf_r+0x238c>
    4268:	05000693          	addi	x13,x0,80
    426c:	04100893          	addi	x17,x0,65
    4270:	00100613          	addi	x12,x0,1
    4274:	adcff06f          	jal	x0,3550 <_vfprintf_r+0x166c>
    4278:	000a0693          	addi	x13,x20,0 # 3ffe0000 <__heap_end+0x3fbe0000>
    427c:	00300613          	addi	x12,x0,3
    4280:	c1dff06f          	jal	x0,3e9c <_vfprintf_r+0x1fb8>
    4284:	01412783          	lw	x15,20(x2)
    4288:	00a7c583          	lbu	x11,10(x15)
    428c:	fb5ff06f          	jal	x0,4240 <_vfprintf_r+0x235c>
    4290:	0a714703          	lbu	x14,167(x2)
    4294:	04812d83          	lw	x27,72(x2)
    4298:	00000a13          	addi	x20,x0,0
    429c:	00070463          	beq	x14,x0,42a4 <_vfprintf_r+0x23c0>
    42a0:	8f0fe06f          	jal	x0,2390 <_vfprintf_r+0x4ac>
    42a4:	e65fd06f          	jal	x0,2108 <_vfprintf_r+0x224>
    42a8:	01812783          	lw	x15,24(x2)
    42ac:	01412703          	lw	x14,20(x2)
    42b0:	1cf74e63          	blt	x14,x15,448c <_vfprintf_r+0x25a8>
    42b4:	01412783          	lw	x15,20(x2)
    42b8:	001df713          	andi	x14,x27,1
    42bc:	00078b13          	addi	x22,x15,0
    42c0:	00070663          	beq	x14,x0,42cc <_vfprintf_r+0x23e8>
    42c4:	02812703          	lw	x14,40(x2)
    42c8:	00e78b33          	add	x22,x15,x14
    42cc:	400dfe13          	andi	x28,x27,1024
    42d0:	000e0663          	beq	x28,x0,42dc <_vfprintf_r+0x23f8>
    42d4:	01412783          	lw	x15,20(x2)
    42d8:	30f04263          	blt	x0,x15,45dc <_vfprintf_r+0x26f8>
    42dc:	fffb4693          	xori	x13,x22,-1
    42e0:	41f6d693          	srai	x13,x13,0x1f
    42e4:	00db7c33          	and	x24,x22,x13
    42e8:	06700893          	addi	x17,x0,103
    42ec:	02012023          	sw	x0,32(x2)
    42f0:	00012e23          	sw	x0,28(x2)
    42f4:	b6cff06f          	jal	x0,3660 <_vfprintf_r+0x177c>
    42f8:	0c410613          	addi	x12,x2,196
    42fc:	00048593          	addi	x11,x9,0
    4300:	000b8513          	addi	x10,x23,0
    4304:	670000ef          	jal	x1,4974 <__sprint_r>
    4308:	00050463          	beq	x10,x0,4310 <_vfprintf_r+0x242c>
    430c:	a75fe06f          	jal	x0,2d80 <_vfprintf_r+0xe9c>
    4310:	000c4583          	lbu	x11,0(x24)
    4314:	000127b7          	lui	x15,0x12
    4318:	0cc12603          	lw	x12,204(x2)
    431c:	00098693          	addi	x13,x19,0
    4320:	36078893          	addi	x17,x15,864 # 12360 <zeroes.0>
    4324:	01000713          	addi	x14,x0,16
    4328:	00700813          	addi	x16,x0,7
    432c:	00bc8cb3          	add	x25,x25,x11
    4330:	81dff06f          	jal	x0,3b4c <_vfprintf_r+0x1c68>
    4334:	00900793          	addi	x15,x0,9
    4338:	c167ee63          	bltu	x15,x22,3754 <_vfprintf_r+0x1870>
    433c:	c68ff06f          	jal	x0,37a4 <_vfprintf_r+0x18c0>
    4340:	02d00793          	addi	x15,x0,45
    4344:	0af103a3          	sb	x15,167(x2)
    4348:	02d00713          	addi	x14,x0,45
    434c:	dacff06f          	jal	x0,38f8 <_vfprintf_r+0x1a14>
    4350:	0a714703          	lbu	x14,167(x2)
    4354:	01012623          	sw	x16,12(x2)
    4358:	02012023          	sw	x0,32(x2)
    435c:	00012e23          	sw	x0,28(x2)
    4360:	00012a23          	sw	x0,20(x2)
    4364:	000a0c13          	addi	x24,x20,0
    4368:	000a0b13          	addi	x22,x20,0
    436c:	00000a13          	addi	x20,x0,0
    4370:	00070463          	beq	x14,x0,4378 <_vfprintf_r+0x2494>
    4374:	81cfe06f          	jal	x0,2390 <_vfprintf_r+0x4ac>
    4378:	d91fd06f          	jal	x0,2108 <_vfprintf_r+0x224>
    437c:	000127b7          	lui	x15,0x12
    4380:	ee078d13          	addi	x26,x15,-288 # 11ee0 <__clzsi2+0x2f0>
    4384:	d84ff06f          	jal	x0,3908 <_vfprintf_r+0x1a24>
    4388:	0c410613          	addi	x12,x2,196
    438c:	00048593          	addi	x11,x9,0
    4390:	000b8513          	addi	x10,x23,0
    4394:	5e0000ef          	jal	x1,4974 <__sprint_r>
    4398:	00050463          	beq	x10,x0,43a0 <_vfprintf_r+0x24bc>
    439c:	9e5fe06f          	jal	x0,2d80 <_vfprintf_r+0xe9c>
    43a0:	0ac12583          	lw	x11,172(x2)
    43a4:	01812783          	lw	x15,24(x2)
    43a8:	0cc12603          	lw	x12,204(x2)
    43ac:	00098413          	addi	x8,x19,0
    43b0:	40b785b3          	sub	x11,x15,x11
    43b4:	ca1fe06f          	jal	x0,3054 <_vfprintf_r+0x1170>
    43b8:	0ac12783          	lw	x15,172(x2)
    43bc:	00f12a23          	sw	x15,20(x2)
    43c0:	00070793          	addi	x15,x14,0
    43c4:	aadff06f          	jal	x0,3e70 <_vfprintf_r+0x1f8c>
    43c8:	fff00793          	addi	x15,x0,-1
    43cc:	00f12223          	sw	x15,4(x2)
    43d0:	e99fd06f          	jal	x0,2268 <_vfprintf_r+0x384>
    43d4:	08010593          	addi	x11,x2,128
    43d8:	000b0513          	addi	x10,x22,0
    43dc:	04e12c23          	sw	x14,88(x2)
    43e0:	04c12a23          	sw	x12,84(x2)
    43e4:	05112823          	sw	x17,80(x2)
    43e8:	04d12623          	sw	x13,76(x2)
    43ec:	09f12823          	sw	x31,144(x2)
    43f0:	03f12023          	sw	x31,32(x2)
    43f4:	09e12a23          	sw	x30,148(x2)
    43f8:	01e12e23          	sw	x30,28(x2)
    43fc:	09d12c23          	sw	x29,152(x2)
    4400:	01d12c23          	sw	x29,24(x2)
    4404:	00b12a23          	sw	x11,20(x2)
    4408:	09812e23          	sw	x24,156(x2)
    440c:	08012023          	sw	x0,128(x2)
    4410:	08012223          	sw	x0,132(x2)
    4414:	08012423          	sw	x0,136(x2)
    4418:	08012623          	sw	x0,140(x2)
    441c:	65c0a0ef          	jal	x1,ea78 <__eqtf2>
    4420:	01412583          	lw	x11,20(x2)
    4424:	01812e83          	lw	x29,24(x2)
    4428:	01c12f03          	lw	x30,28(x2)
    442c:	02012f83          	lw	x31,32(x2)
    4430:	04c12683          	lw	x13,76(x2)
    4434:	05012883          	lw	x17,80(x2)
    4438:	05412603          	lw	x12,84(x2)
    443c:	05812703          	lw	x14,88(x2)
    4440:	28051663          	bne	x10,x0,46cc <_vfprintf_r+0x27e8>
    4444:	0ac12783          	lw	x15,172(x2)
    4448:	00f70733          	add	x14,x14,x15
    444c:	00f12a23          	sw	x15,20(x2)
    4450:	41a707b3          	sub	x15,x14,x26
    4454:	00f12c23          	sw	x15,24(x2)
    4458:	01412783          	lw	x15,20(x2)
    445c:	001df713          	andi	x14,x27,1
    4460:	01476733          	or	x14,x14,x20
    4464:	26f05e63          	bge	x0,x15,46e0 <_vfprintf_r+0x27fc>
    4468:	24071063          	bne	x14,x0,46a8 <_vfprintf_r+0x27c4>
    446c:	01412b03          	lw	x22,20(x2)
    4470:	06600893          	addi	x17,x0,102
    4474:	400dfe13          	andi	x28,x27,1024
    4478:	160e1463          	bne	x28,x0,45e0 <_vfprintf_r+0x26fc>
    447c:	fffb4693          	xori	x13,x22,-1
    4480:	41f6d693          	srai	x13,x13,0x1f
    4484:	00db7c33          	and	x24,x22,x13
    4488:	e65ff06f          	jal	x0,42ec <_vfprintf_r+0x2408>
    448c:	01812783          	lw	x15,24(x2)
    4490:	02812703          	lw	x14,40(x2)
    4494:	06700893          	addi	x17,x0,103
    4498:	00e78b33          	add	x22,x15,x14
    449c:	01412783          	lw	x15,20(x2)
    44a0:	fcf04ae3          	blt	x0,x15,4474 <_vfprintf_r+0x2590>
    44a4:	40fb0f33          	sub	x30,x22,x15
    44a8:	001f0b13          	addi	x22,x30,1
    44ac:	fffb4693          	xori	x13,x22,-1
    44b0:	41f6d693          	srai	x13,x13,0x1f
    44b4:	00db7c33          	and	x24,x22,x13
    44b8:	e35ff06f          	jal	x0,42ec <_vfprintf_r+0x2408>
    44bc:	00012837          	lui	x16,0x12
    44c0:	ff000593          	addi	x11,x0,-16
    44c4:	40a00a33          	sub	x20,x0,x10
    44c8:	36080813          	addi	x16,x16,864 # 12360 <zeroes.0>
    44cc:	06b55e63          	bge	x10,x11,4548 <_vfprintf_r+0x2664>
    44d0:	01212a23          	sw	x18,20(x2)
    44d4:	01000b13          	addi	x22,x0,16
    44d8:	00700893          	addi	x17,x0,7
    44dc:	00080913          	addi	x18,x16,0
    44e0:	00c0006f          	jal	x0,44ec <_vfprintf_r+0x2608>
    44e4:	ff0a0a13          	addi	x20,x20,-16
    44e8:	054b5c63          	bge	x22,x20,4540 <_vfprintf_r+0x265c>
    44ec:	01060613          	addi	x12,x12,16
    44f0:	00170713          	addi	x14,x14,1
    44f4:	01242023          	sw	x18,0(x8)
    44f8:	01642223          	sw	x22,4(x8)
    44fc:	0cc12623          	sw	x12,204(x2)
    4500:	0ce12423          	sw	x14,200(x2)
    4504:	00840413          	addi	x8,x8,8
    4508:	fce8dee3          	bge	x17,x14,44e4 <_vfprintf_r+0x2600>
    450c:	0c410613          	addi	x12,x2,196
    4510:	00048593          	addi	x11,x9,0
    4514:	000b8513          	addi	x10,x23,0
    4518:	45c000ef          	jal	x1,4974 <__sprint_r>
    451c:	00050463          	beq	x10,x0,4524 <_vfprintf_r+0x2640>
    4520:	861fe06f          	jal	x0,2d80 <_vfprintf_r+0xe9c>
    4524:	0cc12603          	lw	x12,204(x2)
    4528:	0c812703          	lw	x14,200(x2)
    452c:	00098413          	addi	x8,x19,0
    4530:	00700893          	addi	x17,x0,7
    4534:	fb1ff06f          	jal	x0,44e4 <_vfprintf_r+0x2600>
    4538:	000d8613          	addi	x12,x27,0
    453c:	b18fe06f          	jal	x0,2854 <_vfprintf_r+0x970>
    4540:	00090813          	addi	x16,x18,0
    4544:	01412903          	lw	x18,20(x2)
    4548:	01460633          	add	x12,x12,x20
    454c:	00170713          	addi	x14,x14,1
    4550:	01042023          	sw	x16,0(x8)
    4554:	01442223          	sw	x20,4(x8)
    4558:	0cc12623          	sw	x12,204(x2)
    455c:	0ce12423          	sw	x14,200(x2)
    4560:	00700593          	addi	x11,x0,7
    4564:	aee5d463          	bge	x11,x14,384c <_vfprintf_r+0x1968>
    4568:	0c410613          	addi	x12,x2,196
    456c:	00048593          	addi	x11,x9,0
    4570:	000b8513          	addi	x10,x23,0
    4574:	400000ef          	jal	x1,4974 <__sprint_r>
    4578:	00050463          	beq	x10,x0,4580 <_vfprintf_r+0x269c>
    457c:	805fe06f          	jal	x0,2d80 <_vfprintf_r+0xe9c>
    4580:	0cc12603          	lw	x12,204(x2)
    4584:	0c812703          	lw	x14,200(x2)
    4588:	00098413          	addi	x8,x19,0
    458c:	bf0ff06f          	jal	x0,397c <_vfprintf_r+0x1a98>
    4590:	0b610693          	addi	x13,x2,182
    4594:	00061863          	bne	x12,x0,45a4 <_vfprintf_r+0x26c0>
    4598:	03000693          	addi	x13,x0,48
    459c:	0ad10b23          	sb	x13,182(x2)
    45a0:	0b710693          	addi	x13,x2,183
    45a4:	19010793          	addi	x15,x2,400
    45a8:	40f68633          	sub	x12,x13,x15
    45ac:	030a0713          	addi	x14,x20,48
    45b0:	0dd60793          	addi	x15,x12,221
    45b4:	00e68023          	sb	x14,0(x13)
    45b8:	02f12e23          	sw	x15,60(x2)
    45bc:	860ff06f          	jal	x0,361c <_vfprintf_r+0x1738>
    45c0:	00012423          	sw	x0,8(x2)
    45c4:	00600a13          	addi	x20,x0,6
    45c8:	f29fd06f          	jal	x0,24f0 <_vfprintf_r+0x60c>
    45cc:	001df713          	andi	x14,x27,1
    45d0:	00071463          	bne	x14,x0,45d8 <_vfprintf_r+0x26f4>
    45d4:	868ff06f          	jal	x0,363c <_vfprintf_r+0x1758>
    45d8:	85cff06f          	jal	x0,3634 <_vfprintf_r+0x1750>
    45dc:	06700893          	addi	x17,x0,103
    45e0:	03812603          	lw	x12,56(x2)
    45e4:	0ff00693          	addi	x13,x0,255
    45e8:	00064703          	lbu	x14,0(x12)
    45ec:	14d70c63          	beq	x14,x13,4744 <_vfprintf_r+0x2860>
    45f0:	01412783          	lw	x15,20(x2)
    45f4:	00000513          	addi	x10,x0,0
    45f8:	00000593          	addi	x11,x0,0
    45fc:	00f75e63          	bge	x14,x15,4618 <_vfprintf_r+0x2734>
    4600:	40e787b3          	sub	x15,x15,x14
    4604:	00164703          	lbu	x14,1(x12)
    4608:	04070863          	beq	x14,x0,4658 <_vfprintf_r+0x2774>
    460c:	00158593          	addi	x11,x11,1
    4610:	00160613          	addi	x12,x12,1
    4614:	fed714e3          	bne	x14,x13,45fc <_vfprintf_r+0x2718>
    4618:	02c12c23          	sw	x12,56(x2)
    461c:	00b12e23          	sw	x11,28(x2)
    4620:	02a12023          	sw	x10,32(x2)
    4624:	00f12a23          	sw	x15,20(x2)
    4628:	02012783          	lw	x15,32(x2)
    462c:	01c12703          	lw	x14,28(x2)
    4630:	04012583          	lw	x11,64(x2)
    4634:	05112623          	sw	x17,76(x2)
    4638:	00e78533          	add	x10,x15,x14
    463c:	4dc0d0ef          	jal	x1,11b18 <__mulsi3>
    4640:	01650b33          	add	x22,x10,x22
    4644:	fffb4693          	xori	x13,x22,-1
    4648:	41f6d693          	srai	x13,x13,0x1f
    464c:	04c12883          	lw	x17,76(x2)
    4650:	00db7c33          	and	x24,x22,x13
    4654:	80cff06f          	jal	x0,3660 <_vfprintf_r+0x177c>
    4658:	00064703          	lbu	x14,0(x12)
    465c:	00150513          	addi	x10,x10,1
    4660:	fb5ff06f          	jal	x0,4614 <_vfprintf_r+0x2730>
    4664:	00090c13          	addi	x24,x18,0
    4668:	001a0693          	addi	x13,x20,1
    466c:	01c12883          	lw	x17,28(x2)
    4670:	02012d83          	lw	x27,32(x2)
    4674:	03c12c83          	lw	x25,60(x2)
    4678:	04812403          	lw	x8,72(x2)
    467c:	01812903          	lw	x18,24(x2)
    4680:	04c12b83          	lw	x23,76(x2)
    4684:	05012483          	lw	x9,80(x2)
    4688:	05412d03          	lw	x26,84(x2)
    468c:	00dc06b3          	add	x13,x24,x13
    4690:	03000613          	addi	x12,x0,48
    4694:	ba0a48e3          	blt	x20,x0,4244 <_vfprintf_r+0x2360>
    4698:	001c0c13          	addi	x24,x24,1
    469c:	fecc0fa3          	sb	x12,-1(x24)
    46a0:	ff869ce3          	bne	x13,x24,4698 <_vfprintf_r+0x27b4>
    46a4:	ba1ff06f          	jal	x0,4244 <_vfprintf_r+0x2360>
    46a8:	02812703          	lw	x14,40(x2)
    46ac:	06600893          	addi	x17,x0,102
    46b0:	00ea0f33          	add	x30,x20,x14
    46b4:	00ff0b33          	add	x22,x30,x15
    46b8:	dbdff06f          	jal	x0,4474 <_vfprintf_r+0x2590>
    46bc:	00012737          	lui	x14,0x12
    46c0:	ee470793          	addi	x15,x14,-284 # 11ee4 <__clzsi2+0x2f4>
    46c4:	00f12a23          	sw	x15,20(x2)
    46c8:	941ff06f          	jal	x0,4008 <_vfprintf_r+0x2124>
    46cc:	00100513          	addi	x10,x0,1
    46d0:	40d506b3          	sub	x13,x10,x13
    46d4:	0ad12623          	sw	x13,172(x2)
    46d8:	00d70733          	add	x14,x14,x13
    46dc:	f28ff06f          	jal	x0,3e04 <_vfprintf_r+0x1f20>
    46e0:	00071a63          	bne	x14,x0,46f4 <_vfprintf_r+0x2810>
    46e4:	00100c13          	addi	x24,x0,1
    46e8:	06600893          	addi	x17,x0,102
    46ec:	00100b13          	addi	x22,x0,1
    46f0:	bfdff06f          	jal	x0,42ec <_vfprintf_r+0x2408>
    46f4:	02812783          	lw	x15,40(x2)
    46f8:	06600893          	addi	x17,x0,102
    46fc:	00178f13          	addi	x30,x15,1
    4700:	014f0b33          	add	x22,x30,x20
    4704:	fffb4693          	xori	x13,x22,-1
    4708:	41f6d693          	srai	x13,x13,0x1f
    470c:	00db7c33          	and	x24,x22,x13
    4710:	bddff06f          	jal	x0,42ec <_vfprintf_r+0x2408>
    4714:	00200793          	addi	x15,x0,2
    4718:	02f12e23          	sw	x15,60(x2)
    471c:	f01fe06f          	jal	x0,361c <_vfprintf_r+0x1738>
    4720:	00c12783          	lw	x15,12(x2)
    4724:	0007aa03          	lw	x20,0(x15)
    4728:	00478793          	addi	x15,x15,4
    472c:	000a5463          	bge	x20,x0,4734 <_vfprintf_r+0x2850>
    4730:	fff00a13          	addi	x20,x0,-1
    4734:	00194883          	lbu	x17,1(x18)
    4738:	00f12623          	sw	x15,12(x2)
    473c:	00068913          	addi	x18,x13,0
    4740:	949fd06f          	jal	x0,2088 <_vfprintf_r+0x1a4>
    4744:	02012023          	sw	x0,32(x2)
    4748:	00012e23          	sw	x0,28(x2)
    474c:	eddff06f          	jal	x0,4628 <_vfprintf_r+0x2744>
    4750:	04500613          	addi	x12,x0,69
    4754:	08010593          	addi	x11,x2,128
    4758:	eacff06f          	jal	x0,3e04 <_vfprintf_r+0x1f20>
    475c:	00c4d783          	lhu	x15,12(x9)
    4760:	0407e793          	ori	x15,x15,64
    4764:	00f49623          	sh	x15,12(x9)
    4768:	acdfd06f          	jal	x0,2234 <_vfprintf_r+0x350>

0000476c <vfprintf>:
    476c:	00050793          	addi	x15,x10,0
    4770:	f0c1a503          	lw	x10,-244(x3) # 1304c <_impure_ptr>
    4774:	00060693          	addi	x13,x12,0
    4778:	00058613          	addi	x12,x11,0
    477c:	00078593          	addi	x11,x15,0
    4780:	f64fd06f          	jal	x0,1ee4 <_vfprintf_r>

00004784 <__sbprintf>:
    4784:	b8010113          	addi	x2,x2,-1152
    4788:	00c59783          	lh	x15,12(x11)
    478c:	00e5d703          	lhu	x14,14(x11)
    4790:	46812c23          	sw	x8,1144(x2)
    4794:	00058413          	addi	x8,x11,0
    4798:	000105b7          	lui	x11,0x10
    479c:	ffd58593          	addi	x11,x11,-3 # fffd <__multf3+0x1259>
    47a0:	06442e03          	lw	x28,100(x8)
    47a4:	01c42303          	lw	x6,28(x8)
    47a8:	02442883          	lw	x17,36(x8)
    47ac:	01071713          	slli	x14,x14,0x10
    47b0:	00b7f7b3          	and	x15,x15,x11
    47b4:	00e7e7b3          	or	x15,x15,x14
    47b8:	40000813          	addi	x16,x0,1024
    47bc:	00f12a23          	sw	x15,20(x2)
    47c0:	00810593          	addi	x11,x2,8
    47c4:	07010793          	addi	x15,x2,112
    47c8:	46912a23          	sw	x9,1140(x2)
    47cc:	47212823          	sw	x18,1136(x2)
    47d0:	46112e23          	sw	x1,1148(x2)
    47d4:	00050913          	addi	x18,x10,0
    47d8:	07c12623          	sw	x28,108(x2)
    47dc:	02612223          	sw	x6,36(x2)
    47e0:	03112623          	sw	x17,44(x2)
    47e4:	00f12423          	sw	x15,8(x2)
    47e8:	00f12c23          	sw	x15,24(x2)
    47ec:	01012823          	sw	x16,16(x2)
    47f0:	01012e23          	sw	x16,28(x2)
    47f4:	02012023          	sw	x0,32(x2)
    47f8:	eecfd0ef          	jal	x1,1ee4 <_vfprintf_r>
    47fc:	00050493          	addi	x9,x10,0
    4800:	02055c63          	bge	x10,x0,4838 <__sbprintf+0xb4>
    4804:	01415783          	lhu	x15,20(x2)
    4808:	0407f793          	andi	x15,x15,64
    480c:	00078863          	beq	x15,x0,481c <__sbprintf+0x98>
    4810:	00c45783          	lhu	x15,12(x8)
    4814:	0407e793          	ori	x15,x15,64
    4818:	00f41623          	sh	x15,12(x8)
    481c:	47c12083          	lw	x1,1148(x2)
    4820:	47812403          	lw	x8,1144(x2)
    4824:	47012903          	lw	x18,1136(x2)
    4828:	00048513          	addi	x10,x9,0
    482c:	47412483          	lw	x9,1140(x2)
    4830:	48010113          	addi	x2,x2,1152
    4834:	00008067          	jalr	x0,0(x1)
    4838:	00810593          	addi	x11,x2,8
    483c:	00090513          	addi	x10,x18,0
    4840:	071010ef          	jal	x1,60b0 <_fflush_r>
    4844:	fc0500e3          	beq	x10,x0,4804 <__sbprintf+0x80>
    4848:	fff00493          	addi	x9,x0,-1
    484c:	fb9ff06f          	jal	x0,4804 <__sbprintf+0x80>

00004850 <__sprint_r.part.0>:
    4850:	0645a783          	lw	x15,100(x11)
    4854:	fd010113          	addi	x2,x2,-48
    4858:	01612823          	sw	x22,16(x2)
    485c:	02112623          	sw	x1,44(x2)
    4860:	01279713          	slli	x14,x15,0x12
    4864:	00060b13          	addi	x22,x12,0
    4868:	0e075863          	bge	x14,x0,4958 <__sprint_r.part.0+0x108>
    486c:	00862783          	lw	x15,8(x12)
    4870:	03212023          	sw	x18,32(x2)
    4874:	01312e23          	sw	x19,28(x2)
    4878:	01512a23          	sw	x21,20(x2)
    487c:	01712623          	sw	x23,12(x2)
    4880:	00058913          	addi	x18,x11,0
    4884:	00062b83          	lw	x23,0(x12)
    4888:	00050993          	addi	x19,x10,0
    488c:	fff00a93          	addi	x21,x0,-1
    4890:	0a078863          	beq	x15,x0,4940 <__sprint_r.part.0+0xf0>
    4894:	02812423          	sw	x8,40(x2)
    4898:	02912223          	sw	x9,36(x2)
    489c:	01412c23          	sw	x20,24(x2)
    48a0:	01812423          	sw	x24,8(x2)
    48a4:	004bac03          	lw	x24,4(x23)
    48a8:	000ba403          	lw	x8,0(x23)
    48ac:	002c5a13          	srli	x20,x24,0x2
    48b0:	060a0663          	beq	x20,x0,491c <__sprint_r.part.0+0xcc>
    48b4:	00000493          	addi	x9,x0,0
    48b8:	00c0006f          	jal	x0,48c4 <__sprint_r.part.0+0x74>
    48bc:	00440413          	addi	x8,x8,4
    48c0:	049a0c63          	beq	x20,x9,4918 <__sprint_r.part.0+0xc8>
    48c4:	00042583          	lw	x11,0(x8)
    48c8:	00090613          	addi	x12,x18,0
    48cc:	00098513          	addi	x10,x19,0
    48d0:	2e4020ef          	jal	x1,6bb4 <_fputwc_r>
    48d4:	00148493          	addi	x9,x9,1
    48d8:	ff5512e3          	bne	x10,x21,48bc <__sprint_r.part.0+0x6c>
    48dc:	02812403          	lw	x8,40(x2)
    48e0:	02412483          	lw	x9,36(x2)
    48e4:	02012903          	lw	x18,32(x2)
    48e8:	01c12983          	lw	x19,28(x2)
    48ec:	01812a03          	lw	x20,24(x2)
    48f0:	01412a83          	lw	x21,20(x2)
    48f4:	00c12b83          	lw	x23,12(x2)
    48f8:	00812c03          	lw	x24,8(x2)
    48fc:	fff00513          	addi	x10,x0,-1
    4900:	02c12083          	lw	x1,44(x2)
    4904:	000b2423          	sw	x0,8(x22)
    4908:	000b2223          	sw	x0,4(x22)
    490c:	01012b03          	lw	x22,16(x2)
    4910:	03010113          	addi	x2,x2,48
    4914:	00008067          	jalr	x0,0(x1)
    4918:	008b2783          	lw	x15,8(x22)
    491c:	ffcc7c13          	andi	x24,x24,-4
    4920:	418787b3          	sub	x15,x15,x24
    4924:	00fb2423          	sw	x15,8(x22)
    4928:	008b8b93          	addi	x23,x23,8
    492c:	f6079ce3          	bne	x15,x0,48a4 <__sprint_r.part.0+0x54>
    4930:	02812403          	lw	x8,40(x2)
    4934:	02412483          	lw	x9,36(x2)
    4938:	01812a03          	lw	x20,24(x2)
    493c:	00812c03          	lw	x24,8(x2)
    4940:	02012903          	lw	x18,32(x2)
    4944:	01c12983          	lw	x19,28(x2)
    4948:	01412a83          	lw	x21,20(x2)
    494c:	00c12b83          	lw	x23,12(x2)
    4950:	00000513          	addi	x10,x0,0
    4954:	fadff06f          	jal	x0,4900 <__sprint_r.part.0+0xb0>
    4958:	03d010ef          	jal	x1,6194 <__sfvwrite_r>
    495c:	02c12083          	lw	x1,44(x2)
    4960:	000b2423          	sw	x0,8(x22)
    4964:	000b2223          	sw	x0,4(x22)
    4968:	01012b03          	lw	x22,16(x2)
    496c:	03010113          	addi	x2,x2,48
    4970:	00008067          	jalr	x0,0(x1)

00004974 <__sprint_r>:
    4974:	00862703          	lw	x14,8(x12)
    4978:	00070463          	beq	x14,x0,4980 <__sprint_r+0xc>
    497c:	ed5ff06f          	jal	x0,4850 <__sprint_r.part.0>
    4980:	00062223          	sw	x0,4(x12)
    4984:	00000513          	addi	x10,x0,0
    4988:	00008067          	jalr	x0,0(x1)

0000498c <_vfiprintf_r>:
    498c:	ed010113          	addi	x2,x2,-304
    4990:	13212023          	sw	x18,288(x2)
    4994:	11312e23          	sw	x19,284(x2)
    4998:	11412c23          	sw	x20,280(x2)
    499c:	11812423          	sw	x24,264(x2)
    49a0:	12112623          	sw	x1,300(x2)
    49a4:	11612823          	sw	x22,272(x2)
    49a8:	00050a13          	addi	x20,x10,0
    49ac:	00058913          	addi	x18,x11,0
    49b0:	00060c13          	addi	x24,x12,0
    49b4:	00068993          	addi	x19,x13,0
    49b8:	00050863          	beq	x10,x0,49c8 <_vfiprintf_r+0x3c>
    49bc:	03452783          	lw	x15,52(x10)
    49c0:	00079463          	bne	x15,x0,49c8 <_vfiprintf_r+0x3c>
    49c4:	16c0106f          	jal	x0,5b30 <_vfiprintf_r+0x11a4>
    49c8:	00c91783          	lh	x15,12(x18)
    49cc:	01279713          	slli	x14,x15,0x12
    49d0:	02074663          	blt	x14,x0,49fc <_vfiprintf_r+0x70>
    49d4:	06492703          	lw	x14,100(x18)
    49d8:	00002637          	lui	x12,0x2
    49dc:	ffffe6b7          	lui	x13,0xffffe
    49e0:	00c7e7b3          	or	x15,x15,x12
    49e4:	fff68693          	addi	x13,x13,-1 # ffffdfff <__heap_end+0xffbfdfff>
    49e8:	01079793          	slli	x15,x15,0x10
    49ec:	4107d793          	srai	x15,x15,0x10
    49f0:	00d77733          	and	x14,x14,x13
    49f4:	00f91623          	sh	x15,12(x18)
    49f8:	06e92223          	sw	x14,100(x18)
    49fc:	0087f713          	andi	x14,x15,8
    4a00:	14070463          	beq	x14,x0,4b48 <_vfiprintf_r+0x1bc>
    4a04:	01092703          	lw	x14,16(x18)
    4a08:	14070063          	beq	x14,x0,4b48 <_vfiprintf_r+0x1bc>
    4a0c:	01a7f793          	andi	x15,x15,26
    4a10:	00a00713          	addi	x14,x0,10
    4a14:	14e78c63          	beq	x15,x14,4b6c <_vfiprintf_r+0x1e0>
    4a18:	000127b7          	lui	x15,0x12
    4a1c:	12912223          	sw	x9,292(x2)
    4a20:	11512a23          	sw	x21,276(x2)
    4a24:	04c10493          	addi	x9,x2,76
    4a28:	00000b13          	addi	x22,x0,0
    4a2c:	38078793          	addi	x15,x15,896 # 12380 <blanks.1+0x10>
    4a30:	00012ab7          	lui	x21,0x12
    4a34:	12812423          	sw	x8,296(x2)
    4a38:	11912223          	sw	x25,260(x2)
    4a3c:	11712623          	sw	x23,268(x2)
    4a40:	11a12023          	sw	x26,256(x2)
    4a44:	0fb12e23          	sw	x27,252(x2)
    4a48:	04912023          	sw	x9,64(x2)
    4a4c:	04012423          	sw	x0,72(x2)
    4a50:	04012223          	sw	x0,68(x2)
    4a54:	00048713          	addi	x14,x9,0
    4a58:	00012223          	sw	x0,4(x2)
    4a5c:	00012c23          	sw	x0,24(x2)
    4a60:	00012e23          	sw	x0,28(x2)
    4a64:	02012023          	sw	x0,32(x2)
    4a68:	00f12023          	sw	x15,0(x2)
    4a6c:	01000413          	addi	x8,x0,16
    4a70:	4eca8a93          	addi	x21,x21,1260 # 124ec <zeroes.0>
    4a74:	000b0c93          	addi	x25,x22,0
    4a78:	00098813          	addi	x16,x19,0
    4a7c:	000c4783          	lbu	x15,0(x24)
    4a80:	34078263          	beq	x15,x0,4dc4 <_vfiprintf_r+0x438>
    4a84:	000c0b93          	addi	x23,x24,0
    4a88:	02500693          	addi	x13,x0,37
    4a8c:	36d78c63          	beq	x15,x13,4e04 <_vfiprintf_r+0x478>
    4a90:	001bc783          	lbu	x15,1(x23)
    4a94:	001b8b93          	addi	x23,x23,1
    4a98:	fe079ae3          	bne	x15,x0,4a8c <_vfiprintf_r+0x100>
    4a9c:	418b89b3          	sub	x19,x23,x24
    4aa0:	338b8263          	beq	x23,x24,4dc4 <_vfiprintf_r+0x438>
    4aa4:	04812683          	lw	x13,72(x2)
    4aa8:	04412783          	lw	x15,68(x2)
    4aac:	01872023          	sw	x24,0(x14)
    4ab0:	00d986b3          	add	x13,x19,x13
    4ab4:	00178793          	addi	x15,x15,1
    4ab8:	01372223          	sw	x19,4(x14)
    4abc:	04d12423          	sw	x13,72(x2)
    4ac0:	04f12223          	sw	x15,68(x2)
    4ac4:	00700613          	addi	x12,x0,7
    4ac8:	00870713          	addi	x14,x14,8
    4acc:	02f65463          	bge	x12,x15,4af4 <_vfiprintf_r+0x168>
    4ad0:	4e0688e3          	beq	x13,x0,57c0 <_vfiprintf_r+0xe34>
    4ad4:	04010613          	addi	x12,x2,64
    4ad8:	00090593          	addi	x11,x18,0
    4adc:	000a0513          	addi	x10,x20,0
    4ae0:	01012423          	sw	x16,8(x2)
    4ae4:	d6dff0ef          	jal	x1,4850 <__sprint_r.part.0>
    4ae8:	00812803          	lw	x16,8(x2)
    4aec:	0c051a63          	bne	x10,x0,4bc0 <_vfiprintf_r+0x234>
    4af0:	00048713          	addi	x14,x9,0
    4af4:	000bc783          	lbu	x15,0(x23)
    4af8:	013c8cb3          	add	x25,x25,x19
    4afc:	2c078463          	beq	x15,x0,4dc4 <_vfiprintf_r+0x438>
    4b00:	00000313          	addi	x6,x0,0
    4b04:	001bc783          	lbu	x15,1(x23)
    4b08:	001b8c13          	addi	x24,x23,1
    4b0c:	02010da3          	sb	x0,59(x2)
    4b10:	fff00d13          	addi	x26,x0,-1
    4b14:	00000b13          	addi	x22,x0,0
    4b18:	05a00993          	addi	x19,x0,90
    4b1c:	00030b93          	addi	x23,x6,0
    4b20:	00070d93          	addi	x27,x14,0
    4b24:	001c0c13          	addi	x24,x24,1
    4b28:	00078613          	addi	x12,x15,0
    4b2c:	fe060693          	addi	x13,x12,-32 # 1fe0 <_vfprintf_r+0xfc>
    4b30:	10d9ec63          	bltu	x19,x13,4c48 <_vfiprintf_r+0x2bc>
    4b34:	00012783          	lw	x15,0(x2)
    4b38:	00269693          	slli	x13,x13,0x2
    4b3c:	00f686b3          	add	x13,x13,x15
    4b40:	0006a783          	lw	x15,0(x13)
    4b44:	00078067          	jalr	x0,0(x15)
    4b48:	00090593          	addi	x11,x18,0
    4b4c:	000a0513          	addi	x10,x20,0
    4b50:	631010ef          	jal	x1,6980 <__swsetup_r>
    4b54:	00050463          	beq	x10,x0,4b5c <_vfiprintf_r+0x1d0>
    4b58:	0f00106f          	jal	x0,5c48 <_vfiprintf_r+0x12bc>
    4b5c:	00c91783          	lh	x15,12(x18)
    4b60:	00a00713          	addi	x14,x0,10
    4b64:	01a7f793          	andi	x15,x15,26
    4b68:	eae798e3          	bne	x15,x14,4a18 <_vfiprintf_r+0x8c>
    4b6c:	00e91783          	lh	x15,14(x18)
    4b70:	ea07c4e3          	blt	x15,x0,4a18 <_vfiprintf_r+0x8c>
    4b74:	12c12083          	lw	x1,300(x2)
    4b78:	11012b03          	lw	x22,272(x2)
    4b7c:	00098693          	addi	x13,x19,0
    4b80:	000c0613          	addi	x12,x24,0
    4b84:	11c12983          	lw	x19,284(x2)
    4b88:	10812c03          	lw	x24,264(x2)
    4b8c:	00090593          	addi	x11,x18,0
    4b90:	000a0513          	addi	x10,x20,0
    4b94:	12012903          	lw	x18,288(x2)
    4b98:	11812a03          	lw	x20,280(x2)
    4b9c:	13010113          	addi	x2,x2,304
    4ba0:	0e40106f          	jal	x0,5c84 <__sbprintf>
    4ba4:	04010613          	addi	x12,x2,64
    4ba8:	00090593          	addi	x11,x18,0
    4bac:	000a0513          	addi	x10,x20,0
    4bb0:	01012423          	sw	x16,8(x2)
    4bb4:	c9dff0ef          	jal	x1,4850 <__sprint_r.part.0>
    4bb8:	00812803          	lw	x16,8(x2)
    4bbc:	1e050c63          	beq	x10,x0,4db4 <_vfiprintf_r+0x428>
    4bc0:	000c8b13          	addi	x22,x25,0
    4bc4:	00c95783          	lhu	x15,12(x18)
    4bc8:	12812403          	lw	x8,296(x2)
    4bcc:	12412483          	lw	x9,292(x2)
    4bd0:	0407f793          	andi	x15,x15,64
    4bd4:	11412a83          	lw	x21,276(x2)
    4bd8:	10c12b83          	lw	x23,268(x2)
    4bdc:	10412c83          	lw	x25,260(x2)
    4be0:	10012d03          	lw	x26,256(x2)
    4be4:	0fc12d83          	lw	x27,252(x2)
    4be8:	00078463          	beq	x15,x0,4bf0 <_vfiprintf_r+0x264>
    4bec:	05c0106f          	jal	x0,5c48 <_vfiprintf_r+0x12bc>
    4bf0:	12c12083          	lw	x1,300(x2)
    4bf4:	12012903          	lw	x18,288(x2)
    4bf8:	11c12983          	lw	x19,284(x2)
    4bfc:	11812a03          	lw	x20,280(x2)
    4c00:	10812c03          	lw	x24,264(x2)
    4c04:	000b0513          	addi	x10,x22,0
    4c08:	11012b03          	lw	x22,272(x2)
    4c0c:	13010113          	addi	x2,x2,304
    4c10:	00008067          	jalr	x0,0(x1)
    4c14:	00000b13          	addi	x22,x0,0
    4c18:	fd060793          	addi	x15,x12,-48
    4c1c:	00900593          	addi	x11,x0,9
    4c20:	000c4603          	lbu	x12,0(x24)
    4c24:	002b1693          	slli	x13,x22,0x2
    4c28:	01668b33          	add	x22,x13,x22
    4c2c:	001b1b13          	slli	x22,x22,0x1
    4c30:	01678b33          	add	x22,x15,x22
    4c34:	fd060793          	addi	x15,x12,-48
    4c38:	001c0c13          	addi	x24,x24,1
    4c3c:	fef5f2e3          	bgeu	x11,x15,4c20 <_vfiprintf_r+0x294>
    4c40:	fe060693          	addi	x13,x12,-32
    4c44:	eed9f8e3          	bgeu	x19,x13,4b34 <_vfiprintf_r+0x1a8>
    4c48:	000b8313          	addi	x6,x23,0
    4c4c:	000d8713          	addi	x14,x27,0
    4c50:	16060a63          	beq	x12,x0,4dc4 <_vfiprintf_r+0x438>
    4c54:	08c10623          	sb	x12,140(x2)
    4c58:	02010da3          	sb	x0,59(x2)
    4c5c:	00100d93          	addi	x27,x0,1
    4c60:	00100e93          	addi	x29,x0,1
    4c64:	08c10b93          	addi	x23,x2,140
    4c68:	00000d13          	addi	x26,x0,0
    4c6c:	00000f93          	addi	x31,x0,0
    4c70:	04412683          	lw	x13,68(x2)
    4c74:	08437293          	andi	x5,x6,132
    4c78:	04812783          	lw	x15,72(x2)
    4c7c:	00168613          	addi	x12,x13,1
    4c80:	00060593          	addi	x11,x12,0
    4c84:	00029663          	bne	x5,x0,4c90 <_vfiprintf_r+0x304>
    4c88:	41bb09b3          	sub	x19,x22,x27
    4c8c:	1f3044e3          	blt	x0,x19,5674 <_vfiprintf_r+0xce8>
    4c90:	03b14603          	lbu	x12,59(x2)
    4c94:	02060a63          	beq	x12,x0,4cc8 <_vfiprintf_r+0x33c>
    4c98:	03b10693          	addi	x13,x2,59
    4c9c:	00178793          	addi	x15,x15,1
    4ca0:	00d72023          	sw	x13,0(x14)
    4ca4:	00100693          	addi	x13,x0,1
    4ca8:	00d72223          	sw	x13,4(x14)
    4cac:	04f12423          	sw	x15,72(x2)
    4cb0:	04b12223          	sw	x11,68(x2)
    4cb4:	00700693          	addi	x13,x0,7
    4cb8:	0eb6c2e3          	blt	x13,x11,559c <_vfiprintf_r+0xc10>
    4cbc:	00058693          	addi	x13,x11,0
    4cc0:	00870713          	addi	x14,x14,8
    4cc4:	00158593          	addi	x11,x11,1
    4cc8:	060f8863          	beq	x31,x0,4d38 <_vfiprintf_r+0x3ac>
    4ccc:	03c10693          	addi	x13,x2,60
    4cd0:	00278793          	addi	x15,x15,2
    4cd4:	00d72023          	sw	x13,0(x14)
    4cd8:	00200693          	addi	x13,x0,2
    4cdc:	00d72223          	sw	x13,4(x14)
    4ce0:	04f12423          	sw	x15,72(x2)
    4ce4:	04b12223          	sw	x11,68(x2)
    4ce8:	00700693          	addi	x13,x0,7
    4cec:	12b6d0e3          	bge	x13,x11,560c <_vfiprintf_r+0xc80>
    4cf0:	360784e3          	beq	x15,x0,5858 <_vfiprintf_r+0xecc>
    4cf4:	04010613          	addi	x12,x2,64
    4cf8:	00090593          	addi	x11,x18,0
    4cfc:	000a0513          	addi	x10,x20,0
    4d00:	01012a23          	sw	x16,20(x2)
    4d04:	01d12823          	sw	x29,16(x2)
    4d08:	00512623          	sw	x5,12(x2)
    4d0c:	00612423          	sw	x6,8(x2)
    4d10:	b41ff0ef          	jal	x1,4850 <__sprint_r.part.0>
    4d14:	ea0516e3          	bne	x10,x0,4bc0 <_vfiprintf_r+0x234>
    4d18:	04412683          	lw	x13,68(x2)
    4d1c:	04812783          	lw	x15,72(x2)
    4d20:	01412803          	lw	x16,20(x2)
    4d24:	01012e83          	lw	x29,16(x2)
    4d28:	00c12283          	lw	x5,12(x2)
    4d2c:	00812303          	lw	x6,8(x2)
    4d30:	00048713          	addi	x14,x9,0
    4d34:	00168593          	addi	x11,x13,1
    4d38:	08000613          	addi	x12,x0,128
    4d3c:	64c28e63          	beq	x5,x12,5398 <_vfiprintf_r+0xa0c>
    4d40:	41dd0d33          	sub	x26,x26,x29
    4d44:	77a04663          	blt	x0,x26,54b0 <_vfiprintf_r+0xb24>
    4d48:	00fe87b3          	add	x15,x29,x15
    4d4c:	01772023          	sw	x23,0(x14)
    4d50:	01d72223          	sw	x29,4(x14)
    4d54:	04f12423          	sw	x15,72(x2)
    4d58:	04b12223          	sw	x11,68(x2)
    4d5c:	00700693          	addi	x13,x0,7
    4d60:	62b6d063          	bge	x13,x11,5380 <_vfiprintf_r+0x9f4>
    4d64:	0a078863          	beq	x15,x0,4e14 <_vfiprintf_r+0x488>
    4d68:	04010613          	addi	x12,x2,64
    4d6c:	00090593          	addi	x11,x18,0
    4d70:	000a0513          	addi	x10,x20,0
    4d74:	01012623          	sw	x16,12(x2)
    4d78:	00612423          	sw	x6,8(x2)
    4d7c:	ad5ff0ef          	jal	x1,4850 <__sprint_r.part.0>
    4d80:	e40510e3          	bne	x10,x0,4bc0 <_vfiprintf_r+0x234>
    4d84:	04812783          	lw	x15,72(x2)
    4d88:	00c12803          	lw	x16,12(x2)
    4d8c:	00812303          	lw	x6,8(x2)
    4d90:	00048713          	addi	x14,x9,0
    4d94:	00437313          	andi	x6,x6,4
    4d98:	00030663          	beq	x6,x0,4da4 <_vfiprintf_r+0x418>
    4d9c:	41bb09b3          	sub	x19,x22,x27
    4da0:	09304663          	blt	x0,x19,4e2c <_vfiprintf_r+0x4a0>
    4da4:	01bb5463          	bge	x22,x27,4dac <_vfiprintf_r+0x420>
    4da8:	000d8b13          	addi	x22,x27,0
    4dac:	016c8cb3          	add	x25,x25,x22
    4db0:	de079ae3          	bne	x15,x0,4ba4 <_vfiprintf_r+0x218>
    4db4:	000c4783          	lbu	x15,0(x24)
    4db8:	04012223          	sw	x0,68(x2)
    4dbc:	00048713          	addi	x14,x9,0
    4dc0:	cc0792e3          	bne	x15,x0,4a84 <_vfiprintf_r+0xf8>
    4dc4:	04812783          	lw	x15,72(x2)
    4dc8:	000c8b13          	addi	x22,x25,0
    4dcc:	de078ce3          	beq	x15,x0,4bc4 <_vfiprintf_r+0x238>
    4dd0:	04010613          	addi	x12,x2,64
    4dd4:	00090593          	addi	x11,x18,0
    4dd8:	000a0513          	addi	x10,x20,0
    4ddc:	a75ff0ef          	jal	x1,4850 <__sprint_r.part.0>
    4de0:	de5ff06f          	jal	x0,4bc4 <_vfiprintf_r+0x238>
    4de4:	00082b03          	lw	x22,0(x16)
    4de8:	00480813          	addi	x16,x16,4
    4dec:	200b4a63          	blt	x22,x0,5000 <_vfiprintf_r+0x674>
    4df0:	000c4783          	lbu	x15,0(x24)
    4df4:	d31ff06f          	jal	x0,4b24 <_vfiprintf_r+0x198>
    4df8:	000c4783          	lbu	x15,0(x24)
    4dfc:	020beb93          	ori	x23,x23,32
    4e00:	d25ff06f          	jal	x0,4b24 <_vfiprintf_r+0x198>
    4e04:	418b89b3          	sub	x19,x23,x24
    4e08:	c98b9ee3          	bne	x23,x24,4aa4 <_vfiprintf_r+0x118>
    4e0c:	000bc783          	lbu	x15,0(x23)
    4e10:	cedff06f          	jal	x0,4afc <_vfiprintf_r+0x170>
    4e14:	04012223          	sw	x0,68(x2)
    4e18:	00437313          	andi	x6,x6,4
    4e1c:	140308e3          	beq	x6,x0,576c <_vfiprintf_r+0xde0>
    4e20:	41bb09b3          	sub	x19,x22,x27
    4e24:	153054e3          	bge	x0,x19,576c <_vfiprintf_r+0xde0>
    4e28:	00048713          	addi	x14,x9,0
    4e2c:	01000693          	addi	x13,x0,16
    4e30:	04412603          	lw	x12,68(x2)
    4e34:	5f36dae3          	bge	x13,x19,5c28 <_vfiprintf_r+0x129c>
    4e38:	00012e37          	lui	x28,0x12
    4e3c:	4fce0e13          	addi	x28,x28,1276 # 124fc <blanks.1>
    4e40:	01612423          	sw	x22,8(x2)
    4e44:	01000b93          	addi	x23,x0,16
    4e48:	00700d13          	addi	x26,x0,7
    4e4c:	01012623          	sw	x16,12(x2)
    4e50:	000e0b13          	addi	x22,x28,0
    4e54:	0180006f          	jal	x0,4e6c <_vfiprintf_r+0x4e0>
    4e58:	00260593          	addi	x11,x12,2
    4e5c:	00870713          	addi	x14,x14,8
    4e60:	00068613          	addi	x12,x13,0
    4e64:	ff098993          	addi	x19,x19,-16
    4e68:	053bd863          	bge	x23,x19,4eb8 <_vfiprintf_r+0x52c>
    4e6c:	01078793          	addi	x15,x15,16
    4e70:	00160693          	addi	x13,x12,1
    4e74:	01672023          	sw	x22,0(x14)
    4e78:	01772223          	sw	x23,4(x14)
    4e7c:	04f12423          	sw	x15,72(x2)
    4e80:	04d12223          	sw	x13,68(x2)
    4e84:	fcdd5ae3          	bge	x26,x13,4e58 <_vfiprintf_r+0x4cc>
    4e88:	50078063          	beq	x15,x0,5388 <_vfiprintf_r+0x9fc>
    4e8c:	04010613          	addi	x12,x2,64
    4e90:	00090593          	addi	x11,x18,0
    4e94:	000a0513          	addi	x10,x20,0
    4e98:	9b9ff0ef          	jal	x1,4850 <__sprint_r.part.0>
    4e9c:	d20512e3          	bne	x10,x0,4bc0 <_vfiprintf_r+0x234>
    4ea0:	04412603          	lw	x12,68(x2)
    4ea4:	ff098993          	addi	x19,x19,-16
    4ea8:	04812783          	lw	x15,72(x2)
    4eac:	00048713          	addi	x14,x9,0
    4eb0:	00160593          	addi	x11,x12,1
    4eb4:	fb3bcce3          	blt	x23,x19,4e6c <_vfiprintf_r+0x4e0>
    4eb8:	000b0e13          	addi	x28,x22,0
    4ebc:	00c12803          	lw	x16,12(x2)
    4ec0:	00812b03          	lw	x22,8(x2)
    4ec4:	013787b3          	add	x15,x15,x19
    4ec8:	01c72023          	sw	x28,0(x14)
    4ecc:	01372223          	sw	x19,4(x14)
    4ed0:	04f12423          	sw	x15,72(x2)
    4ed4:	04b12223          	sw	x11,68(x2)
    4ed8:	00700713          	addi	x14,x0,7
    4edc:	ecb754e3          	bge	x14,x11,4da4 <_vfiprintf_r+0x418>
    4ee0:	080786e3          	beq	x15,x0,576c <_vfiprintf_r+0xde0>
    4ee4:	04010613          	addi	x12,x2,64
    4ee8:	00090593          	addi	x11,x18,0
    4eec:	000a0513          	addi	x10,x20,0
    4ef0:	01012423          	sw	x16,8(x2)
    4ef4:	95dff0ef          	jal	x1,4850 <__sprint_r.part.0>
    4ef8:	cc0514e3          	bne	x10,x0,4bc0 <_vfiprintf_r+0x234>
    4efc:	04812783          	lw	x15,72(x2)
    4f00:	00812803          	lw	x16,8(x2)
    4f04:	ea1ff06f          	jal	x0,4da4 <_vfiprintf_r+0x418>
    4f08:	000b8313          	addi	x6,x23,0
    4f0c:	00082b83          	lw	x23,0(x16)
    4f10:	02010da3          	sb	x0,59(x2)
    4f14:	000d8713          	addi	x14,x27,0
    4f18:	00480993          	addi	x19,x16,4
    4f1c:	440b86e3          	beq	x23,x0,5b68 <_vfiprintf_r+0x11dc>
    4f20:	01b12623          	sw	x27,12(x2)
    4f24:	00612423          	sw	x6,8(x2)
    4f28:	360d46e3          	blt	x26,x0,5a94 <_vfiprintf_r+0x1108>
    4f2c:	000d0613          	addi	x12,x26,0
    4f30:	00000593          	addi	x11,x0,0
    4f34:	000b8513          	addi	x10,x23,0
    4f38:	525010ef          	jal	x1,6c5c <memchr>
    4f3c:	00812303          	lw	x6,8(x2)
    4f40:	00c12703          	lw	x14,12(x2)
    4f44:	000d0e93          	addi	x29,x26,0
    4f48:	00050463          	beq	x10,x0,4f50 <_vfiprintf_r+0x5c4>
    4f4c:	41750eb3          	sub	x29,x10,x23
    4f50:	03b14783          	lbu	x15,59(x2)
    4f54:	fffecd93          	xori	x27,x29,-1
    4f58:	41fddd93          	srai	x27,x27,0x1f
    4f5c:	01befdb3          	and	x27,x29,x27
    4f60:	00098813          	addi	x16,x19,0
    4f64:	00000d13          	addi	x26,x0,0
    4f68:	00000f93          	addi	x31,x0,0
    4f6c:	d00782e3          	beq	x15,x0,4c70 <_vfiprintf_r+0x2e4>
    4f70:	001d8d93          	addi	x27,x27,1
    4f74:	00237f93          	andi	x31,x6,2
    4f78:	ce0f8ce3          	beq	x31,x0,4c70 <_vfiprintf_r+0x2e4>
    4f7c:	002d8d93          	addi	x27,x27,2
    4f80:	00200f93          	addi	x31,x0,2
    4f84:	cedff06f          	jal	x0,4c70 <_vfiprintf_r+0x2e4>
    4f88:	00082783          	lw	x15,0(x16)
    4f8c:	000b8313          	addi	x6,x23,0
    4f90:	000d8713          	addi	x14,x27,0
    4f94:	02010da3          	sb	x0,59(x2)
    4f98:	00480813          	addi	x16,x16,4
    4f9c:	08f10623          	sb	x15,140(x2)
    4fa0:	00100d93          	addi	x27,x0,1
    4fa4:	00100e93          	addi	x29,x0,1
    4fa8:	08c10b93          	addi	x23,x2,140
    4fac:	cbdff06f          	jal	x0,4c68 <_vfiprintf_r+0x2dc>
    4fb0:	000b8313          	addi	x6,x23,0
    4fb4:	02037793          	andi	x15,x6,32
    4fb8:	000d8713          	addi	x14,x27,0
    4fbc:	24078a63          	beq	x15,x0,5210 <_vfiprintf_r+0x884>
    4fc0:	00780813          	addi	x16,x16,7
    4fc4:	ff887813          	andi	x16,x16,-8
    4fc8:	00482683          	lw	x13,4(x16)
    4fcc:	00082983          	lw	x19,0(x16)
    4fd0:	00880813          	addi	x16,x16,8
    4fd4:	00068d93          	addi	x27,x13,0
    4fd8:	0c06c063          	blt	x13,x0,5098 <_vfiprintf_r+0x70c>
    4fdc:	0c0d4e63          	blt	x26,x0,50b8 <_vfiprintf_r+0x72c>
    4fe0:	01b9e6b3          	or	x13,x19,x27
    4fe4:	f7f37313          	andi	x6,x6,-129
    4fe8:	0c069863          	bne	x13,x0,50b8 <_vfiprintf_r+0x72c>
    4fec:	420d12e3          	bne	x26,x0,5c10 <_vfiprintf_r+0x1284>
    4ff0:	00000d93          	addi	x27,x0,0
    4ff4:	00000e93          	addi	x29,x0,0
    4ff8:	0f010b93          	addi	x23,x2,240
    4ffc:	0e80006f          	jal	x0,50e4 <_vfiprintf_r+0x758>
    5000:	41600b33          	sub	x22,x0,x22
    5004:	000c4783          	lbu	x15,0(x24)
    5008:	004beb93          	ori	x23,x23,4
    500c:	b19ff06f          	jal	x0,4b24 <_vfiprintf_r+0x198>
    5010:	02b00693          	addi	x13,x0,43
    5014:	000c4783          	lbu	x15,0(x24)
    5018:	02d10da3          	sb	x13,59(x2)
    501c:	b09ff06f          	jal	x0,4b24 <_vfiprintf_r+0x198>
    5020:	000c4783          	lbu	x15,0(x24)
    5024:	06800693          	addi	x13,x0,104
    5028:	32d780e3          	beq	x15,x13,5b48 <_vfiprintf_r+0x11bc>
    502c:	040beb93          	ori	x23,x23,64
    5030:	af5ff06f          	jal	x0,4b24 <_vfiprintf_r+0x198>
    5034:	000d8713          	addi	x14,x27,0
    5038:	010bee93          	ori	x29,x23,16
    503c:	020ef793          	andi	x15,x29,32
    5040:	7a078263          	beq	x15,x0,57e4 <_vfiprintf_r+0xe58>
    5044:	00780813          	addi	x16,x16,7
    5048:	ff887813          	andi	x16,x16,-8
    504c:	00082983          	lw	x19,0(x16)
    5050:	00482d83          	lw	x27,4(x16)
    5054:	00880813          	addi	x16,x16,8
    5058:	02010da3          	sb	x0,59(x2)
    505c:	000e8313          	addi	x6,x29,0
    5060:	040d4c63          	blt	x26,x0,50b8 <_vfiprintf_r+0x72c>
    5064:	01b9e6b3          	or	x13,x19,x27
    5068:	f7fef313          	andi	x6,x29,-129
    506c:	00100793          	addi	x15,x0,1
    5070:	04069463          	bne	x13,x0,50b8 <_vfiprintf_r+0x72c>
    5074:	0c0d1663          	bne	x26,x0,5140 <_vfiprintf_r+0x7b4>
    5078:	f6079ce3          	bne	x15,x0,4ff0 <_vfiprintf_r+0x664>
    507c:	001efe93          	andi	x29,x29,1
    5080:	100e82e3          	beq	x29,x0,5984 <_vfiprintf_r+0xff8>
    5084:	03000793          	addi	x15,x0,48
    5088:	0ef107a3          	sb	x15,239(x2)
    508c:	000e8d93          	addi	x27,x29,0
    5090:	0ef10b93          	addi	x23,x2,239
    5094:	0500006f          	jal	x0,50e4 <_vfiprintf_r+0x758>
    5098:	02d00613          	addi	x12,x0,45
    509c:	013036b3          	sltu	x13,x0,x19
    50a0:	41b00e33          	sub	x28,x0,x27
    50a4:	02c10da3          	sb	x12,59(x2)
    50a8:	40de0db3          	sub	x27,x28,x13
    50ac:	413009b3          	sub	x19,x0,x19
    50b0:	000d4463          	blt	x26,x0,50b8 <_vfiprintf_r+0x72c>
    50b4:	f7f37313          	andi	x6,x6,-129
    50b8:	000d92e3          	bne	x27,x0,58bc <_vfiprintf_r+0xf30>
    50bc:	00900693          	addi	x13,x0,9
    50c0:	7f36ee63          	bltu	x13,x19,58bc <_vfiprintf_r+0xf30>
    50c4:	03098793          	addi	x15,x19,48
    50c8:	0ff7f793          	andi	x15,x15,255
    50cc:	0ef107a3          	sb	x15,239(x2)
    50d0:	000d0d93          	addi	x27,x26,0
    50d4:	01a04463          	blt	x0,x26,50dc <_vfiprintf_r+0x750>
    50d8:	00100d93          	addi	x27,x0,1
    50dc:	00100e93          	addi	x29,x0,1
    50e0:	0ef10b93          	addi	x23,x2,239
    50e4:	03b14783          	lbu	x15,59(x2)
    50e8:	e80794e3          	bne	x15,x0,4f70 <_vfiprintf_r+0x5e4>
    50ec:	e89ff06f          	jal	x0,4f74 <_vfiprintf_r+0x5e8>
    50f0:	000086b7          	lui	x13,0x8
    50f4:	83068693          	addi	x13,x13,-2000 # 7830 <_ldcheck+0x80>
    50f8:	02d11e23          	sh	x13,60(x2)
    50fc:	000126b7          	lui	x13,0x12
    5100:	ee468693          	addi	x13,x13,-284 # 11ee4 <__clzsi2+0x2f4>
    5104:	00082783          	lw	x15,0(x16)
    5108:	000d8713          	addi	x14,x27,0
    510c:	00000593          	addi	x11,x0,0
    5110:	002be313          	ori	x6,x23,2
    5114:	00480813          	addi	x16,x16,4
    5118:	00d12223          	sw	x13,4(x2)
    511c:	02010da3          	sb	x0,59(x2)
    5120:	500d4463          	blt	x26,x0,5628 <_vfiprintf_r+0xc9c>
    5124:	00b7e6b3          	or	x13,x15,x11
    5128:	f7f37613          	andi	x12,x6,-129
    512c:	4e069863          	bne	x13,x0,561c <_vfiprintf_r+0xc90>
    5130:	00030e93          	addi	x29,x6,0
    5134:	00200793          	addi	x15,x0,2
    5138:	00060313          	addi	x6,x12,0
    513c:	f20d0ee3          	beq	x26,x0,5078 <_vfiprintf_r+0x6ec>
    5140:	00100693          	addi	x13,x0,1
    5144:	2cd786e3          	beq	x15,x13,5c10 <_vfiprintf_r+0x1284>
    5148:	00200693          	addi	x13,x0,2
    514c:	22d78ee3          	beq	x15,x13,5b88 <_vfiprintf_r+0x11fc>
    5150:	00000793          	addi	x15,x0,0
    5154:	00000593          	addi	x11,x0,0
    5158:	0f010b93          	addi	x23,x2,240
    515c:	01d59613          	slli	x12,x11,0x1d
    5160:	0077f693          	andi	x13,x15,7
    5164:	0037d793          	srli	x15,x15,0x3
    5168:	03068693          	addi	x13,x13,48
    516c:	00f667b3          	or	x15,x12,x15
    5170:	0035d593          	srli	x11,x11,0x3
    5174:	fedb8fa3          	sb	x13,-1(x23)
    5178:	00b7e633          	or	x12,x15,x11
    517c:	000b8513          	addi	x10,x23,0
    5180:	fffb8b93          	addi	x23,x23,-1
    5184:	fc061ce3          	bne	x12,x0,515c <_vfiprintf_r+0x7d0>
    5188:	00137793          	andi	x15,x6,1
    518c:	4c078863          	beq	x15,x0,565c <_vfiprintf_r+0xcd0>
    5190:	03000793          	addi	x15,x0,48
    5194:	4cf68463          	beq	x13,x15,565c <_vfiprintf_r+0xcd0>
    5198:	ffe50513          	addi	x10,x10,-2
    519c:	fefb8fa3          	sb	x15,-1(x23)
    51a0:	0f010793          	addi	x15,x2,240
    51a4:	40a78eb3          	sub	x29,x15,x10
    51a8:	000d0d93          	addi	x27,x26,0
    51ac:	01dd4ee3          	blt	x26,x29,59c8 <_vfiprintf_r+0x103c>
    51b0:	00050b93          	addi	x23,x10,0
    51b4:	f31ff06f          	jal	x0,50e4 <_vfiprintf_r+0x758>
    51b8:	020bf793          	andi	x15,x23,32
    51bc:	000d8713          	addi	x14,x27,0
    51c0:	7e079063          	bne	x15,x0,59a0 <_vfiprintf_r+0x1014>
    51c4:	010bf793          	andi	x15,x23,16
    51c8:	180798e3          	bne	x15,x0,5b58 <_vfiprintf_r+0x11cc>
    51cc:	040bf793          	andi	x15,x23,64
    51d0:	1e079ce3          	bne	x15,x0,5bc8 <_vfiprintf_r+0x123c>
    51d4:	200bf313          	andi	x6,x23,512
    51d8:	180300e3          	beq	x6,x0,5b58 <_vfiprintf_r+0x11cc>
    51dc:	00082783          	lw	x15,0(x16)
    51e0:	00480813          	addi	x16,x16,4
    51e4:	01978023          	sb	x25,0(x15)
    51e8:	895ff06f          	jal	x0,4a7c <_vfiprintf_r+0xf0>
    51ec:	000c4783          	lbu	x15,0(x24)
    51f0:	06c00693          	addi	x13,x0,108
    51f4:	14d782e3          	beq	x15,x13,5b38 <_vfiprintf_r+0x11ac>
    51f8:	010beb93          	ori	x23,x23,16
    51fc:	929ff06f          	jal	x0,4b24 <_vfiprintf_r+0x198>
    5200:	010be313          	ori	x6,x23,16
    5204:	02037793          	andi	x15,x6,32
    5208:	000d8713          	addi	x14,x27,0
    520c:	da079ae3          	bne	x15,x0,4fc0 <_vfiprintf_r+0x634>
    5210:	01037693          	andi	x13,x6,16
    5214:	00082783          	lw	x15,0(x16)
    5218:	00480813          	addi	x16,x16,4
    521c:	5a069c63          	bne	x13,x0,57d4 <_vfiprintf_r+0xe48>
    5220:	04037693          	andi	x13,x6,64
    5224:	5a068463          	beq	x13,x0,57cc <_vfiprintf_r+0xe40>
    5228:	01079993          	slli	x19,x15,0x10
    522c:	4109d993          	srai	x19,x19,0x10
    5230:	41f9dd93          	srai	x27,x19,0x1f
    5234:	000d8693          	addi	x13,x27,0
    5238:	da1ff06f          	jal	x0,4fd8 <_vfiprintf_r+0x64c>
    523c:	000d8713          	addi	x14,x27,0
    5240:	010be693          	ori	x13,x23,16
    5244:	0206f793          	andi	x15,x13,32
    5248:	5c078c63          	beq	x15,x0,5820 <_vfiprintf_r+0xe94>
    524c:	00780813          	addi	x16,x16,7
    5250:	ff887813          	andi	x16,x16,-8
    5254:	00082783          	lw	x15,0(x16)
    5258:	00482583          	lw	x11,4(x16)
    525c:	00880813          	addi	x16,x16,8
    5260:	02010da3          	sb	x0,59(x2)
    5264:	bff6f313          	andi	x6,x13,-1025
    5268:	ee0d48e3          	blt	x26,x0,5158 <_vfiprintf_r+0x7cc>
    526c:	00b7e633          	or	x12,x15,x11
    5270:	b7f6f693          	andi	x13,x13,-1153
    5274:	0a0616e3          	bne	x12,x0,5b20 <_vfiprintf_r+0x1194>
    5278:	00030e93          	addi	x29,x6,0
    527c:	00000793          	addi	x15,x0,0
    5280:	00068313          	addi	x6,x13,0
    5284:	df1ff06f          	jal	x0,5074 <_vfiprintf_r+0x6e8>
    5288:	000a0513          	addi	x10,x20,0
    528c:	01012423          	sw	x16,8(x2)
    5290:	44d010ef          	jal	x1,6edc <_localeconv_r>
    5294:	00452783          	lw	x15,4(x10)
    5298:	00078513          	addi	x10,x15,0
    529c:	02f12023          	sw	x15,32(x2)
    52a0:	dedfb0ef          	jal	x1,108c <strlen>
    52a4:	00050793          	addi	x15,x10,0
    52a8:	000a0513          	addi	x10,x20,0
    52ac:	00f12e23          	sw	x15,28(x2)
    52b0:	42d010ef          	jal	x1,6edc <_localeconv_r>
    52b4:	00852703          	lw	x14,8(x10)
    52b8:	01c12783          	lw	x15,28(x2)
    52bc:	00812803          	lw	x16,8(x2)
    52c0:	00e12c23          	sw	x14,24(x2)
    52c4:	b20786e3          	beq	x15,x0,4df0 <_vfiprintf_r+0x464>
    52c8:	01812703          	lw	x14,24(x2)
    52cc:	000c4783          	lbu	x15,0(x24)
    52d0:	84070ae3          	beq	x14,x0,4b24 <_vfiprintf_r+0x198>
    52d4:	00074683          	lbu	x13,0(x14)
    52d8:	840686e3          	beq	x13,x0,4b24 <_vfiprintf_r+0x198>
    52dc:	400beb93          	ori	x23,x23,1024
    52e0:	845ff06f          	jal	x0,4b24 <_vfiprintf_r+0x198>
    52e4:	000c4783          	lbu	x15,0(x24)
    52e8:	080beb93          	ori	x23,x23,128
    52ec:	839ff06f          	jal	x0,4b24 <_vfiprintf_r+0x198>
    52f0:	000c4603          	lbu	x12,0(x24)
    52f4:	02a00793          	addi	x15,x0,42
    52f8:	001c0593          	addi	x11,x24,1
    52fc:	14f60ae3          	beq	x12,x15,5c50 <_vfiprintf_r+0x12c4>
    5300:	fd060793          	addi	x15,x12,-48
    5304:	00900693          	addi	x13,x0,9
    5308:	00000d13          	addi	x26,x0,0
    530c:	00900513          	addi	x10,x0,9
    5310:	02f6e463          	bltu	x13,x15,5338 <_vfiprintf_r+0x9ac>
    5314:	0005c603          	lbu	x12,0(x11)
    5318:	002d1693          	slli	x13,x26,0x2
    531c:	01a68d33          	add	x26,x13,x26
    5320:	001d1d13          	slli	x26,x26,0x1
    5324:	00fd0d33          	add	x26,x26,x15
    5328:	fd060793          	addi	x15,x12,-48
    532c:	00158593          	addi	x11,x11,1
    5330:	fef572e3          	bgeu	x10,x15,5314 <_vfiprintf_r+0x988>
    5334:	6a0d4063          	blt	x26,x0,59d4 <_vfiprintf_r+0x1048>
    5338:	00058c13          	addi	x24,x11,0
    533c:	ff0ff06f          	jal	x0,4b2c <_vfiprintf_r+0x1a0>
    5340:	000c4783          	lbu	x15,0(x24)
    5344:	001beb93          	ori	x23,x23,1
    5348:	fdcff06f          	jal	x0,4b24 <_vfiprintf_r+0x198>
    534c:	03b14683          	lbu	x13,59(x2)
    5350:	000c4783          	lbu	x15,0(x24)
    5354:	fc069863          	bne	x13,x0,4b24 <_vfiprintf_r+0x198>
    5358:	02000693          	addi	x13,x0,32
    535c:	02d10da3          	sb	x13,59(x2)
    5360:	fc4ff06f          	jal	x0,4b24 <_vfiprintf_r+0x198>
    5364:	00100713          	addi	x14,x0,1
    5368:	04e12223          	sw	x14,68(x2)
    536c:	000e8793          	addi	x15,x29,0
    5370:	05712623          	sw	x23,76(x2)
    5374:	05d12823          	sw	x29,80(x2)
    5378:	05d12423          	sw	x29,72(x2)
    537c:	00048713          	addi	x14,x9,0
    5380:	00870713          	addi	x14,x14,8
    5384:	a11ff06f          	jal	x0,4d94 <_vfiprintf_r+0x408>
    5388:	00100593          	addi	x11,x0,1
    538c:	00000613          	addi	x12,x0,0
    5390:	00048713          	addi	x14,x9,0
    5394:	ad1ff06f          	jal	x0,4e64 <_vfiprintf_r+0x4d8>
    5398:	41bb09b3          	sub	x19,x22,x27
    539c:	9b3052e3          	bge	x0,x19,4d40 <_vfiprintf_r+0x3b4>
    53a0:	01000613          	addi	x12,x0,16
    53a4:	09365ae3          	bge	x12,x19,5c38 <_vfiprintf_r+0x12ac>
    53a8:	00012e37          	lui	x28,0x12
    53ac:	4ece0e13          	addi	x28,x28,1260 # 124ec <zeroes.0>
    53b0:	01612823          	sw	x22,16(x2)
    53b4:	01000f13          	addi	x30,x0,16
    53b8:	00700f93          	addi	x31,x0,7
    53bc:	00612423          	sw	x6,8(x2)
    53c0:	01d12623          	sw	x29,12(x2)
    53c4:	01012a23          	sw	x16,20(x2)
    53c8:	000e0b13          	addi	x22,x28,0
    53cc:	0180006f          	jal	x0,53e4 <_vfiprintf_r+0xa58>
    53d0:	00268513          	addi	x10,x13,2
    53d4:	00870713          	addi	x14,x14,8
    53d8:	00060693          	addi	x13,x12,0
    53dc:	ff098993          	addi	x19,x19,-16
    53e0:	053f5c63          	bge	x30,x19,5438 <_vfiprintf_r+0xaac>
    53e4:	01078793          	addi	x15,x15,16
    53e8:	00168613          	addi	x12,x13,1
    53ec:	01672023          	sw	x22,0(x14)
    53f0:	01e72223          	sw	x30,4(x14)
    53f4:	04f12423          	sw	x15,72(x2)
    53f8:	04c12223          	sw	x12,68(x2)
    53fc:	fccfdae3          	bge	x31,x12,53d0 <_vfiprintf_r+0xa44>
    5400:	18078663          	beq	x15,x0,558c <_vfiprintf_r+0xc00>
    5404:	04010613          	addi	x12,x2,64
    5408:	00090593          	addi	x11,x18,0
    540c:	000a0513          	addi	x10,x20,0
    5410:	c40ff0ef          	jal	x1,4850 <__sprint_r.part.0>
    5414:	fa051663          	bne	x10,x0,4bc0 <_vfiprintf_r+0x234>
    5418:	04412683          	lw	x13,68(x2)
    541c:	01000f13          	addi	x30,x0,16
    5420:	ff098993          	addi	x19,x19,-16
    5424:	04812783          	lw	x15,72(x2)
    5428:	00048713          	addi	x14,x9,0
    542c:	00168513          	addi	x10,x13,1
    5430:	00700f93          	addi	x31,x0,7
    5434:	fb3f48e3          	blt	x30,x19,53e4 <_vfiprintf_r+0xa58>
    5438:	000b0e13          	addi	x28,x22,0
    543c:	00812303          	lw	x6,8(x2)
    5440:	00c12e83          	lw	x29,12(x2)
    5444:	01412803          	lw	x16,20(x2)
    5448:	01012b03          	lw	x22,16(x2)
    544c:	013787b3          	add	x15,x15,x19
    5450:	01c72023          	sw	x28,0(x14)
    5454:	01372223          	sw	x19,4(x14)
    5458:	04f12423          	sw	x15,72(x2)
    545c:	04a12223          	sw	x10,68(x2)
    5460:	00700693          	addi	x13,x0,7
    5464:	52a6d663          	bge	x13,x10,5990 <_vfiprintf_r+0x1004>
    5468:	72078663          	beq	x15,x0,5b94 <_vfiprintf_r+0x1208>
    546c:	04010613          	addi	x12,x2,64
    5470:	00090593          	addi	x11,x18,0
    5474:	000a0513          	addi	x10,x20,0
    5478:	01012823          	sw	x16,16(x2)
    547c:	01d12623          	sw	x29,12(x2)
    5480:	00612423          	sw	x6,8(x2)
    5484:	bccff0ef          	jal	x1,4850 <__sprint_r.part.0>
    5488:	f2051c63          	bne	x10,x0,4bc0 <_vfiprintf_r+0x234>
    548c:	00c12e83          	lw	x29,12(x2)
    5490:	04412683          	lw	x13,68(x2)
    5494:	04812783          	lw	x15,72(x2)
    5498:	41dd0d33          	sub	x26,x26,x29
    549c:	01012803          	lw	x16,16(x2)
    54a0:	00812303          	lw	x6,8(x2)
    54a4:	00048713          	addi	x14,x9,0
    54a8:	00168593          	addi	x11,x13,1
    54ac:	89a05ee3          	bge	x0,x26,4d48 <_vfiprintf_r+0x3bc>
    54b0:	00012e37          	lui	x28,0x12
    54b4:	4ece0e13          	addi	x28,x28,1260 # 124ec <zeroes.0>
    54b8:	09a45e63          	bge	x8,x26,5554 <_vfiprintf_r+0xbc8>
    54bc:	01612823          	sw	x22,16(x2)
    54c0:	00700993          	addi	x19,x0,7
    54c4:	000d0b13          	addi	x22,x26,0
    54c8:	00612423          	sw	x6,8(x2)
    54cc:	01d12623          	sw	x29,12(x2)
    54d0:	01012a23          	sw	x16,20(x2)
    54d4:	000a8d13          	addi	x26,x21,0
    54d8:	0180006f          	jal	x0,54f0 <_vfiprintf_r+0xb64>
    54dc:	00268593          	addi	x11,x13,2
    54e0:	00870713          	addi	x14,x14,8
    54e4:	00060693          	addi	x13,x12,0
    54e8:	ff0b0b13          	addi	x22,x22,-16
    54ec:	05645863          	bge	x8,x22,553c <_vfiprintf_r+0xbb0>
    54f0:	01078793          	addi	x15,x15,16
    54f4:	00168613          	addi	x12,x13,1
    54f8:	01572023          	sw	x21,0(x14)
    54fc:	00872223          	sw	x8,4(x14)
    5500:	04f12423          	sw	x15,72(x2)
    5504:	04c12223          	sw	x12,68(x2)
    5508:	fcc9dae3          	bge	x19,x12,54dc <_vfiprintf_r+0xb50>
    550c:	06078863          	beq	x15,x0,557c <_vfiprintf_r+0xbf0>
    5510:	04010613          	addi	x12,x2,64
    5514:	00090593          	addi	x11,x18,0
    5518:	000a0513          	addi	x10,x20,0
    551c:	b34ff0ef          	jal	x1,4850 <__sprint_r.part.0>
    5520:	ea051063          	bne	x10,x0,4bc0 <_vfiprintf_r+0x234>
    5524:	04412683          	lw	x13,68(x2)
    5528:	ff0b0b13          	addi	x22,x22,-16
    552c:	04812783          	lw	x15,72(x2)
    5530:	00048713          	addi	x14,x9,0
    5534:	00168593          	addi	x11,x13,1
    5538:	fb644ce3          	blt	x8,x22,54f0 <_vfiprintf_r+0xb64>
    553c:	000d0e13          	addi	x28,x26,0
    5540:	00812303          	lw	x6,8(x2)
    5544:	000b0d13          	addi	x26,x22,0
    5548:	00c12e83          	lw	x29,12(x2)
    554c:	01412803          	lw	x16,20(x2)
    5550:	01012b03          	lw	x22,16(x2)
    5554:	01a787b3          	add	x15,x15,x26
    5558:	01c72023          	sw	x28,0(x14)
    555c:	01a72223          	sw	x26,4(x14)
    5560:	04f12423          	sw	x15,72(x2)
    5564:	04b12223          	sw	x11,68(x2)
    5568:	00700693          	addi	x13,x0,7
    556c:	20b6c863          	blt	x13,x11,577c <_vfiprintf_r+0xdf0>
    5570:	00870713          	addi	x14,x14,8
    5574:	00158593          	addi	x11,x11,1
    5578:	fd0ff06f          	jal	x0,4d48 <_vfiprintf_r+0x3bc>
    557c:	00100593          	addi	x11,x0,1
    5580:	00000693          	addi	x13,x0,0
    5584:	00048713          	addi	x14,x9,0
    5588:	f61ff06f          	jal	x0,54e8 <_vfiprintf_r+0xb5c>
    558c:	00100513          	addi	x10,x0,1
    5590:	00000693          	addi	x13,x0,0
    5594:	00048713          	addi	x14,x9,0
    5598:	e45ff06f          	jal	x0,53dc <_vfiprintf_r+0xa50>
    559c:	04078a63          	beq	x15,x0,55f0 <_vfiprintf_r+0xc64>
    55a0:	04010613          	addi	x12,x2,64
    55a4:	00090593          	addi	x11,x18,0
    55a8:	000a0513          	addi	x10,x20,0
    55ac:	03012223          	sw	x16,36(x2)
    55b0:	01d12a23          	sw	x29,20(x2)
    55b4:	00512823          	sw	x5,16(x2)
    55b8:	01f12623          	sw	x31,12(x2)
    55bc:	00612423          	sw	x6,8(x2)
    55c0:	a90ff0ef          	jal	x1,4850 <__sprint_r.part.0>
    55c4:	de051e63          	bne	x10,x0,4bc0 <_vfiprintf_r+0x234>
    55c8:	04412683          	lw	x13,68(x2)
    55cc:	04812783          	lw	x15,72(x2)
    55d0:	02412803          	lw	x16,36(x2)
    55d4:	01412e83          	lw	x29,20(x2)
    55d8:	01012283          	lw	x5,16(x2)
    55dc:	00c12f83          	lw	x31,12(x2)
    55e0:	00812303          	lw	x6,8(x2)
    55e4:	00048713          	addi	x14,x9,0
    55e8:	00168593          	addi	x11,x13,1
    55ec:	edcff06f          	jal	x0,4cc8 <_vfiprintf_r+0x33c>
    55f0:	3c0f8463          	beq	x31,x0,59b8 <_vfiprintf_r+0x102c>
    55f4:	03c10793          	addi	x15,x2,60
    55f8:	04f12623          	sw	x15,76(x2)
    55fc:	00200793          	addi	x15,x0,2
    5600:	04f12823          	sw	x15,80(x2)
    5604:	00100593          	addi	x11,x0,1
    5608:	00048713          	addi	x14,x9,0
    560c:	00058693          	addi	x13,x11,0
    5610:	00870713          	addi	x14,x14,8
    5614:	00158593          	addi	x11,x11,1
    5618:	f20ff06f          	jal	x0,4d38 <_vfiprintf_r+0x3ac>
    561c:	00200693          	addi	x13,x0,2
    5620:	00060313          	addi	x6,x12,0
    5624:	b2068ae3          	beq	x13,x0,5158 <_vfiprintf_r+0x7cc>
    5628:	00412503          	lw	x10,4(x2)
    562c:	0f010b93          	addi	x23,x2,240
    5630:	00f7f693          	andi	x13,x15,15
    5634:	00d506b3          	add	x13,x10,x13
    5638:	0006c603          	lbu	x12,0(x13)
    563c:	0047d793          	srli	x15,x15,0x4
    5640:	01c59693          	slli	x13,x11,0x1c
    5644:	00f6e7b3          	or	x15,x13,x15
    5648:	0045d593          	srli	x11,x11,0x4
    564c:	fecb8fa3          	sb	x12,-1(x23)
    5650:	00b7e6b3          	or	x13,x15,x11
    5654:	fffb8b93          	addi	x23,x23,-1
    5658:	fc069ce3          	bne	x13,x0,5630 <_vfiprintf_r+0xca4>
    565c:	0f010793          	addi	x15,x2,240
    5660:	41778eb3          	sub	x29,x15,x23
    5664:	000d0d93          	addi	x27,x26,0
    5668:	a7dd5ee3          	bge	x26,x29,50e4 <_vfiprintf_r+0x758>
    566c:	000e8d93          	addi	x27,x29,0
    5670:	a75ff06f          	jal	x0,50e4 <_vfiprintf_r+0x758>
    5674:	01000593          	addi	x11,x0,16
    5678:	5b35d063          	bge	x11,x19,5c18 <_vfiprintf_r+0x128c>
    567c:	00012e37          	lui	x28,0x12
    5680:	4fce0e13          	addi	x28,x28,1276 # 124fc <blanks.1>
    5684:	03612223          	sw	x22,36(x2)
    5688:	01000f13          	addi	x30,x0,16
    568c:	00700393          	addi	x7,x0,7
    5690:	00612423          	sw	x6,8(x2)
    5694:	01f12623          	sw	x31,12(x2)
    5698:	00512823          	sw	x5,16(x2)
    569c:	01d12a23          	sw	x29,20(x2)
    56a0:	03012423          	sw	x16,40(x2)
    56a4:	000e0b13          	addi	x22,x28,0
    56a8:	01c0006f          	jal	x0,56c4 <_vfiprintf_r+0xd38>
    56ac:	00268513          	addi	x10,x13,2
    56b0:	00870713          	addi	x14,x14,8
    56b4:	00060693          	addi	x13,x12,0
    56b8:	ff098993          	addi	x19,x19,-16
    56bc:	053f5c63          	bge	x30,x19,5714 <_vfiprintf_r+0xd88>
    56c0:	00168613          	addi	x12,x13,1
    56c4:	01078793          	addi	x15,x15,16
    56c8:	01672023          	sw	x22,0(x14)
    56cc:	01e72223          	sw	x30,4(x14)
    56d0:	04f12423          	sw	x15,72(x2)
    56d4:	04c12223          	sw	x12,68(x2)
    56d8:	fcc3dae3          	bge	x7,x12,56ac <_vfiprintf_r+0xd20>
    56dc:	08078063          	beq	x15,x0,575c <_vfiprintf_r+0xdd0>
    56e0:	04010613          	addi	x12,x2,64
    56e4:	00090593          	addi	x11,x18,0
    56e8:	000a0513          	addi	x10,x20,0
    56ec:	964ff0ef          	jal	x1,4850 <__sprint_r.part.0>
    56f0:	cc051863          	bne	x10,x0,4bc0 <_vfiprintf_r+0x234>
    56f4:	04412683          	lw	x13,68(x2)
    56f8:	01000f13          	addi	x30,x0,16
    56fc:	ff098993          	addi	x19,x19,-16
    5700:	04812783          	lw	x15,72(x2)
    5704:	00048713          	addi	x14,x9,0
    5708:	00168513          	addi	x10,x13,1
    570c:	00700393          	addi	x7,x0,7
    5710:	fb3f48e3          	blt	x30,x19,56c0 <_vfiprintf_r+0xd34>
    5714:	000b0e13          	addi	x28,x22,0
    5718:	00812303          	lw	x6,8(x2)
    571c:	00c12f83          	lw	x31,12(x2)
    5720:	01012283          	lw	x5,16(x2)
    5724:	01412e83          	lw	x29,20(x2)
    5728:	02812803          	lw	x16,40(x2)
    572c:	02412b03          	lw	x22,36(x2)
    5730:	013787b3          	add	x15,x15,x19
    5734:	01c72023          	sw	x28,0(x14)
    5738:	01372223          	sw	x19,4(x14)
    573c:	04f12423          	sw	x15,72(x2)
    5740:	04a12223          	sw	x10,68(x2)
    5744:	00700693          	addi	x13,x0,7
    5748:	12a6c063          	blt	x13,x10,5868 <_vfiprintf_r+0xedc>
    574c:	00870713          	addi	x14,x14,8
    5750:	00150593          	addi	x11,x10,1
    5754:	00050693          	addi	x13,x10,0
    5758:	d38ff06f          	jal	x0,4c90 <_vfiprintf_r+0x304>
    575c:	00000693          	addi	x13,x0,0
    5760:	00100513          	addi	x10,x0,1
    5764:	00048713          	addi	x14,x9,0
    5768:	f51ff06f          	jal	x0,56b8 <_vfiprintf_r+0xd2c>
    576c:	01bb5463          	bge	x22,x27,5774 <_vfiprintf_r+0xde8>
    5770:	000d8b13          	addi	x22,x27,0
    5774:	016c8cb3          	add	x25,x25,x22
    5778:	e3cff06f          	jal	x0,4db4 <_vfiprintf_r+0x428>
    577c:	be0784e3          	beq	x15,x0,5364 <_vfiprintf_r+0x9d8>
    5780:	04010613          	addi	x12,x2,64
    5784:	00090593          	addi	x11,x18,0
    5788:	000a0513          	addi	x10,x20,0
    578c:	01012823          	sw	x16,16(x2)
    5790:	01d12623          	sw	x29,12(x2)
    5794:	00612423          	sw	x6,8(x2)
    5798:	8b8ff0ef          	jal	x1,4850 <__sprint_r.part.0>
    579c:	c2051263          	bne	x10,x0,4bc0 <_vfiprintf_r+0x234>
    57a0:	04412583          	lw	x11,68(x2)
    57a4:	04812783          	lw	x15,72(x2)
    57a8:	01012803          	lw	x16,16(x2)
    57ac:	00c12e83          	lw	x29,12(x2)
    57b0:	00812303          	lw	x6,8(x2)
    57b4:	00048713          	addi	x14,x9,0
    57b8:	00158593          	addi	x11,x11,1
    57bc:	d8cff06f          	jal	x0,4d48 <_vfiprintf_r+0x3bc>
    57c0:	04012223          	sw	x0,68(x2)
    57c4:	00048713          	addi	x14,x9,0
    57c8:	b2cff06f          	jal	x0,4af4 <_vfiprintf_r+0x168>
    57cc:	20037693          	andi	x13,x6,512
    57d0:	40069a63          	bne	x13,x0,5be4 <_vfiprintf_r+0x1258>
    57d4:	41f7dd93          	srai	x27,x15,0x1f
    57d8:	00078993          	addi	x19,x15,0
    57dc:	000d8693          	addi	x13,x27,0
    57e0:	ff8ff06f          	jal	x0,4fd8 <_vfiprintf_r+0x64c>
    57e4:	010ef693          	andi	x13,x29,16
    57e8:	00082783          	lw	x15,0(x16)
    57ec:	00480813          	addi	x16,x16,4
    57f0:	02069263          	bne	x13,x0,5814 <_vfiprintf_r+0xe88>
    57f4:	040ef693          	andi	x13,x29,64
    57f8:	00068a63          	beq	x13,x0,580c <_vfiprintf_r+0xe80>
    57fc:	01079993          	slli	x19,x15,0x10
    5800:	0109d993          	srli	x19,x19,0x10
    5804:	00000d93          	addi	x27,x0,0
    5808:	851ff06f          	jal	x0,5058 <_vfiprintf_r+0x6cc>
    580c:	200ef693          	andi	x13,x29,512
    5810:	3e069463          	bne	x13,x0,5bf8 <_vfiprintf_r+0x126c>
    5814:	00078993          	addi	x19,x15,0
    5818:	00000d93          	addi	x27,x0,0
    581c:	83dff06f          	jal	x0,5058 <_vfiprintf_r+0x6cc>
    5820:	0106f613          	andi	x12,x13,16
    5824:	00082783          	lw	x15,0(x16)
    5828:	00480813          	addi	x16,x16,4
    582c:	02061263          	bne	x12,x0,5850 <_vfiprintf_r+0xec4>
    5830:	0406f613          	andi	x12,x13,64
    5834:	00060a63          	beq	x12,x0,5848 <_vfiprintf_r+0xebc>
    5838:	01079793          	slli	x15,x15,0x10
    583c:	0107d793          	srli	x15,x15,0x10
    5840:	00000593          	addi	x11,x0,0
    5844:	a1dff06f          	jal	x0,5260 <_vfiprintf_r+0x8d4>
    5848:	2006f613          	andi	x12,x13,512
    584c:	38061663          	bne	x12,x0,5bd8 <_vfiprintf_r+0x124c>
    5850:	00000593          	addi	x11,x0,0
    5854:	a0dff06f          	jal	x0,5260 <_vfiprintf_r+0x8d4>
    5858:	00100593          	addi	x11,x0,1
    585c:	00000693          	addi	x13,x0,0
    5860:	00048713          	addi	x14,x9,0
    5864:	cd4ff06f          	jal	x0,4d38 <_vfiprintf_r+0x3ac>
    5868:	24078263          	beq	x15,x0,5aac <_vfiprintf_r+0x1120>
    586c:	04010613          	addi	x12,x2,64
    5870:	00090593          	addi	x11,x18,0
    5874:	000a0513          	addi	x10,x20,0
    5878:	03012223          	sw	x16,36(x2)
    587c:	01d12a23          	sw	x29,20(x2)
    5880:	00512823          	sw	x5,16(x2)
    5884:	01f12623          	sw	x31,12(x2)
    5888:	00612423          	sw	x6,8(x2)
    588c:	fc5fe0ef          	jal	x1,4850 <__sprint_r.part.0>
    5890:	b2051863          	bne	x10,x0,4bc0 <_vfiprintf_r+0x234>
    5894:	04412683          	lw	x13,68(x2)
    5898:	04812783          	lw	x15,72(x2)
    589c:	02412803          	lw	x16,36(x2)
    58a0:	01412e83          	lw	x29,20(x2)
    58a4:	01012283          	lw	x5,16(x2)
    58a8:	00c12f83          	lw	x31,12(x2)
    58ac:	00812303          	lw	x6,8(x2)
    58b0:	00048713          	addi	x14,x9,0
    58b4:	00168593          	addi	x11,x13,1
    58b8:	bd8ff06f          	jal	x0,4c90 <_vfiprintf_r+0x304>
    58bc:	40037793          	andi	x15,x6,1024
    58c0:	00000693          	addi	x13,x0,0
    58c4:	0f010e93          	addi	x29,x2,240
    58c8:	01612623          	sw	x22,12(x2)
    58cc:	01a12823          	sw	x26,16(x2)
    58d0:	03912223          	sw	x25,36(x2)
    58d4:	03212423          	sw	x18,40(x2)
    58d8:	01812d03          	lw	x26,24(x2)
    58dc:	00612423          	sw	x6,8(x2)
    58e0:	00068b13          	addi	x22,x13,0
    58e4:	00e12a23          	sw	x14,20(x2)
    58e8:	00078c93          	addi	x25,x15,0
    58ec:	000e8913          	addi	x18,x29,0
    58f0:	03012623          	sw	x16,44(x2)
    58f4:	0280006f          	jal	x0,591c <_vfiprintf_r+0xf90>
    58f8:	00a00613          	addi	x12,x0,10
    58fc:	00000693          	addi	x13,x0,0
    5900:	00098513          	addi	x10,x19,0
    5904:	000d8593          	addi	x11,x27,0
    5908:	5a4060ef          	jal	x1,beac <__udivdi3>
    590c:	280d8c63          	beq	x27,x0,5ba4 <_vfiprintf_r+0x1218>
    5910:	00050993          	addi	x19,x10,0
    5914:	00058d93          	addi	x27,x11,0
    5918:	000b8913          	addi	x18,x23,0
    591c:	00a00613          	addi	x12,x0,10
    5920:	00000693          	addi	x13,x0,0
    5924:	00098513          	addi	x10,x19,0
    5928:	000d8593          	addi	x11,x27,0
    592c:	345060ef          	jal	x1,c470 <__umoddi3>
    5930:	03050513          	addi	x10,x10,48
    5934:	fea90fa3          	sb	x10,-1(x18)
    5938:	fff90b93          	addi	x23,x18,-1
    593c:	001b0b13          	addi	x22,x22,1
    5940:	fa0c8ce3          	beq	x25,x0,58f8 <_vfiprintf_r+0xf6c>
    5944:	000d4783          	lbu	x15,0(x26)
    5948:	fb6798e3          	bne	x15,x22,58f8 <_vfiprintf_r+0xf6c>
    594c:	0ff00793          	addi	x15,x0,255
    5950:	fafb04e3          	beq	x22,x15,58f8 <_vfiprintf_r+0xf6c>
    5954:	160d9e63          	bne	x27,x0,5ad0 <_vfiprintf_r+0x1144>
    5958:	00900793          	addi	x15,x0,9
    595c:	1737ea63          	bltu	x15,x19,5ad0 <_vfiprintf_r+0x1144>
    5960:	01a12c23          	sw	x26,24(x2)
    5964:	00812303          	lw	x6,8(x2)
    5968:	00c12b03          	lw	x22,12(x2)
    596c:	01012d03          	lw	x26,16(x2)
    5970:	01412703          	lw	x14,20(x2)
    5974:	02412c83          	lw	x25,36(x2)
    5978:	02812903          	lw	x18,40(x2)
    597c:	02c12803          	lw	x16,44(x2)
    5980:	cddff06f          	jal	x0,565c <_vfiprintf_r+0xcd0>
    5984:	00000d93          	addi	x27,x0,0
    5988:	0f010b93          	addi	x23,x2,240
    598c:	f58ff06f          	jal	x0,50e4 <_vfiprintf_r+0x758>
    5990:	00870713          	addi	x14,x14,8
    5994:	00150593          	addi	x11,x10,1
    5998:	00050693          	addi	x13,x10,0
    599c:	ba4ff06f          	jal	x0,4d40 <_vfiprintf_r+0x3b4>
    59a0:	00082783          	lw	x15,0(x16)
    59a4:	41fcd693          	srai	x13,x25,0x1f
    59a8:	00480813          	addi	x16,x16,4
    59ac:	0197a023          	sw	x25,0(x15)
    59b0:	00d7a223          	sw	x13,4(x15)
    59b4:	8c8ff06f          	jal	x0,4a7c <_vfiprintf_r+0xf0>
    59b8:	00000693          	addi	x13,x0,0
    59bc:	00100593          	addi	x11,x0,1
    59c0:	00048713          	addi	x14,x9,0
    59c4:	b74ff06f          	jal	x0,4d38 <_vfiprintf_r+0x3ac>
    59c8:	000e8d93          	addi	x27,x29,0
    59cc:	00050b93          	addi	x23,x10,0
    59d0:	f14ff06f          	jal	x0,50e4 <_vfiprintf_r+0x758>
    59d4:	fff00d13          	addi	x26,x0,-1
    59d8:	00058c13          	addi	x24,x11,0
    59dc:	950ff06f          	jal	x0,4b2c <_vfiprintf_r+0x1a0>
    59e0:	000d8713          	addi	x14,x27,0
    59e4:	000b8e93          	addi	x29,x23,0
    59e8:	e54ff06f          	jal	x0,503c <_vfiprintf_r+0x6b0>
    59ec:	000127b7          	lui	x15,0x12
    59f0:	ef878793          	addi	x15,x15,-264 # 11ef8 <__clzsi2+0x308>
    59f4:	000b8313          	addi	x6,x23,0
    59f8:	00f12223          	sw	x15,4(x2)
    59fc:	02037793          	andi	x15,x6,32
    5a00:	000d8713          	addi	x14,x27,0
    5a04:	06078463          	beq	x15,x0,5a6c <_vfiprintf_r+0x10e0>
    5a08:	00780813          	addi	x16,x16,7
    5a0c:	ff887813          	andi	x16,x16,-8
    5a10:	00082783          	lw	x15,0(x16)
    5a14:	00482583          	lw	x11,4(x16)
    5a18:	00880813          	addi	x16,x16,8
    5a1c:	00137693          	andi	x13,x6,1
    5a20:	00068e63          	beq	x13,x0,5a3c <_vfiprintf_r+0x10b0>
    5a24:	00b7e6b3          	or	x13,x15,x11
    5a28:	00068a63          	beq	x13,x0,5a3c <_vfiprintf_r+0x10b0>
    5a2c:	03000693          	addi	x13,x0,48
    5a30:	02d10e23          	sb	x13,60(x2)
    5a34:	02c10ea3          	sb	x12,61(x2)
    5a38:	00236313          	ori	x6,x6,2
    5a3c:	bff37313          	andi	x6,x6,-1025
    5a40:	edcff06f          	jal	x0,511c <_vfiprintf_r+0x790>
    5a44:	000d8713          	addi	x14,x27,0
    5a48:	000b8693          	addi	x13,x23,0
    5a4c:	ff8ff06f          	jal	x0,5244 <_vfiprintf_r+0x8b8>
    5a50:	000127b7          	lui	x15,0x12
    5a54:	ee478793          	addi	x15,x15,-284 # 11ee4 <__clzsi2+0x2f4>
    5a58:	000b8313          	addi	x6,x23,0
    5a5c:	00f12223          	sw	x15,4(x2)
    5a60:	02037793          	andi	x15,x6,32
    5a64:	000d8713          	addi	x14,x27,0
    5a68:	fa0790e3          	bne	x15,x0,5a08 <_vfiprintf_r+0x107c>
    5a6c:	01037693          	andi	x13,x6,16
    5a70:	00082783          	lw	x15,0(x16)
    5a74:	00480813          	addi	x16,x16,4
    5a78:	0a069063          	bne	x13,x0,5b18 <_vfiprintf_r+0x118c>
    5a7c:	04037693          	andi	x13,x6,64
    5a80:	08068863          	beq	x13,x0,5b10 <_vfiprintf_r+0x1184>
    5a84:	01079793          	slli	x15,x15,0x10
    5a88:	0107d793          	srli	x15,x15,0x10
    5a8c:	00000593          	addi	x11,x0,0
    5a90:	f8dff06f          	jal	x0,5a1c <_vfiprintf_r+0x1090>
    5a94:	000b8513          	addi	x10,x23,0
    5a98:	df4fb0ef          	jal	x1,108c <strlen>
    5a9c:	00812303          	lw	x6,8(x2)
    5aa0:	00c12703          	lw	x14,12(x2)
    5aa4:	00050e93          	addi	x29,x10,0
    5aa8:	ca8ff06f          	jal	x0,4f50 <_vfiprintf_r+0x5c4>
    5aac:	03b14703          	lbu	x14,59(x2)
    5ab0:	10070463          	beq	x14,x0,5bb8 <_vfiprintf_r+0x122c>
    5ab4:	03b10793          	addi	x15,x2,59
    5ab8:	04f12623          	sw	x15,76(x2)
    5abc:	00100793          	addi	x15,x0,1
    5ac0:	04f12823          	sw	x15,80(x2)
    5ac4:	00100593          	addi	x11,x0,1
    5ac8:	00048713          	addi	x14,x9,0
    5acc:	9f0ff06f          	jal	x0,4cbc <_vfiprintf_r+0x330>
    5ad0:	01c12783          	lw	x15,28(x2)
    5ad4:	02012583          	lw	x11,32(x2)
    5ad8:	00000b13          	addi	x22,x0,0
    5adc:	40fb8bb3          	sub	x23,x23,x15
    5ae0:	00078613          	addi	x12,x15,0
    5ae4:	000b8513          	addi	x10,x23,0
    5ae8:	238010ef          	jal	x1,6d20 <strncpy>
    5aec:	001d4783          	lbu	x15,1(x26)
    5af0:	00a00613          	addi	x12,x0,10
    5af4:	00000693          	addi	x13,x0,0
    5af8:	00f037b3          	sltu	x15,x0,x15
    5afc:	00098513          	addi	x10,x19,0
    5b00:	000d8593          	addi	x11,x27,0
    5b04:	00fd0d33          	add	x26,x26,x15
    5b08:	3a4060ef          	jal	x1,beac <__udivdi3>
    5b0c:	e05ff06f          	jal	x0,5910 <_vfiprintf_r+0xf84>
    5b10:	20037693          	andi	x13,x6,512
    5b14:	0e069863          	bne	x13,x0,5c04 <_vfiprintf_r+0x1278>
    5b18:	00000593          	addi	x11,x0,0
    5b1c:	f01ff06f          	jal	x0,5a1c <_vfiprintf_r+0x1090>
    5b20:	00068313          	addi	x6,x13,0
    5b24:	00000693          	addi	x13,x0,0
    5b28:	e2068863          	beq	x13,x0,5158 <_vfiprintf_r+0x7cc>
    5b2c:	afdff06f          	jal	x0,5628 <_vfiprintf_r+0xc9c>
    5b30:	d3dfa0ef          	jal	x1,86c <__sinit>
    5b34:	e95fe06f          	jal	x0,49c8 <_vfiprintf_r+0x3c>
    5b38:	001c4783          	lbu	x15,1(x24)
    5b3c:	020beb93          	ori	x23,x23,32
    5b40:	001c0c13          	addi	x24,x24,1
    5b44:	fe1fe06f          	jal	x0,4b24 <_vfiprintf_r+0x198>
    5b48:	001c4783          	lbu	x15,1(x24)
    5b4c:	200beb93          	ori	x23,x23,512
    5b50:	001c0c13          	addi	x24,x24,1
    5b54:	fd1fe06f          	jal	x0,4b24 <_vfiprintf_r+0x198>
    5b58:	00082783          	lw	x15,0(x16)
    5b5c:	00480813          	addi	x16,x16,4
    5b60:	0197a023          	sw	x25,0(x15)
    5b64:	f19fe06f          	jal	x0,4a7c <_vfiprintf_r+0xf0>
    5b68:	00600793          	addi	x15,x0,6
    5b6c:	000d0e93          	addi	x29,x26,0
    5b70:	05a7e063          	bltu	x15,x26,5bb0 <_vfiprintf_r+0x1224>
    5b74:	00012bb7          	lui	x23,0x12
    5b78:	000e8d93          	addi	x27,x29,0
    5b7c:	00098813          	addi	x16,x19,0
    5b80:	f0cb8b93          	addi	x23,x23,-244 # 11f0c <__clzsi2+0x31c>
    5b84:	8e4ff06f          	jal	x0,4c68 <_vfiprintf_r+0x2dc>
    5b88:	00000793          	addi	x15,x0,0
    5b8c:	00000593          	addi	x11,x0,0
    5b90:	a99ff06f          	jal	x0,5628 <_vfiprintf_r+0xc9c>
    5b94:	00100593          	addi	x11,x0,1
    5b98:	00000693          	addi	x13,x0,0
    5b9c:	00048713          	addi	x14,x9,0
    5ba0:	9a0ff06f          	jal	x0,4d40 <_vfiprintf_r+0x3b4>
    5ba4:	00900793          	addi	x15,x0,9
    5ba8:	d737e4e3          	bltu	x15,x19,5910 <_vfiprintf_r+0xf84>
    5bac:	db5ff06f          	jal	x0,5960 <_vfiprintf_r+0xfd4>
    5bb0:	00600e93          	addi	x29,x0,6
    5bb4:	fc1ff06f          	jal	x0,5b74 <_vfiprintf_r+0x11e8>
    5bb8:	00000693          	addi	x13,x0,0
    5bbc:	00100593          	addi	x11,x0,1
    5bc0:	00048713          	addi	x14,x9,0
    5bc4:	904ff06f          	jal	x0,4cc8 <_vfiprintf_r+0x33c>
    5bc8:	00082783          	lw	x15,0(x16)
    5bcc:	00480813          	addi	x16,x16,4
    5bd0:	01979023          	sh	x25,0(x15)
    5bd4:	ea9fe06f          	jal	x0,4a7c <_vfiprintf_r+0xf0>
    5bd8:	0ff7f793          	andi	x15,x15,255
    5bdc:	00000593          	addi	x11,x0,0
    5be0:	e80ff06f          	jal	x0,5260 <_vfiprintf_r+0x8d4>
    5be4:	01879993          	slli	x19,x15,0x18
    5be8:	4189d993          	srai	x19,x19,0x18
    5bec:	41f9dd93          	srai	x27,x19,0x1f
    5bf0:	000d8693          	addi	x13,x27,0
    5bf4:	be4ff06f          	jal	x0,4fd8 <_vfiprintf_r+0x64c>
    5bf8:	0ff7f993          	andi	x19,x15,255
    5bfc:	00000d93          	addi	x27,x0,0
    5c00:	c58ff06f          	jal	x0,5058 <_vfiprintf_r+0x6cc>
    5c04:	0ff7f793          	andi	x15,x15,255
    5c08:	00000593          	addi	x11,x0,0
    5c0c:	e11ff06f          	jal	x0,5a1c <_vfiprintf_r+0x1090>
    5c10:	03000793          	addi	x15,x0,48
    5c14:	cb8ff06f          	jal	x0,50cc <_vfiprintf_r+0x740>
    5c18:	00012e37          	lui	x28,0x12
    5c1c:	00060513          	addi	x10,x12,0
    5c20:	4fce0e13          	addi	x28,x28,1276 # 124fc <blanks.1>
    5c24:	b0dff06f          	jal	x0,5730 <_vfiprintf_r+0xda4>
    5c28:	00012e37          	lui	x28,0x12
    5c2c:	00160593          	addi	x11,x12,1
    5c30:	4fce0e13          	addi	x28,x28,1276 # 124fc <blanks.1>
    5c34:	a90ff06f          	jal	x0,4ec4 <_vfiprintf_r+0x538>
    5c38:	00012e37          	lui	x28,0x12
    5c3c:	00058513          	addi	x10,x11,0
    5c40:	4ece0e13          	addi	x28,x28,1260 # 124ec <zeroes.0>
    5c44:	809ff06f          	jal	x0,544c <_vfiprintf_r+0xac0>
    5c48:	fff00b13          	addi	x22,x0,-1
    5c4c:	fa5fe06f          	jal	x0,4bf0 <_vfiprintf_r+0x264>
    5c50:	00082d03          	lw	x26,0(x16)
    5c54:	00480813          	addi	x16,x16,4
    5c58:	000d5463          	bge	x26,x0,5c60 <_vfiprintf_r+0x12d4>
    5c5c:	fff00d13          	addi	x26,x0,-1
    5c60:	001c4783          	lbu	x15,1(x24)
    5c64:	00058c13          	addi	x24,x11,0
    5c68:	ebdfe06f          	jal	x0,4b24 <_vfiprintf_r+0x198>

00005c6c <vfiprintf>:
    5c6c:	00050793          	addi	x15,x10,0
    5c70:	f0c1a503          	lw	x10,-244(x3) # 1304c <_impure_ptr>
    5c74:	00060693          	addi	x13,x12,0
    5c78:	00058613          	addi	x12,x11,0
    5c7c:	00078593          	addi	x11,x15,0
    5c80:	d0dfe06f          	jal	x0,498c <_vfiprintf_r>

00005c84 <__sbprintf>:
    5c84:	b8010113          	addi	x2,x2,-1152
    5c88:	00c59783          	lh	x15,12(x11)
    5c8c:	00e5d703          	lhu	x14,14(x11)
    5c90:	46812c23          	sw	x8,1144(x2)
    5c94:	00058413          	addi	x8,x11,0
    5c98:	000105b7          	lui	x11,0x10
    5c9c:	ffd58593          	addi	x11,x11,-3 # fffd <__multf3+0x1259>
    5ca0:	06442e03          	lw	x28,100(x8)
    5ca4:	01c42303          	lw	x6,28(x8)
    5ca8:	02442883          	lw	x17,36(x8)
    5cac:	01071713          	slli	x14,x14,0x10
    5cb0:	00b7f7b3          	and	x15,x15,x11
    5cb4:	00e7e7b3          	or	x15,x15,x14
    5cb8:	40000813          	addi	x16,x0,1024
    5cbc:	00f12a23          	sw	x15,20(x2)
    5cc0:	00810593          	addi	x11,x2,8
    5cc4:	07010793          	addi	x15,x2,112
    5cc8:	46912a23          	sw	x9,1140(x2)
    5ccc:	47212823          	sw	x18,1136(x2)
    5cd0:	46112e23          	sw	x1,1148(x2)
    5cd4:	00050913          	addi	x18,x10,0
    5cd8:	07c12623          	sw	x28,108(x2)
    5cdc:	02612223          	sw	x6,36(x2)
    5ce0:	03112623          	sw	x17,44(x2)
    5ce4:	00f12423          	sw	x15,8(x2)
    5ce8:	00f12c23          	sw	x15,24(x2)
    5cec:	01012823          	sw	x16,16(x2)
    5cf0:	01012e23          	sw	x16,28(x2)
    5cf4:	02012023          	sw	x0,32(x2)
    5cf8:	c95fe0ef          	jal	x1,498c <_vfiprintf_r>
    5cfc:	00050493          	addi	x9,x10,0
    5d00:	02055c63          	bge	x10,x0,5d38 <__sbprintf+0xb4>
    5d04:	01415783          	lhu	x15,20(x2)
    5d08:	0407f793          	andi	x15,x15,64
    5d0c:	00078863          	beq	x15,x0,5d1c <__sbprintf+0x98>
    5d10:	00c45783          	lhu	x15,12(x8)
    5d14:	0407e793          	ori	x15,x15,64
    5d18:	00f41623          	sh	x15,12(x8)
    5d1c:	47c12083          	lw	x1,1148(x2)
    5d20:	47812403          	lw	x8,1144(x2)
    5d24:	47012903          	lw	x18,1136(x2)
    5d28:	00048513          	addi	x10,x9,0
    5d2c:	47412483          	lw	x9,1140(x2)
    5d30:	48010113          	addi	x2,x2,1152
    5d34:	00008067          	jalr	x0,0(x1)
    5d38:	00810593          	addi	x11,x2,8
    5d3c:	00090513          	addi	x10,x18,0
    5d40:	370000ef          	jal	x1,60b0 <_fflush_r>
    5d44:	fc0500e3          	beq	x10,x0,5d04 <__sbprintf+0x80>
    5d48:	fff00493          	addi	x9,x0,-1
    5d4c:	fb9ff06f          	jal	x0,5d04 <__sbprintf+0x80>

00005d50 <_fclose_r>:
    5d50:	ff010113          	addi	x2,x2,-16
    5d54:	00112623          	sw	x1,12(x2)
    5d58:	01212023          	sw	x18,0(x2)
    5d5c:	02058863          	beq	x11,x0,5d8c <_fclose_r+0x3c>
    5d60:	00812423          	sw	x8,8(x2)
    5d64:	00912223          	sw	x9,4(x2)
    5d68:	00058413          	addi	x8,x11,0
    5d6c:	00050493          	addi	x9,x10,0
    5d70:	00050663          	beq	x10,x0,5d7c <_fclose_r+0x2c>
    5d74:	03452783          	lw	x15,52(x10)
    5d78:	0c078c63          	beq	x15,x0,5e50 <_fclose_r+0x100>
    5d7c:	00c41783          	lh	x15,12(x8)
    5d80:	02079263          	bne	x15,x0,5da4 <_fclose_r+0x54>
    5d84:	00812403          	lw	x8,8(x2)
    5d88:	00412483          	lw	x9,4(x2)
    5d8c:	00c12083          	lw	x1,12(x2)
    5d90:	00000913          	addi	x18,x0,0
    5d94:	00090513          	addi	x10,x18,0
    5d98:	00012903          	lw	x18,0(x2)
    5d9c:	01010113          	addi	x2,x2,16
    5da0:	00008067          	jalr	x0,0(x1)
    5da4:	00040593          	addi	x11,x8,0
    5da8:	00048513          	addi	x10,x9,0
    5dac:	0b8000ef          	jal	x1,5e64 <__sflush_r>
    5db0:	02c42783          	lw	x15,44(x8)
    5db4:	00050913          	addi	x18,x10,0
    5db8:	00078a63          	beq	x15,x0,5dcc <_fclose_r+0x7c>
    5dbc:	01c42583          	lw	x11,28(x8)
    5dc0:	00048513          	addi	x10,x9,0
    5dc4:	000780e7          	jalr	x1,0(x15)
    5dc8:	06054463          	blt	x10,x0,5e30 <_fclose_r+0xe0>
    5dcc:	00c45783          	lhu	x15,12(x8)
    5dd0:	0807f793          	andi	x15,x15,128
    5dd4:	06079663          	bne	x15,x0,5e40 <_fclose_r+0xf0>
    5dd8:	03042583          	lw	x11,48(x8)
    5ddc:	00058c63          	beq	x11,x0,5df4 <_fclose_r+0xa4>
    5de0:	04040793          	addi	x15,x8,64
    5de4:	00f58663          	beq	x11,x15,5df0 <_fclose_r+0xa0>
    5de8:	00048513          	addi	x10,x9,0
    5dec:	e30fb0ef          	jal	x1,141c <_free_r>
    5df0:	02042823          	sw	x0,48(x8)
    5df4:	04442583          	lw	x11,68(x8)
    5df8:	00058863          	beq	x11,x0,5e08 <_fclose_r+0xb8>
    5dfc:	00048513          	addi	x10,x9,0
    5e00:	e1cfb0ef          	jal	x1,141c <_free_r>
    5e04:	04042223          	sw	x0,68(x8)
    5e08:	a85fa0ef          	jal	x1,88c <__sfp_lock_acquire>
    5e0c:	00041623          	sh	x0,12(x8)
    5e10:	a81fa0ef          	jal	x1,890 <__sfp_lock_release>
    5e14:	00c12083          	lw	x1,12(x2)
    5e18:	00812403          	lw	x8,8(x2)
    5e1c:	00412483          	lw	x9,4(x2)
    5e20:	00090513          	addi	x10,x18,0
    5e24:	00012903          	lw	x18,0(x2)
    5e28:	01010113          	addi	x2,x2,16
    5e2c:	00008067          	jalr	x0,0(x1)
    5e30:	00c45783          	lhu	x15,12(x8)
    5e34:	fff00913          	addi	x18,x0,-1
    5e38:	0807f793          	andi	x15,x15,128
    5e3c:	f8078ee3          	beq	x15,x0,5dd8 <_fclose_r+0x88>
    5e40:	01042583          	lw	x11,16(x8)
    5e44:	00048513          	addi	x10,x9,0
    5e48:	dd4fb0ef          	jal	x1,141c <_free_r>
    5e4c:	f8dff06f          	jal	x0,5dd8 <_fclose_r+0x88>
    5e50:	a1dfa0ef          	jal	x1,86c <__sinit>
    5e54:	f29ff06f          	jal	x0,5d7c <_fclose_r+0x2c>

00005e58 <fclose>:
    5e58:	00050593          	addi	x11,x10,0
    5e5c:	f0c1a503          	lw	x10,-244(x3) # 1304c <_impure_ptr>
    5e60:	ef1ff06f          	jal	x0,5d50 <_fclose_r>

00005e64 <__sflush_r>:
    5e64:	00c59703          	lh	x14,12(x11)
    5e68:	fe010113          	addi	x2,x2,-32
    5e6c:	00812c23          	sw	x8,24(x2)
    5e70:	01312623          	sw	x19,12(x2)
    5e74:	00112e23          	sw	x1,28(x2)
    5e78:	00877793          	andi	x15,x14,8
    5e7c:	00058413          	addi	x8,x11,0
    5e80:	00050993          	addi	x19,x10,0
    5e84:	12079063          	bne	x15,x0,5fa4 <__sflush_r+0x140>
    5e88:	000017b7          	lui	x15,0x1
    5e8c:	80078793          	addi	x15,x15,-2048 # 800 <__sfp+0xbc>
    5e90:	0045a683          	lw	x13,4(x11)
    5e94:	00f767b3          	or	x15,x14,x15
    5e98:	00f59623          	sh	x15,12(x11)
    5e9c:	18d05263          	bge	x0,x13,6020 <__sflush_r+0x1bc>
    5ea0:	02842803          	lw	x16,40(x8)
    5ea4:	0e080463          	beq	x16,x0,5f8c <__sflush_r+0x128>
    5ea8:	00912a23          	sw	x9,20(x2)
    5eac:	01371693          	slli	x13,x14,0x13
    5eb0:	0009a483          	lw	x9,0(x19)
    5eb4:	0009a023          	sw	x0,0(x19)
    5eb8:	01c42583          	lw	x11,28(x8)
    5ebc:	1606ce63          	blt	x13,x0,6038 <__sflush_r+0x1d4>
    5ec0:	00000613          	addi	x12,x0,0
    5ec4:	00100693          	addi	x13,x0,1
    5ec8:	00098513          	addi	x10,x19,0
    5ecc:	000800e7          	jalr	x1,0(x16)
    5ed0:	fff00793          	addi	x15,x0,-1
    5ed4:	00050613          	addi	x12,x10,0
    5ed8:	1af50463          	beq	x10,x15,6080 <__sflush_r+0x21c>
    5edc:	00c41783          	lh	x15,12(x8)
    5ee0:	02842803          	lw	x16,40(x8)
    5ee4:	01c42583          	lw	x11,28(x8)
    5ee8:	0047f793          	andi	x15,x15,4
    5eec:	00078e63          	beq	x15,x0,5f08 <__sflush_r+0xa4>
    5ef0:	00442703          	lw	x14,4(x8)
    5ef4:	03042783          	lw	x15,48(x8)
    5ef8:	40e60633          	sub	x12,x12,x14
    5efc:	00078663          	beq	x15,x0,5f08 <__sflush_r+0xa4>
    5f00:	03c42783          	lw	x15,60(x8)
    5f04:	40f60633          	sub	x12,x12,x15
    5f08:	00000693          	addi	x13,x0,0
    5f0c:	00098513          	addi	x10,x19,0
    5f10:	000800e7          	jalr	x1,0(x16)
    5f14:	fff00793          	addi	x15,x0,-1
    5f18:	12f51463          	bne	x10,x15,6040 <__sflush_r+0x1dc>
    5f1c:	0009a683          	lw	x13,0(x19)
    5f20:	01d00793          	addi	x15,x0,29
    5f24:	00c41703          	lh	x14,12(x8)
    5f28:	16d7ea63          	bltu	x15,x13,609c <__sflush_r+0x238>
    5f2c:	204007b7          	lui	x15,0x20400
    5f30:	00178793          	addi	x15,x15,1 # 20400001 <__heap_end+0x20000001>
    5f34:	00d7d7b3          	srl	x15,x15,x13
    5f38:	0017f793          	andi	x15,x15,1
    5f3c:	16078063          	beq	x15,x0,609c <__sflush_r+0x238>
    5f40:	01042603          	lw	x12,16(x8)
    5f44:	fffff7b7          	lui	x15,0xfffff
    5f48:	7ff78793          	addi	x15,x15,2047 # fffff7ff <__heap_end+0xffbff7ff>
    5f4c:	00f777b3          	and	x15,x14,x15
    5f50:	00f41623          	sh	x15,12(x8)
    5f54:	00042223          	sw	x0,4(x8)
    5f58:	00c42023          	sw	x12,0(x8)
    5f5c:	01371793          	slli	x15,x14,0x13
    5f60:	0007d463          	bge	x15,x0,5f68 <__sflush_r+0x104>
    5f64:	10068263          	beq	x13,x0,6068 <__sflush_r+0x204>
    5f68:	03042583          	lw	x11,48(x8)
    5f6c:	0099a023          	sw	x9,0(x19)
    5f70:	10058463          	beq	x11,x0,6078 <__sflush_r+0x214>
    5f74:	04040793          	addi	x15,x8,64
    5f78:	00f58663          	beq	x11,x15,5f84 <__sflush_r+0x120>
    5f7c:	00098513          	addi	x10,x19,0
    5f80:	c9cfb0ef          	jal	x1,141c <_free_r>
    5f84:	01412483          	lw	x9,20(x2)
    5f88:	02042823          	sw	x0,48(x8)
    5f8c:	00000513          	addi	x10,x0,0
    5f90:	01c12083          	lw	x1,28(x2)
    5f94:	01812403          	lw	x8,24(x2)
    5f98:	00c12983          	lw	x19,12(x2)
    5f9c:	02010113          	addi	x2,x2,32
    5fa0:	00008067          	jalr	x0,0(x1)
    5fa4:	01212823          	sw	x18,16(x2)
    5fa8:	0105a903          	lw	x18,16(x11)
    5fac:	08090263          	beq	x18,x0,6030 <__sflush_r+0x1cc>
    5fb0:	00912a23          	sw	x9,20(x2)
    5fb4:	0005a483          	lw	x9,0(x11)
    5fb8:	00377713          	andi	x14,x14,3
    5fbc:	0125a023          	sw	x18,0(x11)
    5fc0:	412484b3          	sub	x9,x9,x18
    5fc4:	00000793          	addi	x15,x0,0
    5fc8:	00071463          	bne	x14,x0,5fd0 <__sflush_r+0x16c>
    5fcc:	0145a783          	lw	x15,20(x11)
    5fd0:	00f42423          	sw	x15,8(x8)
    5fd4:	00904863          	blt	x0,x9,5fe4 <__sflush_r+0x180>
    5fd8:	0540006f          	jal	x0,602c <__sflush_r+0x1c8>
    5fdc:	00a90933          	add	x18,x18,x10
    5fe0:	04905663          	bge	x0,x9,602c <__sflush_r+0x1c8>
    5fe4:	02442783          	lw	x15,36(x8)
    5fe8:	01c42583          	lw	x11,28(x8)
    5fec:	00048693          	addi	x13,x9,0
    5ff0:	00090613          	addi	x12,x18,0
    5ff4:	00098513          	addi	x10,x19,0
    5ff8:	000780e7          	jalr	x1,0(x15)
    5ffc:	40a484b3          	sub	x9,x9,x10
    6000:	fca04ee3          	blt	x0,x10,5fdc <__sflush_r+0x178>
    6004:	00c41703          	lh	x14,12(x8)
    6008:	01012903          	lw	x18,16(x2)
    600c:	04076713          	ori	x14,x14,64
    6010:	01412483          	lw	x9,20(x2)
    6014:	00e41623          	sh	x14,12(x8)
    6018:	fff00513          	addi	x10,x0,-1
    601c:	f75ff06f          	jal	x0,5f90 <__sflush_r+0x12c>
    6020:	03c5a683          	lw	x13,60(x11)
    6024:	e6d04ee3          	blt	x0,x13,5ea0 <__sflush_r+0x3c>
    6028:	f65ff06f          	jal	x0,5f8c <__sflush_r+0x128>
    602c:	01412483          	lw	x9,20(x2)
    6030:	01012903          	lw	x18,16(x2)
    6034:	f59ff06f          	jal	x0,5f8c <__sflush_r+0x128>
    6038:	05042603          	lw	x12,80(x8)
    603c:	eadff06f          	jal	x0,5ee8 <__sflush_r+0x84>
    6040:	00c41703          	lh	x14,12(x8)
    6044:	01042683          	lw	x13,16(x8)
    6048:	fffff7b7          	lui	x15,0xfffff
    604c:	7ff78793          	addi	x15,x15,2047 # fffff7ff <__heap_end+0xffbff7ff>
    6050:	00f777b3          	and	x15,x14,x15
    6054:	00f41623          	sh	x15,12(x8)
    6058:	00042223          	sw	x0,4(x8)
    605c:	00d42023          	sw	x13,0(x8)
    6060:	01371793          	slli	x15,x14,0x13
    6064:	f007d2e3          	bge	x15,x0,5f68 <__sflush_r+0x104>
    6068:	03042583          	lw	x11,48(x8)
    606c:	04a42823          	sw	x10,80(x8)
    6070:	0099a023          	sw	x9,0(x19)
    6074:	f00590e3          	bne	x11,x0,5f74 <__sflush_r+0x110>
    6078:	01412483          	lw	x9,20(x2)
    607c:	f11ff06f          	jal	x0,5f8c <__sflush_r+0x128>
    6080:	0009a783          	lw	x15,0(x19)
    6084:	e4078ce3          	beq	x15,x0,5edc <__sflush_r+0x78>
    6088:	01d00713          	addi	x14,x0,29
    608c:	00e78c63          	beq	x15,x14,60a4 <__sflush_r+0x240>
    6090:	01600713          	addi	x14,x0,22
    6094:	00e78863          	beq	x15,x14,60a4 <__sflush_r+0x240>
    6098:	00c41703          	lh	x14,12(x8)
    609c:	04076713          	ori	x14,x14,64
    60a0:	f71ff06f          	jal	x0,6010 <__sflush_r+0x1ac>
    60a4:	0099a023          	sw	x9,0(x19)
    60a8:	01412483          	lw	x9,20(x2)
    60ac:	ee1ff06f          	jal	x0,5f8c <__sflush_r+0x128>

000060b0 <_fflush_r>:
    60b0:	fe010113          	addi	x2,x2,-32
    60b4:	00812c23          	sw	x8,24(x2)
    60b8:	00112e23          	sw	x1,28(x2)
    60bc:	00050413          	addi	x8,x10,0
    60c0:	00050663          	beq	x10,x0,60cc <_fflush_r+0x1c>
    60c4:	03452783          	lw	x15,52(x10)
    60c8:	02078a63          	beq	x15,x0,60fc <_fflush_r+0x4c>
    60cc:	00c59783          	lh	x15,12(x11)
    60d0:	00079c63          	bne	x15,x0,60e8 <_fflush_r+0x38>
    60d4:	01c12083          	lw	x1,28(x2)
    60d8:	01812403          	lw	x8,24(x2)
    60dc:	00000513          	addi	x10,x0,0
    60e0:	02010113          	addi	x2,x2,32
    60e4:	00008067          	jalr	x0,0(x1)
    60e8:	00040513          	addi	x10,x8,0
    60ec:	01812403          	lw	x8,24(x2)
    60f0:	01c12083          	lw	x1,28(x2)
    60f4:	02010113          	addi	x2,x2,32
    60f8:	d6dff06f          	jal	x0,5e64 <__sflush_r>
    60fc:	00b12623          	sw	x11,12(x2)
    6100:	f6cfa0ef          	jal	x1,86c <__sinit>
    6104:	00c12583          	lw	x11,12(x2)
    6108:	fc5ff06f          	jal	x0,60cc <_fflush_r+0x1c>

0000610c <fflush>:
    610c:	06050063          	beq	x10,x0,616c <fflush+0x60>
    6110:	00050593          	addi	x11,x10,0
    6114:	f0c1a503          	lw	x10,-244(x3) # 1304c <_impure_ptr>
    6118:	00050663          	beq	x10,x0,6124 <fflush+0x18>
    611c:	03452783          	lw	x15,52(x10)
    6120:	00078c63          	beq	x15,x0,6138 <fflush+0x2c>
    6124:	00c59783          	lh	x15,12(x11)
    6128:	00079663          	bne	x15,x0,6134 <fflush+0x28>
    612c:	00000513          	addi	x10,x0,0
    6130:	00008067          	jalr	x0,0(x1)
    6134:	d31ff06f          	jal	x0,5e64 <__sflush_r>
    6138:	fe010113          	addi	x2,x2,-32
    613c:	00b12623          	sw	x11,12(x2)
    6140:	00a12423          	sw	x10,8(x2)
    6144:	00112e23          	sw	x1,28(x2)
    6148:	f24fa0ef          	jal	x1,86c <__sinit>
    614c:	00c12583          	lw	x11,12(x2)
    6150:	00812503          	lw	x10,8(x2)
    6154:	00c59783          	lh	x15,12(x11)
    6158:	02079863          	bne	x15,x0,6188 <fflush+0x7c>
    615c:	01c12083          	lw	x1,28(x2)
    6160:	00000513          	addi	x10,x0,0
    6164:	02010113          	addi	x2,x2,32
    6168:	00008067          	jalr	x0,0(x1)
    616c:	00013637          	lui	x12,0x13
    6170:	000065b7          	lui	x11,0x6
    6174:	00013537          	lui	x10,0x13
    6178:	94060613          	addi	x12,x12,-1728 # 12940 <__sglue>
    617c:	0b058593          	addi	x11,x11,176 # 60b0 <_fflush_r>
    6180:	95050513          	addi	x10,x10,-1712 # 12950 <_impure_data>
    6184:	f38fa06f          	jal	x0,8bc <_fwalk_sglue>
    6188:	01c12083          	lw	x1,28(x2)
    618c:	02010113          	addi	x2,x2,32
    6190:	cd5ff06f          	jal	x0,5e64 <__sflush_r>

00006194 <__sfvwrite_r>:
    6194:	00862783          	lw	x15,8(x12)
    6198:	2c078463          	beq	x15,x0,6460 <__sfvwrite_r+0x2cc>
    619c:	00c59683          	lh	x13,12(x11)
    61a0:	fd010113          	addi	x2,x2,-48
    61a4:	02812423          	sw	x8,40(x2)
    61a8:	01412c23          	sw	x20,24(x2)
    61ac:	01612823          	sw	x22,16(x2)
    61b0:	02112623          	sw	x1,44(x2)
    61b4:	0086f793          	andi	x15,x13,8
    61b8:	00060b13          	addi	x22,x12,0
    61bc:	00050a13          	addi	x20,x10,0
    61c0:	00058413          	addi	x8,x11,0
    61c4:	08078e63          	beq	x15,x0,6260 <__sfvwrite_r+0xcc>
    61c8:	0105a783          	lw	x15,16(x11)
    61cc:	08078a63          	beq	x15,x0,6260 <__sfvwrite_r+0xcc>
    61d0:	02912223          	sw	x9,36(x2)
    61d4:	03212023          	sw	x18,32(x2)
    61d8:	01312e23          	sw	x19,28(x2)
    61dc:	01512a23          	sw	x21,20(x2)
    61e0:	0026f793          	andi	x15,x13,2
    61e4:	000b2483          	lw	x9,0(x22)
    61e8:	0a078463          	beq	x15,x0,6290 <__sfvwrite_r+0xfc>
    61ec:	02442783          	lw	x15,36(x8)
    61f0:	01c42583          	lw	x11,28(x8)
    61f4:	80000ab7          	lui	x21,0x80000
    61f8:	00000993          	addi	x19,x0,0
    61fc:	00000913          	addi	x18,x0,0
    6200:	c00a8a93          	addi	x21,x21,-1024 # 7ffffc00 <__heap_end+0x7fbffc00>
    6204:	00098613          	addi	x12,x19,0
    6208:	000a0513          	addi	x10,x20,0
    620c:	04090263          	beq	x18,x0,6250 <__sfvwrite_r+0xbc>
    6210:	00090693          	addi	x13,x18,0
    6214:	012af463          	bgeu	x21,x18,621c <__sfvwrite_r+0x88>
    6218:	000a8693          	addi	x13,x21,0
    621c:	000780e7          	jalr	x1,0(x15)
    6220:	46a05263          	bge	x0,x10,6684 <__sfvwrite_r+0x4f0>
    6224:	008b2783          	lw	x15,8(x22)
    6228:	00a989b3          	add	x19,x19,x10
    622c:	40a90933          	sub	x18,x18,x10
    6230:	40a787b3          	sub	x15,x15,x10
    6234:	00fb2423          	sw	x15,8(x22)
    6238:	1a078663          	beq	x15,x0,63e4 <__sfvwrite_r+0x250>
    623c:	02442783          	lw	x15,36(x8)
    6240:	01c42583          	lw	x11,28(x8)
    6244:	00098613          	addi	x12,x19,0
    6248:	000a0513          	addi	x10,x20,0
    624c:	fc0912e3          	bne	x18,x0,6210 <__sfvwrite_r+0x7c>
    6250:	0004a983          	lw	x19,0(x9)
    6254:	0044a903          	lw	x18,4(x9)
    6258:	00848493          	addi	x9,x9,8
    625c:	fa9ff06f          	jal	x0,6204 <__sfvwrite_r+0x70>
    6260:	00040593          	addi	x11,x8,0
    6264:	000a0513          	addi	x10,x20,0
    6268:	718000ef          	jal	x1,6980 <__swsetup_r>
    626c:	1c051c63          	bne	x10,x0,6444 <__sfvwrite_r+0x2b0>
    6270:	00c41683          	lh	x13,12(x8)
    6274:	02912223          	sw	x9,36(x2)
    6278:	03212023          	sw	x18,32(x2)
    627c:	01312e23          	sw	x19,28(x2)
    6280:	01512a23          	sw	x21,20(x2)
    6284:	0026f793          	andi	x15,x13,2
    6288:	000b2483          	lw	x9,0(x22)
    628c:	f60790e3          	bne	x15,x0,61ec <__sfvwrite_r+0x58>
    6290:	01712623          	sw	x23,12(x2)
    6294:	01812423          	sw	x24,8(x2)
    6298:	0016f793          	andi	x15,x13,1
    629c:	1c079663          	bne	x15,x0,6468 <__sfvwrite_r+0x2d4>
    62a0:	00042783          	lw	x15,0(x8)
    62a4:	00842703          	lw	x14,8(x8)
    62a8:	80000ab7          	lui	x21,0x80000
    62ac:	01912223          	sw	x25,4(x2)
    62b0:	00000b93          	addi	x23,x0,0
    62b4:	00000993          	addi	x19,x0,0
    62b8:	fffa8a93          	addi	x21,x21,-1 # 7fffffff <__heap_end+0x7fbfffff>
    62bc:	00078513          	addi	x10,x15,0
    62c0:	00070c13          	addi	x24,x14,0
    62c4:	10098263          	beq	x19,x0,63c8 <__sfvwrite_r+0x234>
    62c8:	2006f613          	andi	x12,x13,512
    62cc:	28060863          	beq	x12,x0,655c <__sfvwrite_r+0x3c8>
    62d0:	00070c93          	addi	x25,x14,0
    62d4:	32e9e863          	bltu	x19,x14,6604 <__sfvwrite_r+0x470>
    62d8:	4806f713          	andi	x14,x13,1152
    62dc:	08070a63          	beq	x14,x0,6370 <__sfvwrite_r+0x1dc>
    62e0:	01442603          	lw	x12,20(x8)
    62e4:	01042583          	lw	x11,16(x8)
    62e8:	00161713          	slli	x14,x12,0x1
    62ec:	00c70733          	add	x14,x14,x12
    62f0:	40b78933          	sub	x18,x15,x11
    62f4:	01f75c13          	srli	x24,x14,0x1f
    62f8:	00ec0c33          	add	x24,x24,x14
    62fc:	00190793          	addi	x15,x18,1
    6300:	401c5c13          	srai	x24,x24,0x1
    6304:	013787b3          	add	x15,x15,x19
    6308:	000c0613          	addi	x12,x24,0
    630c:	00fc7663          	bgeu	x24,x15,6318 <__sfvwrite_r+0x184>
    6310:	00078c13          	addi	x24,x15,0
    6314:	00078613          	addi	x12,x15,0
    6318:	4006f693          	andi	x13,x13,1024
    631c:	32068063          	beq	x13,x0,663c <__sfvwrite_r+0x4a8>
    6320:	00060593          	addi	x11,x12,0
    6324:	000a0513          	addi	x10,x20,0
    6328:	bf8fb0ef          	jal	x1,1720 <_malloc_r>
    632c:	00050c93          	addi	x25,x10,0
    6330:	34050e63          	beq	x10,x0,668c <__sfvwrite_r+0x4f8>
    6334:	01042583          	lw	x11,16(x8)
    6338:	00090613          	addi	x12,x18,0
    633c:	519000ef          	jal	x1,7054 <memcpy>
    6340:	00c45783          	lhu	x15,12(x8)
    6344:	b7f7f793          	andi	x15,x15,-1153
    6348:	0807e793          	ori	x15,x15,128
    634c:	00f41623          	sh	x15,12(x8)
    6350:	012c8533          	add	x10,x25,x18
    6354:	412c07b3          	sub	x15,x24,x18
    6358:	01942823          	sw	x25,16(x8)
    635c:	01842a23          	sw	x24,20(x8)
    6360:	00a42023          	sw	x10,0(x8)
    6364:	00098c13          	addi	x24,x19,0
    6368:	00f42423          	sw	x15,8(x8)
    636c:	00098c93          	addi	x25,x19,0
    6370:	000c8613          	addi	x12,x25,0
    6374:	000b8593          	addi	x11,x23,0
    6378:	3d1000ef          	jal	x1,6f48 <memmove>
    637c:	00842703          	lw	x14,8(x8)
    6380:	00042783          	lw	x15,0(x8)
    6384:	00098913          	addi	x18,x19,0
    6388:	41870733          	sub	x14,x14,x24
    638c:	019787b3          	add	x15,x15,x25
    6390:	00e42423          	sw	x14,8(x8)
    6394:	00f42023          	sw	x15,0(x8)
    6398:	00000993          	addi	x19,x0,0
    639c:	008b2783          	lw	x15,8(x22)
    63a0:	012b8bb3          	add	x23,x23,x18
    63a4:	412787b3          	sub	x15,x15,x18
    63a8:	00fb2423          	sw	x15,8(x22)
    63ac:	02078663          	beq	x15,x0,63d8 <__sfvwrite_r+0x244>
    63b0:	00042783          	lw	x15,0(x8)
    63b4:	00842703          	lw	x14,8(x8)
    63b8:	00c41683          	lh	x13,12(x8)
    63bc:	00078513          	addi	x10,x15,0
    63c0:	00070c13          	addi	x24,x14,0
    63c4:	f00992e3          	bne	x19,x0,62c8 <__sfvwrite_r+0x134>
    63c8:	0004ab83          	lw	x23,0(x9)
    63cc:	0044a983          	lw	x19,4(x9)
    63d0:	00848493          	addi	x9,x9,8
    63d4:	ee9ff06f          	jal	x0,62bc <__sfvwrite_r+0x128>
    63d8:	00c12b83          	lw	x23,12(x2)
    63dc:	00812c03          	lw	x24,8(x2)
    63e0:	00412c83          	lw	x25,4(x2)
    63e4:	02c12083          	lw	x1,44(x2)
    63e8:	02812403          	lw	x8,40(x2)
    63ec:	02412483          	lw	x9,36(x2)
    63f0:	02012903          	lw	x18,32(x2)
    63f4:	01c12983          	lw	x19,28(x2)
    63f8:	01412a83          	lw	x21,20(x2)
    63fc:	01812a03          	lw	x20,24(x2)
    6400:	01012b03          	lw	x22,16(x2)
    6404:	00000513          	addi	x10,x0,0
    6408:	03010113          	addi	x2,x2,48
    640c:	00008067          	jalr	x0,0(x1)
    6410:	00040593          	addi	x11,x8,0
    6414:	000a0513          	addi	x10,x20,0
    6418:	c99ff0ef          	jal	x1,60b0 <_fflush_r>
    641c:	0a050e63          	beq	x10,x0,64d8 <__sfvwrite_r+0x344>
    6420:	00c41783          	lh	x15,12(x8)
    6424:	00c12b83          	lw	x23,12(x2)
    6428:	00812c03          	lw	x24,8(x2)
    642c:	02412483          	lw	x9,36(x2)
    6430:	02012903          	lw	x18,32(x2)
    6434:	01c12983          	lw	x19,28(x2)
    6438:	01412a83          	lw	x21,20(x2)
    643c:	0407e793          	ori	x15,x15,64
    6440:	00f41623          	sh	x15,12(x8)
    6444:	02c12083          	lw	x1,44(x2)
    6448:	02812403          	lw	x8,40(x2)
    644c:	01812a03          	lw	x20,24(x2)
    6450:	01012b03          	lw	x22,16(x2)
    6454:	fff00513          	addi	x10,x0,-1
    6458:	03010113          	addi	x2,x2,48
    645c:	00008067          	jalr	x0,0(x1)
    6460:	00000513          	addi	x10,x0,0
    6464:	00008067          	jalr	x0,0(x1)
    6468:	00000a93          	addi	x21,x0,0
    646c:	00000513          	addi	x10,x0,0
    6470:	00000c13          	addi	x24,x0,0
    6474:	00000993          	addi	x19,x0,0
    6478:	08098263          	beq	x19,x0,64fc <__sfvwrite_r+0x368>
    647c:	08050a63          	beq	x10,x0,6510 <__sfvwrite_r+0x37c>
    6480:	000a8793          	addi	x15,x21,0
    6484:	00098b93          	addi	x23,x19,0
    6488:	0137f463          	bgeu	x15,x19,6490 <__sfvwrite_r+0x2fc>
    648c:	00078b93          	addi	x23,x15,0
    6490:	00042503          	lw	x10,0(x8)
    6494:	01042783          	lw	x15,16(x8)
    6498:	00842903          	lw	x18,8(x8)
    649c:	01442683          	lw	x13,20(x8)
    64a0:	00a7f663          	bgeu	x15,x10,64ac <__sfvwrite_r+0x318>
    64a4:	00d90933          	add	x18,x18,x13
    64a8:	09794463          	blt	x18,x23,6530 <__sfvwrite_r+0x39c>
    64ac:	16dbc263          	blt	x23,x13,6610 <__sfvwrite_r+0x47c>
    64b0:	02442783          	lw	x15,36(x8)
    64b4:	01c42583          	lw	x11,28(x8)
    64b8:	000c0613          	addi	x12,x24,0
    64bc:	000a0513          	addi	x10,x20,0
    64c0:	000780e7          	jalr	x1,0(x15)
    64c4:	00050913          	addi	x18,x10,0
    64c8:	f4a05ce3          	bge	x0,x10,6420 <__sfvwrite_r+0x28c>
    64cc:	412a8ab3          	sub	x21,x21,x18
    64d0:	00100513          	addi	x10,x0,1
    64d4:	f20a8ee3          	beq	x21,x0,6410 <__sfvwrite_r+0x27c>
    64d8:	008b2783          	lw	x15,8(x22)
    64dc:	012c0c33          	add	x24,x24,x18
    64e0:	412989b3          	sub	x19,x19,x18
    64e4:	412787b3          	sub	x15,x15,x18
    64e8:	00fb2423          	sw	x15,8(x22)
    64ec:	f80796e3          	bne	x15,x0,6478 <__sfvwrite_r+0x2e4>
    64f0:	00c12b83          	lw	x23,12(x2)
    64f4:	00812c03          	lw	x24,8(x2)
    64f8:	eedff06f          	jal	x0,63e4 <__sfvwrite_r+0x250>
    64fc:	0044a983          	lw	x19,4(x9)
    6500:	00048793          	addi	x15,x9,0
    6504:	00848493          	addi	x9,x9,8
    6508:	fe098ae3          	beq	x19,x0,64fc <__sfvwrite_r+0x368>
    650c:	0007ac03          	lw	x24,0(x15)
    6510:	00098613          	addi	x12,x19,0
    6514:	00a00593          	addi	x11,x0,10
    6518:	000c0513          	addi	x10,x24,0
    651c:	740000ef          	jal	x1,6c5c <memchr>
    6520:	14050c63          	beq	x10,x0,6678 <__sfvwrite_r+0x4e4>
    6524:	00150513          	addi	x10,x10,1
    6528:	41850ab3          	sub	x21,x10,x24
    652c:	f55ff06f          	jal	x0,6480 <__sfvwrite_r+0x2ec>
    6530:	000c0593          	addi	x11,x24,0
    6534:	00090613          	addi	x12,x18,0
    6538:	211000ef          	jal	x1,6f48 <memmove>
    653c:	00042783          	lw	x15,0(x8)
    6540:	00040593          	addi	x11,x8,0
    6544:	000a0513          	addi	x10,x20,0
    6548:	012787b3          	add	x15,x15,x18
    654c:	00f42023          	sw	x15,0(x8)
    6550:	b61ff0ef          	jal	x1,60b0 <_fflush_r>
    6554:	f6050ce3          	beq	x10,x0,64cc <__sfvwrite_r+0x338>
    6558:	ec9ff06f          	jal	x0,6420 <__sfvwrite_r+0x28c>
    655c:	01042683          	lw	x13,16(x8)
    6560:	04f6e463          	bltu	x13,x15,65a8 <__sfvwrite_r+0x414>
    6564:	01442583          	lw	x11,20(x8)
    6568:	04b9e063          	bltu	x19,x11,65a8 <__sfvwrite_r+0x414>
    656c:	00098913          	addi	x18,x19,0
    6570:	013af463          	bgeu	x21,x19,6578 <__sfvwrite_r+0x3e4>
    6574:	000a8913          	addi	x18,x21,0
    6578:	00090513          	addi	x10,x18,0
    657c:	6440b0ef          	jal	x1,11bc0 <__modsi3>
    6580:	02442783          	lw	x15,36(x8)
    6584:	01c42583          	lw	x11,28(x8)
    6588:	40a906b3          	sub	x13,x18,x10
    658c:	000b8613          	addi	x12,x23,0
    6590:	000a0513          	addi	x10,x20,0
    6594:	000780e7          	jalr	x1,0(x15)
    6598:	00050913          	addi	x18,x10,0
    659c:	04a05a63          	bge	x0,x10,65f0 <__sfvwrite_r+0x45c>
    65a0:	412989b3          	sub	x19,x19,x18
    65a4:	df9ff06f          	jal	x0,639c <__sfvwrite_r+0x208>
    65a8:	00070913          	addi	x18,x14,0
    65ac:	00e9f463          	bgeu	x19,x14,65b4 <__sfvwrite_r+0x420>
    65b0:	00098913          	addi	x18,x19,0
    65b4:	00078513          	addi	x10,x15,0
    65b8:	00090613          	addi	x12,x18,0
    65bc:	000b8593          	addi	x11,x23,0
    65c0:	189000ef          	jal	x1,6f48 <memmove>
    65c4:	00842703          	lw	x14,8(x8)
    65c8:	00042783          	lw	x15,0(x8)
    65cc:	41270733          	sub	x14,x14,x18
    65d0:	012787b3          	add	x15,x15,x18
    65d4:	00e42423          	sw	x14,8(x8)
    65d8:	00f42023          	sw	x15,0(x8)
    65dc:	fc0712e3          	bne	x14,x0,65a0 <__sfvwrite_r+0x40c>
    65e0:	00040593          	addi	x11,x8,0
    65e4:	000a0513          	addi	x10,x20,0
    65e8:	ac9ff0ef          	jal	x1,60b0 <_fflush_r>
    65ec:	fa050ae3          	beq	x10,x0,65a0 <__sfvwrite_r+0x40c>
    65f0:	00c41783          	lh	x15,12(x8)
    65f4:	00c12b83          	lw	x23,12(x2)
    65f8:	00812c03          	lw	x24,8(x2)
    65fc:	00412c83          	lw	x25,4(x2)
    6600:	e2dff06f          	jal	x0,642c <__sfvwrite_r+0x298>
    6604:	00098c13          	addi	x24,x19,0
    6608:	00098c93          	addi	x25,x19,0
    660c:	d65ff06f          	jal	x0,6370 <__sfvwrite_r+0x1dc>
    6610:	000b8613          	addi	x12,x23,0
    6614:	000c0593          	addi	x11,x24,0
    6618:	131000ef          	jal	x1,6f48 <memmove>
    661c:	00842703          	lw	x14,8(x8)
    6620:	00042783          	lw	x15,0(x8)
    6624:	000b8913          	addi	x18,x23,0
    6628:	41770733          	sub	x14,x14,x23
    662c:	017787b3          	add	x15,x15,x23
    6630:	00e42423          	sw	x14,8(x8)
    6634:	00f42023          	sw	x15,0(x8)
    6638:	e95ff06f          	jal	x0,64cc <__sfvwrite_r+0x338>
    663c:	000a0513          	addi	x10,x20,0
    6640:	624040ef          	jal	x1,ac64 <_realloc_r>
    6644:	00050c93          	addi	x25,x10,0
    6648:	d00514e3          	bne	x10,x0,6350 <__sfvwrite_r+0x1bc>
    664c:	01042583          	lw	x11,16(x8)
    6650:	000a0513          	addi	x10,x20,0
    6654:	dc9fa0ef          	jal	x1,141c <_free_r>
    6658:	00c41783          	lh	x15,12(x8)
    665c:	00c00713          	addi	x14,x0,12
    6660:	00c12b83          	lw	x23,12(x2)
    6664:	00812c03          	lw	x24,8(x2)
    6668:	00412c83          	lw	x25,4(x2)
    666c:	00ea2023          	sw	x14,0(x20)
    6670:	f7f7f793          	andi	x15,x15,-129
    6674:	db9ff06f          	jal	x0,642c <__sfvwrite_r+0x298>
    6678:	00198793          	addi	x15,x19,1
    667c:	00078a93          	addi	x21,x15,0
    6680:	e05ff06f          	jal	x0,6484 <__sfvwrite_r+0x2f0>
    6684:	00c41783          	lh	x15,12(x8)
    6688:	da5ff06f          	jal	x0,642c <__sfvwrite_r+0x298>
    668c:	00c00713          	addi	x14,x0,12
    6690:	00c41783          	lh	x15,12(x8)
    6694:	00c12b83          	lw	x23,12(x2)
    6698:	00812c03          	lw	x24,8(x2)
    669c:	00412c83          	lw	x25,4(x2)
    66a0:	00ea2023          	sw	x14,0(x20)
    66a4:	d89ff06f          	jal	x0,642c <__sfvwrite_r+0x298>

000066a8 <_putc_r>:
    66a8:	fe010113          	addi	x2,x2,-32
    66ac:	00812c23          	sw	x8,24(x2)
    66b0:	00112e23          	sw	x1,28(x2)
    66b4:	00050413          	addi	x8,x10,0
    66b8:	00050663          	beq	x10,x0,66c4 <_putc_r+0x1c>
    66bc:	03452783          	lw	x15,52(x10)
    66c0:	06078063          	beq	x15,x0,6720 <_putc_r+0x78>
    66c4:	00862783          	lw	x15,8(x12)
    66c8:	fff78793          	addi	x15,x15,-1
    66cc:	00f62423          	sw	x15,8(x12)
    66d0:	0007dc63          	bge	x15,x0,66e8 <_putc_r+0x40>
    66d4:	01862703          	lw	x14,24(x12)
    66d8:	02e7ca63          	blt	x15,x14,670c <_putc_r+0x64>
    66dc:	0ff5f793          	andi	x15,x11,255
    66e0:	00a00713          	addi	x14,x0,10
    66e4:	02e78463          	beq	x15,x14,670c <_putc_r+0x64>
    66e8:	00062783          	lw	x15,0(x12)
    66ec:	0ff5f513          	andi	x10,x11,255
    66f0:	00178713          	addi	x14,x15,1
    66f4:	00e62023          	sw	x14,0(x12)
    66f8:	00b78023          	sb	x11,0(x15)
    66fc:	01c12083          	lw	x1,28(x2)
    6700:	01812403          	lw	x8,24(x2)
    6704:	02010113          	addi	x2,x2,32
    6708:	00008067          	jalr	x0,0(x1)
    670c:	00040513          	addi	x10,x8,0
    6710:	01812403          	lw	x8,24(x2)
    6714:	01c12083          	lw	x1,28(x2)
    6718:	02010113          	addi	x2,x2,32
    671c:	0c00006f          	jal	x0,67dc <__swbuf_r>
    6720:	00c12623          	sw	x12,12(x2)
    6724:	00b12423          	sw	x11,8(x2)
    6728:	944fa0ef          	jal	x1,86c <__sinit>
    672c:	00c12603          	lw	x12,12(x2)
    6730:	00812583          	lw	x11,8(x2)
    6734:	f91ff06f          	jal	x0,66c4 <_putc_r+0x1c>

00006738 <putc>:
    6738:	fe010113          	addi	x2,x2,-32
    673c:	01212a23          	sw	x18,20(x2)
    6740:	f0c1a903          	lw	x18,-244(x3) # 1304c <_impure_ptr>
    6744:	00912c23          	sw	x9,24(x2)
    6748:	00112e23          	sw	x1,28(x2)
    674c:	00050493          	addi	x9,x10,0
    6750:	00090663          	beq	x18,x0,675c <putc+0x24>
    6754:	03492783          	lw	x15,52(x18)
    6758:	06078863          	beq	x15,x0,67c8 <putc+0x90>
    675c:	0085a783          	lw	x15,8(x11)
    6760:	fff78793          	addi	x15,x15,-1
    6764:	00f5a423          	sw	x15,8(x11)
    6768:	0007dc63          	bge	x15,x0,6780 <putc+0x48>
    676c:	0185a703          	lw	x14,24(x11)
    6770:	02e7cc63          	blt	x15,x14,67a8 <putc+0x70>
    6774:	0ff4f793          	andi	x15,x9,255
    6778:	00a00713          	addi	x14,x0,10
    677c:	02e78663          	beq	x15,x14,67a8 <putc+0x70>
    6780:	0005a783          	lw	x15,0(x11)
    6784:	0ff4f513          	andi	x10,x9,255
    6788:	00178713          	addi	x14,x15,1
    678c:	00e5a023          	sw	x14,0(x11)
    6790:	00978023          	sb	x9,0(x15)
    6794:	01c12083          	lw	x1,28(x2)
    6798:	01812483          	lw	x9,24(x2)
    679c:	01412903          	lw	x18,20(x2)
    67a0:	02010113          	addi	x2,x2,32
    67a4:	00008067          	jalr	x0,0(x1)
    67a8:	01c12083          	lw	x1,28(x2)
    67ac:	00058613          	addi	x12,x11,0
    67b0:	00090513          	addi	x10,x18,0
    67b4:	00048593          	addi	x11,x9,0
    67b8:	01412903          	lw	x18,20(x2)
    67bc:	01812483          	lw	x9,24(x2)
    67c0:	02010113          	addi	x2,x2,32
    67c4:	0180006f          	jal	x0,67dc <__swbuf_r>
    67c8:	00090513          	addi	x10,x18,0
    67cc:	00b12623          	sw	x11,12(x2)
    67d0:	89cfa0ef          	jal	x1,86c <__sinit>
    67d4:	00c12583          	lw	x11,12(x2)
    67d8:	f85ff06f          	jal	x0,675c <putc+0x24>

000067dc <__swbuf_r>:
    67dc:	fe010113          	addi	x2,x2,-32
    67e0:	00812c23          	sw	x8,24(x2)
    67e4:	00912a23          	sw	x9,20(x2)
    67e8:	01212823          	sw	x18,16(x2)
    67ec:	00112e23          	sw	x1,28(x2)
    67f0:	00050913          	addi	x18,x10,0
    67f4:	00058493          	addi	x9,x11,0
    67f8:	00060413          	addi	x8,x12,0
    67fc:	00050663          	beq	x10,x0,6808 <__swbuf_r+0x2c>
    6800:	03452783          	lw	x15,52(x10)
    6804:	16078063          	beq	x15,x0,6964 <__swbuf_r+0x188>
    6808:	01842783          	lw	x15,24(x8)
    680c:	00c41703          	lh	x14,12(x8)
    6810:	00f42423          	sw	x15,8(x8)
    6814:	00877793          	andi	x15,x14,8
    6818:	08078063          	beq	x15,x0,6898 <__swbuf_r+0xbc>
    681c:	01042783          	lw	x15,16(x8)
    6820:	06078c63          	beq	x15,x0,6898 <__swbuf_r+0xbc>
    6824:	01312623          	sw	x19,12(x2)
    6828:	01271693          	slli	x13,x14,0x12
    682c:	0ff4f993          	andi	x19,x9,255
    6830:	0ff4f493          	andi	x9,x9,255
    6834:	0806d863          	bge	x13,x0,68c4 <__swbuf_r+0xe8>
    6838:	00042703          	lw	x14,0(x8)
    683c:	01442683          	lw	x13,20(x8)
    6840:	40f707b3          	sub	x15,x14,x15
    6844:	0ad7d863          	bge	x15,x13,68f4 <__swbuf_r+0x118>
    6848:	00842683          	lw	x13,8(x8)
    684c:	00170613          	addi	x12,x14,1
    6850:	00c42023          	sw	x12,0(x8)
    6854:	fff68693          	addi	x13,x13,-1
    6858:	00d42423          	sw	x13,8(x8)
    685c:	01370023          	sb	x19,0(x14)
    6860:	01442703          	lw	x14,20(x8)
    6864:	00178793          	addi	x15,x15,1
    6868:	0cf70263          	beq	x14,x15,692c <__swbuf_r+0x150>
    686c:	00c45783          	lhu	x15,12(x8)
    6870:	0017f793          	andi	x15,x15,1
    6874:	0c079a63          	bne	x15,x0,6948 <__swbuf_r+0x16c>
    6878:	00c12983          	lw	x19,12(x2)
    687c:	01c12083          	lw	x1,28(x2)
    6880:	01812403          	lw	x8,24(x2)
    6884:	01012903          	lw	x18,16(x2)
    6888:	00048513          	addi	x10,x9,0
    688c:	01412483          	lw	x9,20(x2)
    6890:	02010113          	addi	x2,x2,32
    6894:	00008067          	jalr	x0,0(x1)
    6898:	00040593          	addi	x11,x8,0
    689c:	00090513          	addi	x10,x18,0
    68a0:	0e0000ef          	jal	x1,6980 <__swsetup_r>
    68a4:	08051e63          	bne	x10,x0,6940 <__swbuf_r+0x164>
    68a8:	00c41703          	lh	x14,12(x8)
    68ac:	01312623          	sw	x19,12(x2)
    68b0:	01042783          	lw	x15,16(x8)
    68b4:	01271693          	slli	x13,x14,0x12
    68b8:	0ff4f993          	andi	x19,x9,255
    68bc:	0ff4f493          	andi	x9,x9,255
    68c0:	f606cce3          	blt	x13,x0,6838 <__swbuf_r+0x5c>
    68c4:	06442683          	lw	x13,100(x8)
    68c8:	ffffe637          	lui	x12,0xffffe
    68cc:	000025b7          	lui	x11,0x2
    68d0:	00b76733          	or	x14,x14,x11
    68d4:	fff60613          	addi	x12,x12,-1 # ffffdfff <__heap_end+0xffbfdfff>
    68d8:	00c6f6b3          	and	x13,x13,x12
    68dc:	00e41623          	sh	x14,12(x8)
    68e0:	00042703          	lw	x14,0(x8)
    68e4:	06d42223          	sw	x13,100(x8)
    68e8:	01442683          	lw	x13,20(x8)
    68ec:	40f707b3          	sub	x15,x14,x15
    68f0:	f4d7cce3          	blt	x15,x13,6848 <__swbuf_r+0x6c>
    68f4:	00040593          	addi	x11,x8,0
    68f8:	00090513          	addi	x10,x18,0
    68fc:	fb4ff0ef          	jal	x1,60b0 <_fflush_r>
    6900:	02051e63          	bne	x10,x0,693c <__swbuf_r+0x160>
    6904:	00042703          	lw	x14,0(x8)
    6908:	00842683          	lw	x13,8(x8)
    690c:	00100793          	addi	x15,x0,1
    6910:	00170613          	addi	x12,x14,1
    6914:	fff68693          	addi	x13,x13,-1
    6918:	00c42023          	sw	x12,0(x8)
    691c:	00d42423          	sw	x13,8(x8)
    6920:	01370023          	sb	x19,0(x14)
    6924:	01442703          	lw	x14,20(x8)
    6928:	f4f712e3          	bne	x14,x15,686c <__swbuf_r+0x90>
    692c:	00040593          	addi	x11,x8,0
    6930:	00090513          	addi	x10,x18,0
    6934:	f7cff0ef          	jal	x1,60b0 <_fflush_r>
    6938:	f40500e3          	beq	x10,x0,6878 <__swbuf_r+0x9c>
    693c:	00c12983          	lw	x19,12(x2)
    6940:	fff00493          	addi	x9,x0,-1
    6944:	f39ff06f          	jal	x0,687c <__swbuf_r+0xa0>
    6948:	00a00793          	addi	x15,x0,10
    694c:	f2f496e3          	bne	x9,x15,6878 <__swbuf_r+0x9c>
    6950:	00040593          	addi	x11,x8,0
    6954:	00090513          	addi	x10,x18,0
    6958:	f58ff0ef          	jal	x1,60b0 <_fflush_r>
    695c:	f0050ee3          	beq	x10,x0,6878 <__swbuf_r+0x9c>
    6960:	fddff06f          	jal	x0,693c <__swbuf_r+0x160>
    6964:	f09f90ef          	jal	x1,86c <__sinit>
    6968:	ea1ff06f          	jal	x0,6808 <__swbuf_r+0x2c>

0000696c <__swbuf>:
    696c:	00050793          	addi	x15,x10,0
    6970:	f0c1a503          	lw	x10,-244(x3) # 1304c <_impure_ptr>
    6974:	00058613          	addi	x12,x11,0 # 2000 <_vfprintf_r+0x11c>
    6978:	00078593          	addi	x11,x15,0
    697c:	e61ff06f          	jal	x0,67dc <__swbuf_r>

00006980 <__swsetup_r>:
    6980:	f0c1a783          	lw	x15,-244(x3) # 1304c <_impure_ptr>
    6984:	ff010113          	addi	x2,x2,-16
    6988:	00812423          	sw	x8,8(x2)
    698c:	00912223          	sw	x9,4(x2)
    6990:	00112623          	sw	x1,12(x2)
    6994:	00050493          	addi	x9,x10,0
    6998:	00058413          	addi	x8,x11,0
    699c:	00078663          	beq	x15,x0,69a8 <__swsetup_r+0x28>
    69a0:	0347a703          	lw	x14,52(x15)
    69a4:	0e070c63          	beq	x14,x0,6a9c <__swsetup_r+0x11c>
    69a8:	00c41783          	lh	x15,12(x8)
    69ac:	0087f713          	andi	x14,x15,8
    69b0:	06070a63          	beq	x14,x0,6a24 <__swsetup_r+0xa4>
    69b4:	01042703          	lw	x14,16(x8)
    69b8:	08070663          	beq	x14,x0,6a44 <__swsetup_r+0xc4>
    69bc:	0017f693          	andi	x13,x15,1
    69c0:	02068863          	beq	x13,x0,69f0 <__swsetup_r+0x70>
    69c4:	01442683          	lw	x13,20(x8)
    69c8:	00042423          	sw	x0,8(x8)
    69cc:	00000513          	addi	x10,x0,0
    69d0:	40d006b3          	sub	x13,x0,x13
    69d4:	00d42c23          	sw	x13,24(x8)
    69d8:	02070a63          	beq	x14,x0,6a0c <__swsetup_r+0x8c>
    69dc:	00c12083          	lw	x1,12(x2)
    69e0:	00812403          	lw	x8,8(x2)
    69e4:	00412483          	lw	x9,4(x2)
    69e8:	01010113          	addi	x2,x2,16
    69ec:	00008067          	jalr	x0,0(x1)
    69f0:	0027f693          	andi	x13,x15,2
    69f4:	00000613          	addi	x12,x0,0
    69f8:	00069463          	bne	x13,x0,6a00 <__swsetup_r+0x80>
    69fc:	01442603          	lw	x12,20(x8)
    6a00:	00c42423          	sw	x12,8(x8)
    6a04:	00000513          	addi	x10,x0,0
    6a08:	fc071ae3          	bne	x14,x0,69dc <__swsetup_r+0x5c>
    6a0c:	0807f713          	andi	x14,x15,128
    6a10:	fc0706e3          	beq	x14,x0,69dc <__swsetup_r+0x5c>
    6a14:	0407e793          	ori	x15,x15,64
    6a18:	00f41623          	sh	x15,12(x8)
    6a1c:	fff00513          	addi	x10,x0,-1
    6a20:	fbdff06f          	jal	x0,69dc <__swsetup_r+0x5c>
    6a24:	0107f713          	andi	x14,x15,16
    6a28:	08070063          	beq	x14,x0,6aa8 <__swsetup_r+0x128>
    6a2c:	0047f713          	andi	x14,x15,4
    6a30:	02071c63          	bne	x14,x0,6a68 <__swsetup_r+0xe8>
    6a34:	01042703          	lw	x14,16(x8)
    6a38:	0087e793          	ori	x15,x15,8
    6a3c:	00f41623          	sh	x15,12(x8)
    6a40:	f6071ee3          	bne	x14,x0,69bc <__swsetup_r+0x3c>
    6a44:	2807f693          	andi	x13,x15,640
    6a48:	20000613          	addi	x12,x0,512
    6a4c:	f6c688e3          	beq	x13,x12,69bc <__swsetup_r+0x3c>
    6a50:	00040593          	addi	x11,x8,0
    6a54:	00048513          	addi	x10,x9,0
    6a58:	0b5040ef          	jal	x1,b30c <__smakebuf_r>
    6a5c:	00c41783          	lh	x15,12(x8)
    6a60:	01042703          	lw	x14,16(x8)
    6a64:	f59ff06f          	jal	x0,69bc <__swsetup_r+0x3c>
    6a68:	03042583          	lw	x11,48(x8)
    6a6c:	00058e63          	beq	x11,x0,6a88 <__swsetup_r+0x108>
    6a70:	04040713          	addi	x14,x8,64
    6a74:	00e58863          	beq	x11,x14,6a84 <__swsetup_r+0x104>
    6a78:	00048513          	addi	x10,x9,0
    6a7c:	9a1fa0ef          	jal	x1,141c <_free_r>
    6a80:	00c41783          	lh	x15,12(x8)
    6a84:	02042823          	sw	x0,48(x8)
    6a88:	01042703          	lw	x14,16(x8)
    6a8c:	fdb7f793          	andi	x15,x15,-37
    6a90:	00042223          	sw	x0,4(x8)
    6a94:	00e42023          	sw	x14,0(x8)
    6a98:	fa1ff06f          	jal	x0,6a38 <__swsetup_r+0xb8>
    6a9c:	00078513          	addi	x10,x15,0
    6aa0:	dcdf90ef          	jal	x1,86c <__sinit>
    6aa4:	f05ff06f          	jal	x0,69a8 <__swsetup_r+0x28>
    6aa8:	00900713          	addi	x14,x0,9
    6aac:	00e4a023          	sw	x14,0(x9)
    6ab0:	0407e793          	ori	x15,x15,64
    6ab4:	00f41623          	sh	x15,12(x8)
    6ab8:	fff00513          	addi	x10,x0,-1
    6abc:	f21ff06f          	jal	x0,69dc <__swsetup_r+0x5c>

00006ac0 <__fputwc>:
    6ac0:	fe010113          	addi	x2,x2,-32
    6ac4:	00812c23          	sw	x8,24(x2)
    6ac8:	00912a23          	sw	x9,20(x2)
    6acc:	01212823          	sw	x18,16(x2)
    6ad0:	00112e23          	sw	x1,28(x2)
    6ad4:	00050913          	addi	x18,x10,0
    6ad8:	00058493          	addi	x9,x11,0
    6adc:	00060413          	addi	x8,x12,0
    6ae0:	36c000ef          	jal	x1,6e4c <__locale_mb_cur_max>
    6ae4:	00100793          	addi	x15,x0,1
    6ae8:	00f51c63          	bne	x10,x15,6b00 <__fputwc+0x40>
    6aec:	fff48793          	addi	x15,x9,-1
    6af0:	0fe00713          	addi	x14,x0,254
    6af4:	00f76663          	bltu	x14,x15,6b00 <__fputwc+0x40>
    6af8:	00910623          	sb	x9,12(x2)
    6afc:	0240006f          	jal	x0,6b20 <__fputwc+0x60>
    6b00:	05c40693          	addi	x13,x8,92
    6b04:	00048613          	addi	x12,x9,0
    6b08:	00c10593          	addi	x11,x2,12
    6b0c:	00090513          	addi	x10,x18,0
    6b10:	6fc040ef          	jal	x1,b20c <_wcrtomb_r>
    6b14:	fff00793          	addi	x15,x0,-1
    6b18:	08f50463          	beq	x10,x15,6ba0 <__fputwc+0xe0>
    6b1c:	02050c63          	beq	x10,x0,6b54 <__fputwc+0x94>
    6b20:	00842783          	lw	x15,8(x8)
    6b24:	00c14583          	lbu	x11,12(x2)
    6b28:	fff78793          	addi	x15,x15,-1
    6b2c:	00f42423          	sw	x15,8(x8)
    6b30:	0007da63          	bge	x15,x0,6b44 <__fputwc+0x84>
    6b34:	01842703          	lw	x14,24(x8)
    6b38:	02e7cc63          	blt	x15,x14,6b70 <__fputwc+0xb0>
    6b3c:	00a00793          	addi	x15,x0,10
    6b40:	02f58863          	beq	x11,x15,6b70 <__fputwc+0xb0>
    6b44:	00042783          	lw	x15,0(x8)
    6b48:	00178713          	addi	x14,x15,1
    6b4c:	00e42023          	sw	x14,0(x8)
    6b50:	00b78023          	sb	x11,0(x15)
    6b54:	01c12083          	lw	x1,28(x2)
    6b58:	01812403          	lw	x8,24(x2)
    6b5c:	01012903          	lw	x18,16(x2)
    6b60:	00048513          	addi	x10,x9,0
    6b64:	01412483          	lw	x9,20(x2)
    6b68:	02010113          	addi	x2,x2,32
    6b6c:	00008067          	jalr	x0,0(x1)
    6b70:	00040613          	addi	x12,x8,0
    6b74:	00090513          	addi	x10,x18,0
    6b78:	c65ff0ef          	jal	x1,67dc <__swbuf_r>
    6b7c:	fff00793          	addi	x15,x0,-1
    6b80:	fcf51ae3          	bne	x10,x15,6b54 <__fputwc+0x94>
    6b84:	fff00513          	addi	x10,x0,-1
    6b88:	01c12083          	lw	x1,28(x2)
    6b8c:	01812403          	lw	x8,24(x2)
    6b90:	01412483          	lw	x9,20(x2)
    6b94:	01012903          	lw	x18,16(x2)
    6b98:	02010113          	addi	x2,x2,32
    6b9c:	00008067          	jalr	x0,0(x1)
    6ba0:	00c45783          	lhu	x15,12(x8)
    6ba4:	fff00513          	addi	x10,x0,-1
    6ba8:	0407e793          	ori	x15,x15,64
    6bac:	00f41623          	sh	x15,12(x8)
    6bb0:	fd9ff06f          	jal	x0,6b88 <__fputwc+0xc8>

00006bb4 <_fputwc_r>:
    6bb4:	00c61783          	lh	x15,12(x12)
    6bb8:	01279713          	slli	x14,x15,0x12
    6bbc:	02074063          	blt	x14,x0,6bdc <_fputwc_r+0x28>
    6bc0:	06462703          	lw	x14,100(x12)
    6bc4:	000026b7          	lui	x13,0x2
    6bc8:	00d7e7b3          	or	x15,x15,x13
    6bcc:	000026b7          	lui	x13,0x2
    6bd0:	00d76733          	or	x14,x14,x13
    6bd4:	00f61623          	sh	x15,12(x12)
    6bd8:	06e62223          	sw	x14,100(x12)
    6bdc:	ee5ff06f          	jal	x0,6ac0 <__fputwc>

00006be0 <fputwc>:
    6be0:	fe010113          	addi	x2,x2,-32
    6be4:	00812c23          	sw	x8,24(x2)
    6be8:	f0c1a403          	lw	x8,-244(x3) # 1304c <_impure_ptr>
    6bec:	00112e23          	sw	x1,28(x2)
    6bf0:	00058613          	addi	x12,x11,0
    6bf4:	00050593          	addi	x11,x10,0
    6bf8:	00040663          	beq	x8,x0,6c04 <fputwc+0x24>
    6bfc:	03442783          	lw	x15,52(x8)
    6c00:	04078063          	beq	x15,x0,6c40 <fputwc+0x60>
    6c04:	00c61783          	lh	x15,12(x12)
    6c08:	01279713          	slli	x14,x15,0x12
    6c0c:	02074063          	blt	x14,x0,6c2c <fputwc+0x4c>
    6c10:	06462703          	lw	x14,100(x12)
    6c14:	000026b7          	lui	x13,0x2
    6c18:	00d7e7b3          	or	x15,x15,x13
    6c1c:	000026b7          	lui	x13,0x2
    6c20:	00d76733          	or	x14,x14,x13
    6c24:	00f61623          	sh	x15,12(x12)
    6c28:	06e62223          	sw	x14,100(x12)
    6c2c:	00040513          	addi	x10,x8,0
    6c30:	01812403          	lw	x8,24(x2)
    6c34:	01c12083          	lw	x1,28(x2)
    6c38:	02010113          	addi	x2,x2,32
    6c3c:	e85ff06f          	jal	x0,6ac0 <__fputwc>
    6c40:	00a12423          	sw	x10,8(x2)
    6c44:	00040513          	addi	x10,x8,0
    6c48:	00c12623          	sw	x12,12(x2)
    6c4c:	c21f90ef          	jal	x1,86c <__sinit>
    6c50:	00c12603          	lw	x12,12(x2)
    6c54:	00812583          	lw	x11,8(x2)
    6c58:	fadff06f          	jal	x0,6c04 <fputwc+0x24>

00006c5c <memchr>:
    6c5c:	00357793          	andi	x15,x10,3
    6c60:	0ff5f693          	andi	x13,x11,255
    6c64:	02078a63          	beq	x15,x0,6c98 <memchr+0x3c>
    6c68:	fff60793          	addi	x15,x12,-1
    6c6c:	02060e63          	beq	x12,x0,6ca8 <memchr+0x4c>
    6c70:	fff00613          	addi	x12,x0,-1
    6c74:	0180006f          	jal	x0,6c8c <memchr+0x30>
    6c78:	00150513          	addi	x10,x10,1
    6c7c:	00357713          	andi	x14,x10,3
    6c80:	00070e63          	beq	x14,x0,6c9c <memchr+0x40>
    6c84:	fff78793          	addi	x15,x15,-1
    6c88:	02c78063          	beq	x15,x12,6ca8 <memchr+0x4c>
    6c8c:	00054703          	lbu	x14,0(x10)
    6c90:	fed714e3          	bne	x14,x13,6c78 <memchr+0x1c>
    6c94:	00008067          	jalr	x0,0(x1)
    6c98:	00060793          	addi	x15,x12,0
    6c9c:	00300713          	addi	x14,x0,3
    6ca0:	00f76863          	bltu	x14,x15,6cb0 <memchr+0x54>
    6ca4:	06079063          	bne	x15,x0,6d04 <memchr+0xa8>
    6ca8:	00000513          	addi	x10,x0,0
    6cac:	00008067          	jalr	x0,0(x1)
    6cb0:	0ff5f593          	andi	x11,x11,255
    6cb4:	00859713          	slli	x14,x11,0x8
    6cb8:	00b705b3          	add	x11,x14,x11
    6cbc:	01059713          	slli	x14,x11,0x10
    6cc0:	feff08b7          	lui	x17,0xfeff0
    6cc4:	80808837          	lui	x16,0x80808
    6cc8:	00e585b3          	add	x11,x11,x14
    6ccc:	eff88893          	addi	x17,x17,-257 # fefefeff <__heap_end+0xfebefeff>
    6cd0:	08080813          	addi	x16,x16,128 # 80808080 <__heap_end+0x80408080>
    6cd4:	00300313          	addi	x6,x0,3
    6cd8:	0100006f          	jal	x0,6ce8 <memchr+0x8c>
    6cdc:	ffc78793          	addi	x15,x15,-4
    6ce0:	00450513          	addi	x10,x10,4
    6ce4:	fcf370e3          	bgeu	x6,x15,6ca4 <memchr+0x48>
    6ce8:	00052703          	lw	x14,0(x10)
    6cec:	00e5c733          	xor	x14,x11,x14
    6cf0:	01170633          	add	x12,x14,x17
    6cf4:	fff74713          	xori	x14,x14,-1
    6cf8:	00e67733          	and	x14,x12,x14
    6cfc:	01077733          	and	x14,x14,x16
    6d00:	fc070ee3          	beq	x14,x0,6cdc <memchr+0x80>
    6d04:	00f507b3          	add	x15,x10,x15
    6d08:	00c0006f          	jal	x0,6d14 <memchr+0xb8>
    6d0c:	00150513          	addi	x10,x10,1
    6d10:	f8f50ce3          	beq	x10,x15,6ca8 <memchr+0x4c>
    6d14:	00054703          	lbu	x14,0(x10)
    6d18:	fed71ae3          	bne	x14,x13,6d0c <memchr+0xb0>
    6d1c:	00008067          	jalr	x0,0(x1)

00006d20 <strncpy>:
    6d20:	00a5e7b3          	or	x15,x11,x10
    6d24:	0037f793          	andi	x15,x15,3
    6d28:	00079663          	bne	x15,x0,6d34 <strncpy+0x14>
    6d2c:	00300793          	addi	x15,x0,3
    6d30:	04c7e663          	bltu	x15,x12,6d7c <strncpy+0x5c>
    6d34:	00050713          	addi	x14,x10,0
    6d38:	01c0006f          	jal	x0,6d54 <strncpy+0x34>
    6d3c:	fff5c683          	lbu	x13,-1(x11)
    6d40:	fff60813          	addi	x16,x12,-1
    6d44:	fed78fa3          	sb	x13,-1(x15)
    6d48:	00068e63          	beq	x13,x0,6d64 <strncpy+0x44>
    6d4c:	00078713          	addi	x14,x15,0
    6d50:	00080613          	addi	x12,x16,0
    6d54:	00158593          	addi	x11,x11,1
    6d58:	00170793          	addi	x15,x14,1
    6d5c:	fe0610e3          	bne	x12,x0,6d3c <strncpy+0x1c>
    6d60:	00008067          	jalr	x0,0(x1)
    6d64:	00c70733          	add	x14,x14,x12
    6d68:	06080063          	beq	x16,x0,6dc8 <strncpy+0xa8>
    6d6c:	00178793          	addi	x15,x15,1
    6d70:	fe078fa3          	sb	x0,-1(x15)
    6d74:	fee79ce3          	bne	x15,x14,6d6c <strncpy+0x4c>
    6d78:	00008067          	jalr	x0,0(x1)
    6d7c:	feff0337          	lui	x6,0xfeff0
    6d80:	808088b7          	lui	x17,0x80808
    6d84:	00050713          	addi	x14,x10,0
    6d88:	eff30313          	addi	x6,x6,-257 # fefefeff <__heap_end+0xfebefeff>
    6d8c:	08088893          	addi	x17,x17,128 # 80808080 <__heap_end+0x80408080>
    6d90:	00300e13          	addi	x28,x0,3
    6d94:	0180006f          	jal	x0,6dac <strncpy+0x8c>
    6d98:	00d72023          	sw	x13,0(x14)
    6d9c:	ffc60613          	addi	x12,x12,-4
    6da0:	00470713          	addi	x14,x14,4
    6da4:	00458593          	addi	x11,x11,4
    6da8:	face76e3          	bgeu	x28,x12,6d54 <strncpy+0x34>
    6dac:	0005a683          	lw	x13,0(x11)
    6db0:	006687b3          	add	x15,x13,x6
    6db4:	fff6c813          	xori	x16,x13,-1
    6db8:	0107f7b3          	and	x15,x15,x16
    6dbc:	0117f7b3          	and	x15,x15,x17
    6dc0:	fc078ce3          	beq	x15,x0,6d98 <strncpy+0x78>
    6dc4:	f91ff06f          	jal	x0,6d54 <strncpy+0x34>
    6dc8:	00008067          	jalr	x0,0(x1)

00006dcc <_setlocale_r>:
    6dcc:	ff010113          	addi	x2,x2,-16
    6dd0:	00112623          	sw	x1,12(x2)
    6dd4:	00912223          	sw	x9,4(x2)
    6dd8:	02060e63          	beq	x12,x0,6e14 <_setlocale_r+0x48>
    6ddc:	000125b7          	lui	x11,0x12
    6de0:	f1c58593          	addi	x11,x11,-228 # 11f1c <__clzsi2+0x32c>
    6de4:	00060513          	addi	x10,x12,0
    6de8:	00812423          	sw	x8,8(x2)
    6dec:	00060413          	addi	x8,x12,0
    6df0:	408000ef          	jal	x1,71f8 <strcmp>
    6df4:	000124b7          	lui	x9,0x12
    6df8:	02051263          	bne	x10,x0,6e1c <_setlocale_r+0x50>
    6dfc:	00812403          	lw	x8,8(x2)
    6e00:	f1848513          	addi	x10,x9,-232 # 11f18 <__clzsi2+0x328>
    6e04:	00c12083          	lw	x1,12(x2)
    6e08:	00412483          	lw	x9,4(x2)
    6e0c:	01010113          	addi	x2,x2,16
    6e10:	00008067          	jalr	x0,0(x1)
    6e14:	000124b7          	lui	x9,0x12
    6e18:	fe9ff06f          	jal	x0,6e00 <_setlocale_r+0x34>
    6e1c:	f1848593          	addi	x11,x9,-232 # 11f18 <__clzsi2+0x328>
    6e20:	00040513          	addi	x10,x8,0
    6e24:	3d4000ef          	jal	x1,71f8 <strcmp>
    6e28:	fc050ae3          	beq	x10,x0,6dfc <_setlocale_r+0x30>
    6e2c:	000125b7          	lui	x11,0x12
    6e30:	d2c58593          	addi	x11,x11,-724 # 11d2c <__clzsi2+0x13c>
    6e34:	00040513          	addi	x10,x8,0
    6e38:	3c0000ef          	jal	x1,71f8 <strcmp>
    6e3c:	fc0500e3          	beq	x10,x0,6dfc <_setlocale_r+0x30>
    6e40:	00812403          	lw	x8,8(x2)
    6e44:	00000513          	addi	x10,x0,0
    6e48:	fbdff06f          	jal	x0,6e04 <_setlocale_r+0x38>

00006e4c <__locale_mb_cur_max>:
    6e4c:	e601c503          	lbu	x10,-416(x3) # 12fa0 <__global_locale+0x128>
    6e50:	00008067          	jalr	x0,0(x1)

00006e54 <setlocale>:
    6e54:	ff010113          	addi	x2,x2,-16
    6e58:	00112623          	sw	x1,12(x2)
    6e5c:	00912223          	sw	x9,4(x2)
    6e60:	02058e63          	beq	x11,x0,6e9c <setlocale+0x48>
    6e64:	00812423          	sw	x8,8(x2)
    6e68:	00058413          	addi	x8,x11,0
    6e6c:	000125b7          	lui	x11,0x12
    6e70:	f1c58593          	addi	x11,x11,-228 # 11f1c <__clzsi2+0x32c>
    6e74:	00040513          	addi	x10,x8,0
    6e78:	380000ef          	jal	x1,71f8 <strcmp>
    6e7c:	000124b7          	lui	x9,0x12
    6e80:	02051263          	bne	x10,x0,6ea4 <setlocale+0x50>
    6e84:	00812403          	lw	x8,8(x2)
    6e88:	f1848513          	addi	x10,x9,-232 # 11f18 <__clzsi2+0x328>
    6e8c:	00c12083          	lw	x1,12(x2)
    6e90:	00412483          	lw	x9,4(x2)
    6e94:	01010113          	addi	x2,x2,16
    6e98:	00008067          	jalr	x0,0(x1)
    6e9c:	000124b7          	lui	x9,0x12
    6ea0:	fe9ff06f          	jal	x0,6e88 <setlocale+0x34>
    6ea4:	f1848593          	addi	x11,x9,-232 # 11f18 <__clzsi2+0x328>
    6ea8:	00040513          	addi	x10,x8,0
    6eac:	34c000ef          	jal	x1,71f8 <strcmp>
    6eb0:	fc050ae3          	beq	x10,x0,6e84 <setlocale+0x30>
    6eb4:	000125b7          	lui	x11,0x12
    6eb8:	d2c58593          	addi	x11,x11,-724 # 11d2c <__clzsi2+0x13c>
    6ebc:	00040513          	addi	x10,x8,0
    6ec0:	338000ef          	jal	x1,71f8 <strcmp>
    6ec4:	fc0500e3          	beq	x10,x0,6e84 <setlocale+0x30>
    6ec8:	00812403          	lw	x8,8(x2)
    6ecc:	00000513          	addi	x10,x0,0
    6ed0:	fbdff06f          	jal	x0,6e8c <setlocale+0x38>

00006ed4 <__localeconv_l>:
    6ed4:	0f050513          	addi	x10,x10,240
    6ed8:	00008067          	jalr	x0,0(x1)

00006edc <_localeconv_r>:
    6edc:	e2818513          	addi	x10,x3,-472 # 12f68 <__global_locale+0xf0>
    6ee0:	00008067          	jalr	x0,0(x1)

00006ee4 <localeconv>:
    6ee4:	e2818513          	addi	x10,x3,-472 # 12f68 <__global_locale+0xf0>
    6ee8:	00008067          	jalr	x0,0(x1)

00006eec <_sbrk_r>:
    6eec:	ff010113          	addi	x2,x2,-16
    6ef0:	00812423          	sw	x8,8(x2)
    6ef4:	00912223          	sw	x9,4(x2)
    6ef8:	00050413          	addi	x8,x10,0
    6efc:	00058513          	addi	x10,x11,0
    6f00:	00112623          	sw	x1,12(x2)
    6f04:	f001ae23          	sw	x0,-228(x3) # 1305c <errno>
    6f08:	d48f90ef          	jal	x1,450 <_sbrk>
    6f0c:	fff00793          	addi	x15,x0,-1
    6f10:	00f50c63          	beq	x10,x15,6f28 <_sbrk_r+0x3c>
    6f14:	00c12083          	lw	x1,12(x2)
    6f18:	00812403          	lw	x8,8(x2)
    6f1c:	00412483          	lw	x9,4(x2)
    6f20:	01010113          	addi	x2,x2,16
    6f24:	00008067          	jalr	x0,0(x1)
    6f28:	f1c1a783          	lw	x15,-228(x3) # 1305c <errno>
    6f2c:	fe0784e3          	beq	x15,x0,6f14 <_sbrk_r+0x28>
    6f30:	00c12083          	lw	x1,12(x2)
    6f34:	00f42023          	sw	x15,0(x8)
    6f38:	00812403          	lw	x8,8(x2)
    6f3c:	00412483          	lw	x9,4(x2)
    6f40:	01010113          	addi	x2,x2,16
    6f44:	00008067          	jalr	x0,0(x1)

00006f48 <memmove>:
    6f48:	02a5f663          	bgeu	x11,x10,6f74 <memmove+0x2c>
    6f4c:	00c58733          	add	x14,x11,x12
    6f50:	02e57263          	bgeu	x10,x14,6f74 <memmove+0x2c>
    6f54:	00c507b3          	add	x15,x10,x12
    6f58:	04060663          	beq	x12,x0,6fa4 <memmove+0x5c>
    6f5c:	fff74683          	lbu	x13,-1(x14)
    6f60:	fff78793          	addi	x15,x15,-1
    6f64:	fff70713          	addi	x14,x14,-1
    6f68:	00d78023          	sb	x13,0(x15)
    6f6c:	fef518e3          	bne	x10,x15,6f5c <memmove+0x14>
    6f70:	00008067          	jalr	x0,0(x1)
    6f74:	00f00793          	addi	x15,x0,15
    6f78:	02c7e863          	bltu	x15,x12,6fa8 <memmove+0x60>
    6f7c:	00050793          	addi	x15,x10,0
    6f80:	fff60693          	addi	x13,x12,-1
    6f84:	0c060263          	beq	x12,x0,7048 <memmove+0x100>
    6f88:	00168693          	addi	x13,x13,1 # 2001 <_vfprintf_r+0x11d>
    6f8c:	00d786b3          	add	x13,x15,x13
    6f90:	0005c703          	lbu	x14,0(x11)
    6f94:	00178793          	addi	x15,x15,1
    6f98:	00158593          	addi	x11,x11,1
    6f9c:	fee78fa3          	sb	x14,-1(x15)
    6fa0:	fed798e3          	bne	x15,x13,6f90 <memmove+0x48>
    6fa4:	00008067          	jalr	x0,0(x1)
    6fa8:	00b567b3          	or	x15,x10,x11
    6fac:	0037f793          	andi	x15,x15,3
    6fb0:	08079663          	bne	x15,x0,703c <memmove+0xf4>
    6fb4:	ff060893          	addi	x17,x12,-16
    6fb8:	ff08f893          	andi	x17,x17,-16
    6fbc:	01088893          	addi	x17,x17,16
    6fc0:	011506b3          	add	x13,x10,x17
    6fc4:	00058713          	addi	x14,x11,0
    6fc8:	00050793          	addi	x15,x10,0
    6fcc:	00072803          	lw	x16,0(x14)
    6fd0:	01070713          	addi	x14,x14,16
    6fd4:	01078793          	addi	x15,x15,16
    6fd8:	ff07a823          	sw	x16,-16(x15)
    6fdc:	ff472803          	lw	x16,-12(x14)
    6fe0:	ff07aa23          	sw	x16,-12(x15)
    6fe4:	ff872803          	lw	x16,-8(x14)
    6fe8:	ff07ac23          	sw	x16,-8(x15)
    6fec:	ffc72803          	lw	x16,-4(x14)
    6ff0:	ff07ae23          	sw	x16,-4(x15)
    6ff4:	fcd79ce3          	bne	x15,x13,6fcc <memmove+0x84>
    6ff8:	00c67813          	andi	x16,x12,12
    6ffc:	011585b3          	add	x11,x11,x17
    7000:	00f67713          	andi	x14,x12,15
    7004:	04080463          	beq	x16,x0,704c <memmove+0x104>
    7008:	ffc70813          	addi	x16,x14,-4
    700c:	ffc87813          	andi	x16,x16,-4
    7010:	00480813          	addi	x16,x16,4
    7014:	010687b3          	add	x15,x13,x16
    7018:	00058713          	addi	x14,x11,0
    701c:	00072883          	lw	x17,0(x14)
    7020:	00468693          	addi	x13,x13,4
    7024:	00470713          	addi	x14,x14,4
    7028:	ff16ae23          	sw	x17,-4(x13)
    702c:	fef698e3          	bne	x13,x15,701c <memmove+0xd4>
    7030:	00367613          	andi	x12,x12,3
    7034:	010585b3          	add	x11,x11,x16
    7038:	f49ff06f          	jal	x0,6f80 <memmove+0x38>
    703c:	fff60693          	addi	x13,x12,-1
    7040:	00050793          	addi	x15,x10,0
    7044:	f45ff06f          	jal	x0,6f88 <memmove+0x40>
    7048:	00008067          	jalr	x0,0(x1)
    704c:	00070613          	addi	x12,x14,0
    7050:	f31ff06f          	jal	x0,6f80 <memmove+0x38>

00007054 <memcpy>:
    7054:	00a5c7b3          	xor	x15,x11,x10
    7058:	0037f793          	andi	x15,x15,3
    705c:	00c508b3          	add	x17,x10,x12
    7060:	06079463          	bne	x15,x0,70c8 <memcpy+0x74>
    7064:	00300793          	addi	x15,x0,3
    7068:	06c7f063          	bgeu	x15,x12,70c8 <memcpy+0x74>
    706c:	00357793          	andi	x15,x10,3
    7070:	00050713          	addi	x14,x10,0
    7074:	06079a63          	bne	x15,x0,70e8 <memcpy+0x94>
    7078:	ffc8f613          	andi	x12,x17,-4
    707c:	40e606b3          	sub	x13,x12,x14
    7080:	02000793          	addi	x15,x0,32
    7084:	08d7ce63          	blt	x15,x13,7120 <memcpy+0xcc>
    7088:	00058693          	addi	x13,x11,0
    708c:	00070793          	addi	x15,x14,0
    7090:	02c77863          	bgeu	x14,x12,70c0 <memcpy+0x6c>
    7094:	0006a803          	lw	x16,0(x13)
    7098:	00478793          	addi	x15,x15,4
    709c:	00468693          	addi	x13,x13,4
    70a0:	ff07ae23          	sw	x16,-4(x15)
    70a4:	fec7e8e3          	bltu	x15,x12,7094 <memcpy+0x40>
    70a8:	fff60793          	addi	x15,x12,-1
    70ac:	40e787b3          	sub	x15,x15,x14
    70b0:	ffc7f793          	andi	x15,x15,-4
    70b4:	00478793          	addi	x15,x15,4
    70b8:	00f70733          	add	x14,x14,x15
    70bc:	00f585b3          	add	x11,x11,x15
    70c0:	01176863          	bltu	x14,x17,70d0 <memcpy+0x7c>
    70c4:	00008067          	jalr	x0,0(x1)
    70c8:	00050713          	addi	x14,x10,0
    70cc:	05157863          	bgeu	x10,x17,711c <memcpy+0xc8>
    70d0:	0005c783          	lbu	x15,0(x11)
    70d4:	00170713          	addi	x14,x14,1
    70d8:	00158593          	addi	x11,x11,1
    70dc:	fef70fa3          	sb	x15,-1(x14)
    70e0:	fee898e3          	bne	x17,x14,70d0 <memcpy+0x7c>
    70e4:	00008067          	jalr	x0,0(x1)
    70e8:	0005c683          	lbu	x13,0(x11)
    70ec:	00170713          	addi	x14,x14,1
    70f0:	00377793          	andi	x15,x14,3
    70f4:	fed70fa3          	sb	x13,-1(x14)
    70f8:	00158593          	addi	x11,x11,1
    70fc:	f6078ee3          	beq	x15,x0,7078 <memcpy+0x24>
    7100:	0005c683          	lbu	x13,0(x11)
    7104:	00170713          	addi	x14,x14,1
    7108:	00377793          	andi	x15,x14,3
    710c:	fed70fa3          	sb	x13,-1(x14)
    7110:	00158593          	addi	x11,x11,1
    7114:	fc079ae3          	bne	x15,x0,70e8 <memcpy+0x94>
    7118:	f61ff06f          	jal	x0,7078 <memcpy+0x24>
    711c:	00008067          	jalr	x0,0(x1)
    7120:	ff010113          	addi	x2,x2,-16
    7124:	00812623          	sw	x8,12(x2)
    7128:	02000413          	addi	x8,x0,32
    712c:	0005a383          	lw	x7,0(x11)
    7130:	0045a283          	lw	x5,4(x11)
    7134:	0085af83          	lw	x31,8(x11)
    7138:	00c5af03          	lw	x30,12(x11)
    713c:	0105ae83          	lw	x29,16(x11)
    7140:	0145ae03          	lw	x28,20(x11)
    7144:	0185a303          	lw	x6,24(x11)
    7148:	01c5a803          	lw	x16,28(x11)
    714c:	0205a683          	lw	x13,32(x11)
    7150:	02470713          	addi	x14,x14,36
    7154:	40e607b3          	sub	x15,x12,x14
    7158:	fc772e23          	sw	x7,-36(x14)
    715c:	fe572023          	sw	x5,-32(x14)
    7160:	fff72223          	sw	x31,-28(x14)
    7164:	ffe72423          	sw	x30,-24(x14)
    7168:	ffd72623          	sw	x29,-20(x14)
    716c:	ffc72823          	sw	x28,-16(x14)
    7170:	fe672a23          	sw	x6,-12(x14)
    7174:	ff072c23          	sw	x16,-8(x14)
    7178:	fed72e23          	sw	x13,-4(x14)
    717c:	02458593          	addi	x11,x11,36
    7180:	faf446e3          	blt	x8,x15,712c <memcpy+0xd8>
    7184:	00058693          	addi	x13,x11,0
    7188:	00070793          	addi	x15,x14,0
    718c:	02c77863          	bgeu	x14,x12,71bc <memcpy+0x168>
    7190:	0006a803          	lw	x16,0(x13)
    7194:	00478793          	addi	x15,x15,4
    7198:	00468693          	addi	x13,x13,4
    719c:	ff07ae23          	sw	x16,-4(x15)
    71a0:	fec7e8e3          	bltu	x15,x12,7190 <memcpy+0x13c>
    71a4:	fff60793          	addi	x15,x12,-1
    71a8:	40e787b3          	sub	x15,x15,x14
    71ac:	ffc7f793          	andi	x15,x15,-4
    71b0:	00478793          	addi	x15,x15,4
    71b4:	00f70733          	add	x14,x14,x15
    71b8:	00f585b3          	add	x11,x11,x15
    71bc:	01176863          	bltu	x14,x17,71cc <memcpy+0x178>
    71c0:	00c12403          	lw	x8,12(x2)
    71c4:	01010113          	addi	x2,x2,16
    71c8:	00008067          	jalr	x0,0(x1)
    71cc:	0005c783          	lbu	x15,0(x11)
    71d0:	00170713          	addi	x14,x14,1
    71d4:	00158593          	addi	x11,x11,1
    71d8:	fef70fa3          	sb	x15,-1(x14)
    71dc:	fee882e3          	beq	x17,x14,71c0 <memcpy+0x16c>
    71e0:	0005c783          	lbu	x15,0(x11)
    71e4:	00170713          	addi	x14,x14,1
    71e8:	00158593          	addi	x11,x11,1
    71ec:	fef70fa3          	sb	x15,-1(x14)
    71f0:	fce89ee3          	bne	x17,x14,71cc <memcpy+0x178>
    71f4:	fcdff06f          	jal	x0,71c0 <memcpy+0x16c>

000071f8 <strcmp>:
    71f8:	00b56733          	or	x14,x10,x11
    71fc:	fff00393          	addi	x7,x0,-1
    7200:	00377713          	andi	x14,x14,3
    7204:	10071063          	bne	x14,x0,7304 <strcmp+0x10c>
    7208:	7f7f87b7          	lui	x15,0x7f7f8
    720c:	f7f78793          	addi	x15,x15,-129 # 7f7f7f7f <__heap_end+0x7f3f7f7f>
    7210:	00052603          	lw	x12,0(x10)
    7214:	0005a683          	lw	x13,0(x11)
    7218:	00f672b3          	and	x5,x12,x15
    721c:	00f66333          	or	x6,x12,x15
    7220:	00f282b3          	add	x5,x5,x15
    7224:	0062e2b3          	or	x5,x5,x6
    7228:	10729263          	bne	x5,x7,732c <strcmp+0x134>
    722c:	08d61663          	bne	x12,x13,72b8 <strcmp+0xc0>
    7230:	00452603          	lw	x12,4(x10)
    7234:	0045a683          	lw	x13,4(x11)
    7238:	00f672b3          	and	x5,x12,x15
    723c:	00f66333          	or	x6,x12,x15
    7240:	00f282b3          	add	x5,x5,x15
    7244:	0062e2b3          	or	x5,x5,x6
    7248:	0c729e63          	bne	x5,x7,7324 <strcmp+0x12c>
    724c:	06d61663          	bne	x12,x13,72b8 <strcmp+0xc0>
    7250:	00852603          	lw	x12,8(x10)
    7254:	0085a683          	lw	x13,8(x11)
    7258:	00f672b3          	and	x5,x12,x15
    725c:	00f66333          	or	x6,x12,x15
    7260:	00f282b3          	add	x5,x5,x15
    7264:	0062e2b3          	or	x5,x5,x6
    7268:	0c729863          	bne	x5,x7,7338 <strcmp+0x140>
    726c:	04d61663          	bne	x12,x13,72b8 <strcmp+0xc0>
    7270:	00c52603          	lw	x12,12(x10)
    7274:	00c5a683          	lw	x13,12(x11)
    7278:	00f672b3          	and	x5,x12,x15
    727c:	00f66333          	or	x6,x12,x15
    7280:	00f282b3          	add	x5,x5,x15
    7284:	0062e2b3          	or	x5,x5,x6
    7288:	0c729263          	bne	x5,x7,734c <strcmp+0x154>
    728c:	02d61663          	bne	x12,x13,72b8 <strcmp+0xc0>
    7290:	01052603          	lw	x12,16(x10)
    7294:	0105a683          	lw	x13,16(x11)
    7298:	00f672b3          	and	x5,x12,x15
    729c:	00f66333          	or	x6,x12,x15
    72a0:	00f282b3          	add	x5,x5,x15
    72a4:	0062e2b3          	or	x5,x5,x6
    72a8:	0a729c63          	bne	x5,x7,7360 <strcmp+0x168>
    72ac:	01450513          	addi	x10,x10,20
    72b0:	01458593          	addi	x11,x11,20
    72b4:	f4d60ee3          	beq	x12,x13,7210 <strcmp+0x18>
    72b8:	01061713          	slli	x14,x12,0x10
    72bc:	01069793          	slli	x15,x13,0x10
    72c0:	00f71e63          	bne	x14,x15,72dc <strcmp+0xe4>
    72c4:	01065713          	srli	x14,x12,0x10
    72c8:	0106d793          	srli	x15,x13,0x10
    72cc:	40f70533          	sub	x10,x14,x15
    72d0:	0ff57593          	andi	x11,x10,255
    72d4:	02059063          	bne	x11,x0,72f4 <strcmp+0xfc>
    72d8:	00008067          	jalr	x0,0(x1)
    72dc:	01075713          	srli	x14,x14,0x10
    72e0:	0107d793          	srli	x15,x15,0x10
    72e4:	40f70533          	sub	x10,x14,x15
    72e8:	0ff57593          	andi	x11,x10,255
    72ec:	00059463          	bne	x11,x0,72f4 <strcmp+0xfc>
    72f0:	00008067          	jalr	x0,0(x1)
    72f4:	0ff77713          	andi	x14,x14,255
    72f8:	0ff7f793          	andi	x15,x15,255
    72fc:	40f70533          	sub	x10,x14,x15
    7300:	00008067          	jalr	x0,0(x1)
    7304:	00054603          	lbu	x12,0(x10)
    7308:	0005c683          	lbu	x13,0(x11)
    730c:	00150513          	addi	x10,x10,1
    7310:	00158593          	addi	x11,x11,1
    7314:	00d61463          	bne	x12,x13,731c <strcmp+0x124>
    7318:	fe0616e3          	bne	x12,x0,7304 <strcmp+0x10c>
    731c:	40d60533          	sub	x10,x12,x13
    7320:	00008067          	jalr	x0,0(x1)
    7324:	00450513          	addi	x10,x10,4
    7328:	00458593          	addi	x11,x11,4
    732c:	fcd61ce3          	bne	x12,x13,7304 <strcmp+0x10c>
    7330:	00000513          	addi	x10,x0,0
    7334:	00008067          	jalr	x0,0(x1)
    7338:	00850513          	addi	x10,x10,8
    733c:	00858593          	addi	x11,x11,8
    7340:	fcd612e3          	bne	x12,x13,7304 <strcmp+0x10c>
    7344:	00000513          	addi	x10,x0,0
    7348:	00008067          	jalr	x0,0(x1)
    734c:	00c50513          	addi	x10,x10,12
    7350:	00c58593          	addi	x11,x11,12
    7354:	fad618e3          	bne	x12,x13,7304 <strcmp+0x10c>
    7358:	00000513          	addi	x10,x0,0
    735c:	00008067          	jalr	x0,0(x1)
    7360:	01050513          	addi	x10,x10,16
    7364:	01058593          	addi	x11,x11,16
    7368:	f8d61ee3          	bne	x12,x13,7304 <strcmp+0x10c>
    736c:	00000513          	addi	x10,x0,0
    7370:	00008067          	jalr	x0,0(x1)

00007374 <frexpl>:
    7374:	f9010113          	addi	x2,x2,-112
    7378:	07212023          	sw	x18,96(x2)
    737c:	00c5a903          	lw	x18,12(x11)
    7380:	05412c23          	sw	x20,88(x2)
    7384:	05512a23          	sw	x21,84(x2)
    7388:	05612823          	sw	x22,80(x2)
    738c:	0045aa83          	lw	x21,4(x11)
    7390:	0005ab03          	lw	x22,0(x11)
    7394:	0085aa03          	lw	x20,8(x11)
    7398:	05312e23          	sw	x19,92(x2)
    739c:	000089b7          	lui	x19,0x8
    73a0:	06812423          	sw	x8,104(x2)
    73a4:	06912223          	sw	x9,100(x2)
    73a8:	06112623          	sw	x1,108(x2)
    73ac:	01095493          	srli	x9,x18,0x10
    73b0:	fff98993          	addi	x19,x19,-1 # 7fff <__gdtoa+0x74b>
    73b4:	03612823          	sw	x22,48(x2)
    73b8:	03512a23          	sw	x21,52(x2)
    73bc:	03412c23          	sw	x20,56(x2)
    73c0:	03212e23          	sw	x18,60(x2)
    73c4:	0134f4b3          	and	x9,x9,x19
    73c8:	00062023          	sw	x0,0(x12)
    73cc:	00050413          	addi	x8,x10,0
    73d0:	09348063          	beq	x9,x19,7450 <frexpl+0xdc>
    73d4:	01010593          	addi	x11,x2,16
    73d8:	02010513          	addi	x10,x2,32
    73dc:	05712623          	sw	x23,76(x2)
    73e0:	03612023          	sw	x22,32(x2)
    73e4:	00060b93          	addi	x23,x12,0
    73e8:	03512223          	sw	x21,36(x2)
    73ec:	03412423          	sw	x20,40(x2)
    73f0:	03212623          	sw	x18,44(x2)
    73f4:	00012823          	sw	x0,16(x2)
    73f8:	00012a23          	sw	x0,20(x2)
    73fc:	00012c23          	sw	x0,24(x2)
    7400:	00012e23          	sw	x0,28(x2)
    7404:	674070ef          	jal	x1,ea78 <__eqtf2>
    7408:	0e050463          	beq	x10,x0,74f0 <frexpl+0x17c>
    740c:	00000693          	addi	x13,x0,0
    7410:	06048e63          	beq	x9,x0,748c <frexpl+0x118>
    7414:	ffffc737          	lui	x14,0xffffc
    7418:	00270713          	addi	x14,x14,2 # ffffc002 <__heap_end+0xffbfc002>
    741c:	03c12903          	lw	x18,60(x2)
    7420:	00e484b3          	add	x9,x9,x14
    7424:	800107b7          	lui	x15,0x80010
    7428:	00d484b3          	add	x9,x9,x13
    742c:	fff78793          	addi	x15,x15,-1 # 8000ffff <__heap_end+0x7fc0ffff>
    7430:	009ba023          	sw	x9,0(x23)
    7434:	03012b03          	lw	x22,48(x2)
    7438:	03412a83          	lw	x21,52(x2)
    743c:	03812a03          	lw	x20,56(x2)
    7440:	04c12b83          	lw	x23,76(x2)
    7444:	00f97933          	and	x18,x18,x15
    7448:	3ffe07b7          	lui	x15,0x3ffe0
    744c:	00f96933          	or	x18,x18,x15
    7450:	01642023          	sw	x22,0(x8)
    7454:	01542223          	sw	x21,4(x8)
    7458:	01442423          	sw	x20,8(x8)
    745c:	01242623          	sw	x18,12(x8)
    7460:	06c12083          	lw	x1,108(x2)
    7464:	00040513          	addi	x10,x8,0
    7468:	06812403          	lw	x8,104(x2)
    746c:	06412483          	lw	x9,100(x2)
    7470:	06012903          	lw	x18,96(x2)
    7474:	05c12983          	lw	x19,92(x2)
    7478:	05812a03          	lw	x20,88(x2)
    747c:	05412a83          	lw	x21,84(x2)
    7480:	05012b03          	lw	x22,80(x2)
    7484:	07010113          	addi	x2,x2,112
    7488:	00008067          	jalr	x0,0(x1)
    748c:	407107b7          	lui	x15,0x40710
    7490:	00010613          	addi	x12,x2,0
    7494:	01010593          	addi	x11,x2,16
    7498:	02010513          	addi	x10,x2,32
    749c:	00f12623          	sw	x15,12(x2)
    74a0:	01612823          	sw	x22,16(x2)
    74a4:	01512a23          	sw	x21,20(x2)
    74a8:	01412c23          	sw	x20,24(x2)
    74ac:	01212e23          	sw	x18,28(x2)
    74b0:	00012023          	sw	x0,0(x2)
    74b4:	00012223          	sw	x0,4(x2)
    74b8:	00012423          	sw	x0,8(x2)
    74bc:	0e9070ef          	jal	x1,eda4 <__multf3>
    74c0:	02012703          	lw	x14,32(x2)
    74c4:	02c12783          	lw	x15,44(x2)
    74c8:	f8e00693          	addi	x13,x0,-114
    74cc:	02e12823          	sw	x14,48(x2)
    74d0:	02412703          	lw	x14,36(x2)
    74d4:	0107d493          	srli	x9,x15,0x10
    74d8:	02f12e23          	sw	x15,60(x2)
    74dc:	02e12a23          	sw	x14,52(x2)
    74e0:	02812703          	lw	x14,40(x2)
    74e4:	0134f4b3          	and	x9,x9,x19
    74e8:	02e12c23          	sw	x14,56(x2)
    74ec:	f29ff06f          	jal	x0,7414 <frexpl+0xa0>
    74f0:	04c12b83          	lw	x23,76(x2)
    74f4:	f5dff06f          	jal	x0,7450 <frexpl+0xdc>

000074f8 <_ldtoa_r>:
    74f8:	000128b7          	lui	x17,0x12
    74fc:	50c88893          	addi	x17,x17,1292 # 1250c <blanks.1+0x10>
    7500:	0008af83          	lw	x31,0(x17)
    7504:	0048af03          	lw	x30,4(x17)
    7508:	0088ae83          	lw	x29,8(x17)
    750c:	00c8ae03          	lw	x28,12(x17)
    7510:	0108a303          	lw	x6,16(x17)
    7514:	03852883          	lw	x17,56(x10)
    7518:	f5010113          	addi	x2,x2,-176
    751c:	0b212023          	sw	x18,160(x2)
    7520:	09312e23          	sw	x19,156(x2)
    7524:	09412c23          	sw	x20,152(x2)
    7528:	09612823          	sw	x22,144(x2)
    752c:	09712623          	sw	x23,140(x2)
    7530:	09812423          	sw	x24,136(x2)
    7534:	09912223          	sw	x25,132(x2)
    7538:	09a12023          	sw	x26,128(x2)
    753c:	0a112623          	sw	x1,172(x2)
    7540:	0a812423          	sw	x8,168(x2)
    7544:	0a912223          	sw	x9,164(x2)
    7548:	09512a23          	sw	x21,148(x2)
    754c:	07b12e23          	sw	x27,124(x2)
    7550:	05f12e23          	sw	x31,92(x2)
    7554:	07e12023          	sw	x30,96(x2)
    7558:	07d12223          	sw	x29,100(x2)
    755c:	07c12423          	sw	x28,104(x2)
    7560:	06612623          	sw	x6,108(x2)
    7564:	00c12c23          	sw	x12,24(x2)
    7568:	00d12e23          	sw	x13,28(x2)
    756c:	0005aa03          	lw	x20,0(x11)
    7570:	0045a983          	lw	x19,4(x11)
    7574:	0085a903          	lw	x18,8(x11)
    7578:	00c5ac03          	lw	x24,12(x11)
    757c:	00050b13          	addi	x22,x10,0
    7580:	00070b93          	addi	x23,x14,0
    7584:	00078c93          	addi	x25,x15,0 # 40710000 <__heap_end+0x40310000>
    7588:	00080d13          	addi	x26,x16,0
    758c:	02088263          	beq	x17,x0,75b0 <_ldtoa_r+0xb8>
    7590:	03c52683          	lw	x13,60(x10)
    7594:	00100713          	addi	x14,x0,1
    7598:	00088593          	addi	x11,x17,0
    759c:	00d71733          	sll	x14,x14,x13
    75a0:	00d8a223          	sw	x13,4(x17)
    75a4:	00e8a423          	sw	x14,8(x17)
    75a8:	48c020ef          	jal	x1,9a34 <_Bfree>
    75ac:	020b2c23          	sw	x0,56(x22)
    75b0:	06812603          	lw	x12,104(x2)
    75b4:	01fc5693          	srli	x13,x24,0x1f
    75b8:	001c1a93          	slli	x21,x24,0x1
    75bc:	40165713          	srai	x14,x12,0x1
    75c0:	ffffc4b7          	lui	x9,0xffffc
    75c4:	001c1413          	slli	x8,x24,0x1
    75c8:	00d77733          	and	x14,x14,x13
    75cc:	011ada93          	srli	x21,x21,0x11
    75d0:	f9148493          	addi	x9,x9,-111 # ffffbf91 <__heap_end+0xffbfbf91>
    75d4:	010c1d93          	slli	x27,x24,0x10
    75d8:	00dca023          	sw	x13,0(x25)
    75dc:	00145413          	srli	x8,x8,0x1
    75e0:	00c74733          	xor	x14,x14,x12
    75e4:	010ddd93          	srli	x27,x27,0x10
    75e8:	009a87b3          	add	x15,x21,x9
    75ec:	02010593          	addi	x11,x2,32
    75f0:	03010513          	addi	x10,x2,48
    75f4:	03412823          	sw	x20,48(x2)
    75f8:	03312a23          	sw	x19,52(x2)
    75fc:	03212c23          	sw	x18,56(x2)
    7600:	02812e23          	sw	x8,60(x2)
    7604:	03412023          	sw	x20,32(x2)
    7608:	03312223          	sw	x19,36(x2)
    760c:	03212423          	sw	x18,40(x2)
    7610:	02812623          	sw	x8,44(x2)
    7614:	06e12423          	sw	x14,104(x2)
    7618:	00f12a23          	sw	x15,20(x2)
    761c:	05412623          	sw	x20,76(x2)
    7620:	05312823          	sw	x19,80(x2)
    7624:	05212a23          	sw	x18,84(x2)
    7628:	05b12c23          	sw	x27,88(x2)
    762c:	00c0a0ef          	jal	x1,11638 <__unordtf2>
    7630:	16051a63          	bne	x10,x0,77a4 <_ldtoa_r+0x2ac>
    7634:	7fff0cb7          	lui	x25,0x7fff0
    7638:	fff00493          	addi	x9,x0,-1
    763c:	fffc8c93          	addi	x25,x25,-1 # 7ffeffff <__heap_end+0x7fbeffff>
    7640:	02010593          	addi	x11,x2,32
    7644:	03010513          	addi	x10,x2,48
    7648:	03412823          	sw	x20,48(x2)
    764c:	03312a23          	sw	x19,52(x2)
    7650:	03212c23          	sw	x18,56(x2)
    7654:	02812e23          	sw	x8,60(x2)
    7658:	02912023          	sw	x9,32(x2)
    765c:	02912223          	sw	x9,36(x2)
    7660:	02912423          	sw	x9,40(x2)
    7664:	03912623          	sw	x25,44(x2)
    7668:	7d1090ef          	jal	x1,11638 <__unordtf2>
    766c:	08051c63          	bne	x10,x0,7704 <_ldtoa_r+0x20c>
    7670:	02010593          	addi	x11,x2,32
    7674:	03010513          	addi	x10,x2,48
    7678:	5fc070ef          	jal	x1,ec74 <__letf2>
    767c:	08a05463          	bge	x0,x10,7704 <_ldtoa_r+0x20c>
    7680:	00300793          	addi	x15,x0,3
    7684:	04f12423          	sw	x15,72(x2)
    7688:	01812783          	lw	x15,24(x2)
    768c:	01c12803          	lw	x16,28(x2)
    7690:	01412603          	lw	x12,20(x2)
    7694:	04810713          	addi	x14,x2,72
    7698:	01a12023          	sw	x26,0(x2)
    769c:	000b8893          	addi	x17,x23,0
    76a0:	04c10693          	addi	x13,x2,76
    76a4:	05c10593          	addi	x11,x2,92
    76a8:	000b0513          	addi	x10,x22,0
    76ac:	208000ef          	jal	x1,78b4 <__gdtoa>
    76b0:	000ba703          	lw	x14,0(x23)
    76b4:	ffff87b7          	lui	x15,0xffff8
    76b8:	00f71863          	bne	x14,x15,76c8 <_ldtoa_r+0x1d0>
    76bc:	800007b7          	lui	x15,0x80000
    76c0:	fff78793          	addi	x15,x15,-1 # 7fffffff <__heap_end+0x7fbfffff>
    76c4:	00fba023          	sw	x15,0(x23)
    76c8:	0ac12083          	lw	x1,172(x2)
    76cc:	0a812403          	lw	x8,168(x2)
    76d0:	0a412483          	lw	x9,164(x2)
    76d4:	0a012903          	lw	x18,160(x2)
    76d8:	09c12983          	lw	x19,156(x2)
    76dc:	09812a03          	lw	x20,152(x2)
    76e0:	09412a83          	lw	x21,148(x2)
    76e4:	09012b03          	lw	x22,144(x2)
    76e8:	08c12b83          	lw	x23,140(x2)
    76ec:	08812c03          	lw	x24,136(x2)
    76f0:	08412c83          	lw	x25,132(x2)
    76f4:	08012d03          	lw	x26,128(x2)
    76f8:	07c12d83          	lw	x27,124(x2)
    76fc:	0b010113          	addi	x2,x2,176
    7700:	00008067          	jalr	x0,0(x1)
    7704:	000107b7          	lui	x15,0x10
    7708:	02010593          	addi	x11,x2,32
    770c:	03010513          	addi	x10,x2,48
    7710:	03412823          	sw	x20,48(x2)
    7714:	03312a23          	sw	x19,52(x2)
    7718:	03212c23          	sw	x18,56(x2)
    771c:	02812e23          	sw	x8,60(x2)
    7720:	02012023          	sw	x0,32(x2)
    7724:	02012223          	sw	x0,36(x2)
    7728:	02012423          	sw	x0,40(x2)
    772c:	02f12623          	sw	x15,44(x2)
    7730:	414070ef          	jal	x1,eb44 <__getf2>
    7734:	00054e63          	blt	x10,x0,7750 <_ldtoa_r+0x258>
    7738:	000107b7          	lui	x15,0x10
    773c:	00fdedb3          	or	x27,x27,x15
    7740:	00100793          	addi	x15,x0,1
    7744:	04f12423          	sw	x15,72(x2)
    7748:	05b12c23          	sw	x27,88(x2)
    774c:	f3dff06f          	jal	x0,7688 <_ldtoa_r+0x190>
    7750:	02010593          	addi	x11,x2,32
    7754:	03010513          	addi	x10,x2,48
    7758:	03412823          	sw	x20,48(x2)
    775c:	03312a23          	sw	x19,52(x2)
    7760:	03212c23          	sw	x18,56(x2)
    7764:	03812e23          	sw	x24,60(x2)
    7768:	02012023          	sw	x0,32(x2)
    776c:	02012223          	sw	x0,36(x2)
    7770:	02012423          	sw	x0,40(x2)
    7774:	02012623          	sw	x0,44(x2)
    7778:	300070ef          	jal	x1,ea78 <__eqtf2>
    777c:	00051663          	bne	x10,x0,7788 <_ldtoa_r+0x290>
    7780:	04012423          	sw	x0,72(x2)
    7784:	f05ff06f          	jal	x0,7688 <_ldtoa_r+0x190>
    7788:	ffffc4b7          	lui	x9,0xffffc
    778c:	00200793          	addi	x15,x0,2
    7790:	f9248493          	addi	x9,x9,-110 # ffffbf92 <__heap_end+0xffbfbf92>
    7794:	04f12423          	sw	x15,72(x2)
    7798:	009a87b3          	add	x15,x21,x9
    779c:	00f12a23          	sw	x15,20(x2)
    77a0:	ee9ff06f          	jal	x0,7688 <_ldtoa_r+0x190>
    77a4:	00400793          	addi	x15,x0,4
    77a8:	04f12423          	sw	x15,72(x2)
    77ac:	eddff06f          	jal	x0,7688 <_ldtoa_r+0x190>

000077b0 <_ldcheck>:
    77b0:	fc010113          	addi	x2,x2,-64
    77b4:	02912a23          	sw	x9,52(x2)
    77b8:	00c52483          	lw	x9,12(x10)
    77bc:	03312623          	sw	x19,44(x2)
    77c0:	03412423          	sw	x20,40(x2)
    77c4:	00852983          	lw	x19,8(x10)
    77c8:	00452a03          	lw	x20,4(x10)
    77cc:	03512223          	sw	x21,36(x2)
    77d0:	00052a83          	lw	x21,0(x10)
    77d4:	00149493          	slli	x9,x9,0x1
    77d8:	0014d493          	srli	x9,x9,0x1
    77dc:	00010593          	addi	x11,x2,0
    77e0:	01010513          	addi	x10,x2,16
    77e4:	02112e23          	sw	x1,60(x2)
    77e8:	01512823          	sw	x21,16(x2)
    77ec:	01412a23          	sw	x20,20(x2)
    77f0:	01312c23          	sw	x19,24(x2)
    77f4:	00912e23          	sw	x9,28(x2)
    77f8:	01512023          	sw	x21,0(x2)
    77fc:	01412223          	sw	x20,4(x2)
    7800:	01312423          	sw	x19,8(x2)
    7804:	00912623          	sw	x9,12(x2)
    7808:	631090ef          	jal	x1,11638 <__unordtf2>
    780c:	08051463          	bne	x10,x0,7894 <_ldcheck+0xe4>
    7810:	03612023          	sw	x22,32(x2)
    7814:	7fff0b37          	lui	x22,0x7fff0
    7818:	03212823          	sw	x18,48(x2)
    781c:	fffb0b13          	addi	x22,x22,-1 # 7ffeffff <__heap_end+0x7fbeffff>
    7820:	fff00913          	addi	x18,x0,-1
    7824:	00010593          	addi	x11,x2,0
    7828:	01010513          	addi	x10,x2,16
    782c:	02812c23          	sw	x8,56(x2)
    7830:	01212023          	sw	x18,0(x2)
    7834:	01212223          	sw	x18,4(x2)
    7838:	01212423          	sw	x18,8(x2)
    783c:	01612623          	sw	x22,12(x2)
    7840:	00100413          	addi	x8,x0,1
    7844:	5f5090ef          	jal	x1,11638 <__unordtf2>
    7848:	02050c63          	beq	x10,x0,7880 <_ldcheck+0xd0>
    784c:	03c12083          	lw	x1,60(x2)
    7850:	00144513          	xori	x10,x8,1
    7854:	03812403          	lw	x8,56(x2)
    7858:	0ff57513          	andi	x10,x10,255
    785c:	03012903          	lw	x18,48(x2)
    7860:	02012b03          	lw	x22,32(x2)
    7864:	03412483          	lw	x9,52(x2)
    7868:	02c12983          	lw	x19,44(x2)
    786c:	02812a03          	lw	x20,40(x2)
    7870:	02412a83          	lw	x21,36(x2)
    7874:	00151513          	slli	x10,x10,0x1
    7878:	04010113          	addi	x2,x2,64
    787c:	00008067          	jalr	x0,0(x1)
    7880:	00010593          	addi	x11,x2,0
    7884:	01010513          	addi	x10,x2,16
    7888:	3ec070ef          	jal	x1,ec74 <__letf2>
    788c:	00152413          	slti	x8,x10,1
    7890:	fbdff06f          	jal	x0,784c <_ldcheck+0x9c>
    7894:	03c12083          	lw	x1,60(x2)
    7898:	03412483          	lw	x9,52(x2)
    789c:	02c12983          	lw	x19,44(x2)
    78a0:	02812a03          	lw	x20,40(x2)
    78a4:	02412a83          	lw	x21,36(x2)
    78a8:	00100513          	addi	x10,x0,1
    78ac:	04010113          	addi	x2,x2,64
    78b0:	00008067          	jalr	x0,0(x1)

000078b4 <__gdtoa>:
    78b4:	f3010113          	addi	x2,x2,-208
    78b8:	0b612823          	sw	x22,176(x2)
    78bc:	00072b03          	lw	x22,0(x14)
    78c0:	0ba12023          	sw	x26,160(x2)
    78c4:	0c112623          	sw	x1,204(x2)
    78c8:	fcfb7313          	andi	x6,x22,-49
    78cc:	00672023          	sw	x6,0(x14)
    78d0:	00070d13          	addi	x26,x14,0
    78d4:	0d012703          	lw	x14,208(x2)
    78d8:	00fb7313          	andi	x6,x22,15
    78dc:	00300e93          	addi	x29,x0,3
    78e0:	00e12623          	sw	x14,12(x2)
    78e4:	00f12823          	sw	x15,16(x2)
    78e8:	01012c23          	sw	x16,24(x2)
    78ec:	01112423          	sw	x17,8(x2)
    78f0:	7dd30c63          	beq	x6,x29,80c8 <__gdtoa+0x814>
    78f4:	0b912223          	sw	x25,164(x2)
    78f8:	00cb7c93          	andi	x25,x22,12
    78fc:	720c9063          	bne	x25,x0,801c <__gdtoa+0x768>
    7900:	0c812423          	sw	x8,200(x2)
    7904:	00050413          	addi	x8,x10,0
    7908:	76030c63          	beq	x6,x0,8080 <__gdtoa+0x7cc>
    790c:	0b712623          	sw	x23,172(x2)
    7910:	0005ab83          	lw	x23,0(x11)
    7914:	0d212023          	sw	x18,192(x2)
    7918:	0b512a23          	sw	x21,180(x2)
    791c:	09b12e23          	sw	x27,156(x2)
    7920:	00068913          	addi	x18,x13,0
    7924:	0c912223          	sw	x9,196(x2)
    7928:	02000693          	addi	x13,x0,32
    792c:	00058d93          	addi	x27,x11,0
    7930:	00060a93          	addi	x21,x12,0
    7934:	00000593          	addi	x11,x0,0
    7938:	02000793          	addi	x15,x0,32
    793c:	0176d863          	bge	x13,x23,794c <__gdtoa+0x98>
    7940:	00179793          	slli	x15,x15,0x1
    7944:	00158593          	addi	x11,x11,1
    7948:	ff77cce3          	blt	x15,x23,7940 <__gdtoa+0x8c>
    794c:	00040513          	addi	x10,x8,0
    7950:	030020ef          	jal	x1,9980 <_Balloc>
    7954:	00050493          	addi	x9,x10,0
    7958:	380504e3          	beq	x10,x0,84e0 <__gdtoa+0xc2c>
    795c:	fffb8513          	addi	x10,x23,-1
    7960:	40555513          	srai	x10,x10,0x5
    7964:	00251593          	slli	x11,x10,0x2
    7968:	0b312e23          	sw	x19,188(x2)
    796c:	0b812423          	sw	x24,168(x2)
    7970:	00b905b3          	add	x11,x18,x11
    7974:	01448693          	addi	x13,x9,20
    7978:	00090793          	addi	x15,x18,0
    797c:	0007a703          	lw	x14,0(x15) # 10000 <__multf3+0x125c>
    7980:	00478793          	addi	x15,x15,4
    7984:	00468693          	addi	x13,x13,4
    7988:	fee6ae23          	sw	x14,-4(x13)
    798c:	fef5f8e3          	bgeu	x11,x15,797c <__gdtoa+0xc8>
    7990:	00158593          	addi	x11,x11,1
    7994:	00190793          	addi	x15,x18,1
    7998:	00400693          	addi	x13,x0,4
    799c:	00f5e663          	bltu	x11,x15,79a8 <__gdtoa+0xf4>
    79a0:	00251513          	slli	x10,x10,0x2
    79a4:	00450693          	addi	x13,x10,4
    79a8:	4026dc13          	srai	x24,x13,0x2
    79ac:	00d486b3          	add	x13,x9,x13
    79b0:	00c0006f          	jal	x0,79bc <__gdtoa+0x108>
    79b4:	ffc68693          	addi	x13,x13,-4
    79b8:	780c0463          	beq	x24,x0,8140 <__gdtoa+0x88c>
    79bc:	0106a783          	lw	x15,16(x13)
    79c0:	000c0993          	addi	x19,x24,0
    79c4:	fffc0c13          	addi	x24,x24,-1
    79c8:	fe0786e3          	beq	x15,x0,79b4 <__gdtoa+0x100>
    79cc:	004c0793          	addi	x15,x24,4
    79d0:	00279793          	slli	x15,x15,0x2
    79d4:	00f487b3          	add	x15,x9,x15
    79d8:	0047a503          	lw	x10,4(x15)
    79dc:	0134a823          	sw	x19,16(x9)
    79e0:	00599993          	slli	x19,x19,0x5
    79e4:	334020ef          	jal	x1,9d18 <__hi0bits>
    79e8:	40a98c33          	sub	x24,x19,x10
    79ec:	00048513          	addi	x10,x9,0
    79f0:	6bd010ef          	jal	x1,98ac <__trailz_D2A>
    79f4:	08a12623          	sw	x10,140(x2)
    79f8:	03512223          	sw	x21,36(x2)
    79fc:	78051663          	bne	x10,x0,8188 <__gdtoa+0x8d4>
    7a00:	0104a683          	lw	x13,16(x9)
    7a04:	64068a63          	beq	x13,x0,8058 <__gdtoa+0x7a4>
    7a08:	08c10593          	addi	x11,x2,140
    7a0c:	00048513          	addi	x10,x9,0
    7a10:	0b412c23          	sw	x20,184(x2)
    7a14:	5d5020ef          	jal	x1,a7e8 <__b2d>
    7a18:	00c59993          	slli	x19,x11,0xc
    7a1c:	00c9d993          	srli	x19,x19,0xc
    7a20:	3ff006b7          	lui	x13,0x3ff00
    7a24:	00d9e833          	or	x16,x19,x13
    7a28:	02412703          	lw	x14,36(x2)
    7a2c:	ea81a603          	lw	x12,-344(x3) # 12fe8 <__SDATA_BEGIN__>
    7a30:	eac1a683          	lw	x13,-340(x3) # 12fec <__SDATA_BEGIN__+0x4>
    7a34:	01870733          	add	x14,x14,x24
    7a38:	00080593          	addi	x11,x16,0
    7a3c:	00050793          	addi	x15,x10,0
    7a40:	fff70a13          	addi	x20,x14,-1
    7a44:	03012823          	sw	x16,48(x2)
    7a48:	02e12423          	sw	x14,40(x2)
    7a4c:	04f12423          	sw	x15,72(x2)
    7a50:	04a12223          	sw	x10,68(x2)
    7a54:	754060ef          	jal	x1,e1a8 <__subdf3>
    7a58:	eb01a603          	lw	x12,-336(x3) # 12ff0 <__SDATA_BEGIN__+0x8>
    7a5c:	eb41a683          	lw	x13,-332(x3) # 12ff4 <__SDATA_BEGIN__+0xc>
    7a60:	098060ef          	jal	x1,daf8 <__muldf3>
    7a64:	eb81a603          	lw	x12,-328(x3) # 12ff8 <__SDATA_BEGIN__+0x10>
    7a68:	ebc1a683          	lw	x13,-324(x3) # 12ffc <__SDATA_BEGIN__+0x14>
    7a6c:	6d5040ef          	jal	x1,c940 <__adddf3>
    7a70:	00050793          	addi	x15,x10,0
    7a74:	000a0513          	addi	x10,x20,0
    7a78:	00f12e23          	sw	x15,28(x2)
    7a7c:	00058993          	addi	x19,x11,0
    7a80:	751060ef          	jal	x1,e9d0 <__floatsidf>
    7a84:	ec01a603          	lw	x12,-320(x3) # 13000 <__SDATA_BEGIN__+0x18>
    7a88:	ec41a683          	lw	x13,-316(x3) # 13004 <__SDATA_BEGIN__+0x1c>
    7a8c:	06c060ef          	jal	x1,daf8 <__muldf3>
    7a90:	01c12783          	lw	x15,28(x2)
    7a94:	00050613          	addi	x12,x10,0
    7a98:	00058693          	addi	x13,x11,0
    7a9c:	00078513          	addi	x10,x15,0
    7aa0:	00098593          	addi	x11,x19,0
    7aa4:	69d040ef          	jal	x1,c940 <__adddf3>
    7aa8:	02a12023          	sw	x10,32(x2)
    7aac:	00058993          	addi	x19,x11,0
    7ab0:	000a0513          	addi	x10,x20,0
    7ab4:	000a5863          	bge	x20,x0,7ac4 <__gdtoa+0x210>
    7ab8:	02812703          	lw	x14,40(x2)
    7abc:	00100513          	addi	x10,x0,1
    7ac0:	40e50533          	sub	x10,x10,x14
    7ac4:	bcb50513          	addi	x10,x10,-1077
    7ac8:	02a05863          	bge	x0,x10,7af8 <__gdtoa+0x244>
    7acc:	705060ef          	jal	x1,e9d0 <__floatsidf>
    7ad0:	ec81a603          	lw	x12,-312(x3) # 13008 <__SDATA_BEGIN__+0x20>
    7ad4:	ecc1a683          	lw	x13,-308(x3) # 1300c <__SDATA_BEGIN__+0x24>
    7ad8:	020060ef          	jal	x1,daf8 <__muldf3>
    7adc:	00050613          	addi	x12,x10,0
    7ae0:	02012503          	lw	x10,32(x2)
    7ae4:	00058693          	addi	x13,x11,0
    7ae8:	00098593          	addi	x11,x19,0
    7aec:	655040ef          	jal	x1,c940 <__adddf3>
    7af0:	02a12023          	sw	x10,32(x2)
    7af4:	00058993          	addi	x19,x11,0
    7af8:	02012503          	lw	x10,32(x2)
    7afc:	00098593          	addi	x11,x19,0
    7b00:	651060ef          	jal	x1,e950 <__fixdfsi>
    7b04:	00050813          	addi	x16,x10,0
    7b08:	02012503          	lw	x10,32(x2)
    7b0c:	00098593          	addi	x11,x19,0
    7b10:	00000613          	addi	x12,x0,0
    7b14:	00000693          	addi	x13,x0,0
    7b18:	01012e23          	sw	x16,28(x2)
    7b1c:	701050ef          	jal	x1,da1c <__ledf2>
    7b20:	02055463          	bge	x10,x0,7b48 <__gdtoa+0x294>
    7b24:	01c12503          	lw	x10,28(x2)
    7b28:	6a9060ef          	jal	x1,e9d0 <__floatsidf>
    7b2c:	02012603          	lw	x12,32(x2)
    7b30:	00098693          	addi	x13,x19,0
    7b34:	581050ef          	jal	x1,d8b4 <__eqdf2>
    7b38:	01c12783          	lw	x15,28(x2)
    7b3c:	00a03533          	sltu	x10,x0,x10
    7b40:	40a787b3          	sub	x15,x15,x10
    7b44:	00f12e23          	sw	x15,28(x2)
    7b48:	03012783          	lw	x15,48(x2)
    7b4c:	014a1613          	slli	x12,x20,0x14
    7b50:	01c12703          	lw	x14,28(x2)
    7b54:	414c0a33          	sub	x20,x24,x20
    7b58:	00f609b3          	add	x19,x12,x15
    7b5c:	fffa0793          	addi	x15,x20,-1
    7b60:	01600693          	addi	x13,x0,22
    7b64:	02f12023          	sw	x15,32(x2)
    7b68:	5ee6e063          	bltu	x13,x14,8148 <__gdtoa+0x894>
    7b6c:	000127b7          	lui	x15,0x12
    7b70:	58078613          	addi	x12,x15,1408 # 12580 <__mprec_tens>
    7b74:	00371693          	slli	x13,x14,0x3
    7b78:	00c686b3          	add	x13,x13,x12
    7b7c:	04412883          	lw	x17,68(x2)
    7b80:	0006a503          	lw	x10,0(x13) # 3ff00000 <__heap_end+0x3fb00000>
    7b84:	0046a583          	lw	x11,4(x13)
    7b88:	00088613          	addi	x12,x17,0
    7b8c:	00098693          	addi	x13,x19,0
    7b90:	5b1050ef          	jal	x1,d940 <__gedf2>
    7b94:	18a04ee3          	blt	x0,x10,8530 <__gdtoa+0xc7c>
    7b98:	04012823          	sw	x0,80(x2)
    7b9c:	02012823          	sw	x0,48(x2)
    7ba0:	01404a63          	blt	x0,x20,7bb4 <__gdtoa+0x300>
    7ba4:	00100693          	addi	x13,x0,1
    7ba8:	414687b3          	sub	x15,x13,x20
    7bac:	02f12823          	sw	x15,48(x2)
    7bb0:	02012023          	sw	x0,32(x2)
    7bb4:	02012703          	lw	x14,32(x2)
    7bb8:	01c12783          	lw	x15,28(x2)
    7bbc:	02012c23          	sw	x0,56(x2)
    7bc0:	00f70733          	add	x14,x14,x15
    7bc4:	02e12023          	sw	x14,32(x2)
    7bc8:	02f12e23          	sw	x15,60(x2)
    7bcc:	01012783          	lw	x15,16(x2)
    7bd0:	00900693          	addi	x13,x0,9
    7bd4:	5cf6ea63          	bltu	x13,x15,81a8 <__gdtoa+0x8f4>
    7bd8:	00500693          	addi	x13,x0,5
    7bdc:	16f6c4e3          	blt	x13,x15,8544 <__gdtoa+0xc90>
    7be0:	02812783          	lw	x15,40(x2)
    7be4:	00400613          	addi	x12,x0,4
    7be8:	3fd78793          	addi	x15,x15,1021
    7bec:	7f87ba13          	sltiu	x20,x15,2040
    7bf0:	01012783          	lw	x15,16(x2)
    7bf4:	00c79463          	bne	x15,x12,7bfc <__gdtoa+0x348>
    7bf8:	0580106f          	jal	x0,8c50 <__gdtoa+0x139c>
    7bfc:	00d79463          	bne	x15,x13,7c04 <__gdtoa+0x350>
    7c00:	0440106f          	jal	x0,8c44 <__gdtoa+0x1390>
    7c04:	00200693          	addi	x13,x0,2
    7c08:	00d79463          	bne	x15,x13,7c10 <__gdtoa+0x35c>
    7c0c:	0500106f          	jal	x0,8c5c <__gdtoa+0x13a8>
    7c10:	00300693          	addi	x13,x0,3
    7c14:	04012023          	sw	x0,64(x2)
    7c18:	5ad79063          	bne	x15,x13,81b8 <__gdtoa+0x904>
    7c1c:	03c12783          	lw	x15,60(x2)
    7c20:	01812703          	lw	x14,24(x2)
    7c24:	00e787b3          	add	x15,x15,x14
    7c28:	04f12a23          	sw	x15,84(x2)
    7c2c:	00178793          	addi	x15,x15,1
    7c30:	02f12a23          	sw	x15,52(x2)
    7c34:	5ef056e3          	bge	x0,x15,8a20 <__gdtoa+0x116c>
    7c38:	00078693          	addi	x13,x15,0
    7c3c:	00078593          	addi	x11,x15,0
    7c40:	00040513          	addi	x10,x8,0
    7c44:	08d12623          	sw	x13,140(x2)
    7c48:	7f4010ef          	jal	x1,943c <__rv_alloc_D2A>
    7c4c:	00050f13          	addi	x30,x10,0
    7c50:	4c050263          	beq	x10,x0,8114 <__gdtoa+0x860>
    7c54:	00cda783          	lw	x15,12(x27)
    7c58:	fff78793          	addi	x15,x15,-1
    7c5c:	02f12423          	sw	x15,40(x2)
    7c60:	5a078263          	beq	x15,x0,8204 <__gdtoa+0x950>
    7c64:	0c07c0e3          	blt	x15,x0,8524 <__gdtoa+0xc70>
    7c68:	100b7e13          	andi	x28,x22,256
    7c6c:	580e1463          	bne	x28,x0,81f4 <__gdtoa+0x940>
    7c70:	02412783          	lw	x15,36(x2)
    7c74:	0007c863          	blt	x15,x0,7c84 <__gdtoa+0x3d0>
    7c78:	03c12783          	lw	x15,60(x2)
    7c7c:	00e00693          	addi	x13,x0,14
    7c80:	0ef6dae3          	bge	x13,x15,8574 <__gdtoa+0xcc0>
    7c84:	04012783          	lw	x15,64(x2)
    7c88:	080786e3          	beq	x15,x0,8514 <__gdtoa+0xc60>
    7c8c:	02412783          	lw	x15,36(x2)
    7c90:	418b8333          	sub	x6,x23,x24
    7c94:	004da683          	lw	x13,4(x27)
    7c98:	00130613          	addi	x12,x6,1
    7c9c:	08c12623          	sw	x12,140(x2)
    7ca0:	40678333          	sub	x6,x15,x6
    7ca4:	5cd35ee3          	bge	x6,x13,8a80 <__gdtoa+0x11cc>
    7ca8:	01012703          	lw	x14,16(x2)
    7cac:	ffd70613          	addi	x12,x14,-3
    7cb0:	ffd67613          	andi	x12,x12,-3
    7cb4:	4a060ee3          	beq	x12,x0,8970 <__gdtoa+0x10bc>
    7cb8:	40d786b3          	sub	x13,x15,x13
    7cbc:	00168693          	addi	x13,x13,1
    7cc0:	08d12623          	sw	x13,140(x2)
    7cc4:	00100613          	addi	x12,x0,1
    7cc8:	00e65c63          	bge	x12,x14,7ce0 <__gdtoa+0x42c>
    7ccc:	03412783          	lw	x15,52(x2)
    7cd0:	00f05863          	bge	x0,x15,7ce0 <__gdtoa+0x42c>
    7cd4:	03412783          	lw	x15,52(x2)
    7cd8:	00d7d463          	bge	x15,x13,7ce0 <__gdtoa+0x42c>
    7cdc:	5740106f          	jal	x0,9250 <__gdtoa+0x199c>
    7ce0:	03012783          	lw	x15,48(x2)
    7ce4:	02012703          	lw	x14,32(x2)
    7ce8:	03812b03          	lw	x22,56(x2)
    7cec:	00078a13          	addi	x20,x15,0
    7cf0:	00d70733          	add	x14,x14,x13
    7cf4:	00f687b3          	add	x15,x13,x15
    7cf8:	02e12023          	sw	x14,32(x2)
    7cfc:	02f12823          	sw	x15,48(x2)
    7d00:	00100593          	addi	x11,x0,1
    7d04:	00040513          	addi	x10,x8,0
    7d08:	03e12223          	sw	x30,36(x2)
    7d0c:	164020ef          	jal	x1,9e70 <__i2b>
    7d10:	02412f03          	lw	x30,36(x2)
    7d14:	00050993          	addi	x19,x10,0
    7d18:	3e050e63          	beq	x10,x0,8114 <__gdtoa+0x860>
    7d1c:	020a0c63          	beq	x20,x0,7d54 <__gdtoa+0x4a0>
    7d20:	02012783          	lw	x15,32(x2)
    7d24:	02f05863          	bge	x0,x15,7d54 <__gdtoa+0x4a0>
    7d28:	000a0693          	addi	x13,x20,0
    7d2c:	0147d463          	bge	x15,x20,7d34 <__gdtoa+0x480>
    7d30:	00078693          	addi	x13,x15,0
    7d34:	03012783          	lw	x15,48(x2)
    7d38:	08d12623          	sw	x13,140(x2)
    7d3c:	40da0a33          	sub	x20,x20,x13
    7d40:	40d787b3          	sub	x15,x15,x13
    7d44:	02f12823          	sw	x15,48(x2)
    7d48:	02012783          	lw	x15,32(x2)
    7d4c:	40d787b3          	sub	x15,x15,x13
    7d50:	02f12023          	sw	x15,32(x2)
    7d54:	03812783          	lw	x15,56(x2)
    7d58:	02078863          	beq	x15,x0,7d88 <__gdtoa+0x4d4>
    7d5c:	04012783          	lw	x15,64(x2)
    7d60:	00078463          	beq	x15,x0,7d68 <__gdtoa+0x4b4>
    7d64:	600b16e3          	bne	x22,x0,8b70 <__gdtoa+0x12bc>
    7d68:	03812603          	lw	x12,56(x2)
    7d6c:	00048593          	addi	x11,x9,0
    7d70:	00040513          	addi	x10,x8,0
    7d74:	03e12223          	sw	x30,36(x2)
    7d78:	470020ef          	jal	x1,a1e8 <__pow5mult>
    7d7c:	02412f03          	lw	x30,36(x2)
    7d80:	00050493          	addi	x9,x10,0
    7d84:	38050863          	beq	x10,x0,8114 <__gdtoa+0x860>
    7d88:	00100593          	addi	x11,x0,1
    7d8c:	00040513          	addi	x10,x8,0
    7d90:	03e12223          	sw	x30,36(x2)
    7d94:	0dc020ef          	jal	x1,9e70 <__i2b>
    7d98:	00050b93          	addi	x23,x10,0
    7d9c:	36050c63          	beq	x10,x0,8114 <__gdtoa+0x860>
    7da0:	01c12783          	lw	x15,28(x2)
    7da4:	02412f03          	lw	x30,36(x2)
    7da8:	480792e3          	bne	x15,x0,8a2c <__gdtoa+0x1178>
    7dac:	01012783          	lw	x15,16(x2)
    7db0:	00100693          	addi	x13,x0,1
    7db4:	18f6dce3          	bge	x13,x15,874c <__gdtoa+0xe98>
    7db8:	01f00a93          	addi	x21,x0,31
    7dbc:	02012783          	lw	x15,32(x2)
    7dc0:	40fa8ab3          	sub	x21,x21,x15
    7dc4:	03012783          	lw	x15,48(x2)
    7dc8:	ffca8a93          	addi	x21,x21,-4
    7dcc:	01fafa93          	andi	x21,x21,31
    7dd0:	00fa8633          	add	x12,x21,x15
    7dd4:	09512623          	sw	x21,140(x2)
    7dd8:	000a8793          	addi	x15,x21,0
    7ddc:	26c048e3          	blt	x0,x12,884c <__gdtoa+0xf98>
    7de0:	02012703          	lw	x14,32(x2)
    7de4:	00f70633          	add	x12,x14,x15
    7de8:	30c04863          	blt	x0,x12,80f8 <__gdtoa+0x844>
    7dec:	05012783          	lw	x15,80(x2)
    7df0:	280790e3          	bne	x15,x0,8870 <__gdtoa+0xfbc>
    7df4:	03412783          	lw	x15,52(x2)
    7df8:	3af052e3          	bge	x0,x15,899c <__gdtoa+0x10e8>
    7dfc:	04012783          	lw	x15,64(x2)
    7e00:	2c0784e3          	beq	x15,x0,88c8 <__gdtoa+0x1014>
    7e04:	014a8633          	add	x12,x21,x20
    7e08:	60c046e3          	blt	x0,x12,8c14 <__gdtoa+0x1360>
    7e0c:	01c12783          	lw	x15,28(x2)
    7e10:	00098a13          	addi	x20,x19,0
    7e14:	680790e3          	bne	x15,x0,8c94 <__gdtoa+0x13e0>
    7e18:	01a12e23          	sw	x26,28(x2)
    7e1c:	01012c83          	lw	x25,16(x2)
    7e20:	03412d03          	lw	x26,52(x2)
    7e24:	000f0c13          	addi	x24,x30,0
    7e28:	00100793          	addi	x15,x0,1
    7e2c:	01e12c23          	sw	x30,24(x2)
    7e30:	0b00006f          	jal	x0,7ee0 <__gdtoa+0x62c>
    7e34:	00040513          	addi	x10,x8,0
    7e38:	3fd010ef          	jal	x1,9a34 <_Bfree>
    7e3c:	000ad463          	bge	x21,x0,7e44 <__gdtoa+0x590>
    7e40:	7e50006f          	jal	x0,8e24 <__gdtoa+0x1570>
    7e44:	015ceab3          	or	x21,x25,x21
    7e48:	000a9a63          	bne	x21,x0,7e5c <__gdtoa+0x5a8>
    7e4c:	00092783          	lw	x15,0(x18)
    7e50:	0017f793          	andi	x15,x15,1
    7e54:	00079463          	bne	x15,x0,7e5c <__gdtoa+0x5a8>
    7e58:	7cd0006f          	jal	x0,8e24 <__gdtoa+0x1570>
    7e5c:	02812783          	lw	x15,40(x2)
    7e60:	00200713          	addi	x14,x0,2
    7e64:	00e78463          	beq	x15,x14,7e6c <__gdtoa+0x5b8>
    7e68:	3140106f          	jal	x0,917c <__gdtoa+0x18c8>
    7e6c:	01bc0023          	sb	x27,0(x24)
    7e70:	08c12783          	lw	x15,140(x2)
    7e74:	001c0c13          	addi	x24,x24,1
    7e78:	00fd1463          	bne	x26,x15,7e80 <__gdtoa+0x5cc>
    7e7c:	2340106f          	jal	x0,90b0 <__gdtoa+0x17fc>
    7e80:	00048593          	addi	x11,x9,0
    7e84:	00000693          	addi	x13,x0,0
    7e88:	00a00613          	addi	x12,x0,10
    7e8c:	00040513          	addi	x10,x8,0
    7e90:	3c9010ef          	jal	x1,9a58 <__multadd>
    7e94:	00050493          	addi	x9,x10,0
    7e98:	26050e63          	beq	x10,x0,8114 <__gdtoa+0x860>
    7e9c:	00000693          	addi	x13,x0,0
    7ea0:	00a00613          	addi	x12,x0,10
    7ea4:	00098593          	addi	x11,x19,0
    7ea8:	00040513          	addi	x10,x8,0
    7eac:	114980e3          	beq	x19,x20,87ac <__gdtoa+0xef8>
    7eb0:	3a9010ef          	jal	x1,9a58 <__multadd>
    7eb4:	00050993          	addi	x19,x10,0
    7eb8:	24050e63          	beq	x10,x0,8114 <__gdtoa+0x860>
    7ebc:	000a0593          	addi	x11,x20,0
    7ec0:	00000693          	addi	x13,x0,0
    7ec4:	00a00613          	addi	x12,x0,10
    7ec8:	00040513          	addi	x10,x8,0
    7ecc:	38d010ef          	jal	x1,9a58 <__multadd>
    7ed0:	00050a13          	addi	x20,x10,0
    7ed4:	24050063          	beq	x10,x0,8114 <__gdtoa+0x860>
    7ed8:	08c12783          	lw	x15,140(x2)
    7edc:	00178793          	addi	x15,x15,1
    7ee0:	000b8593          	addi	x11,x23,0
    7ee4:	00048513          	addi	x10,x9,0
    7ee8:	08f12623          	sw	x15,140(x2)
    7eec:	66c010ef          	jal	x1,9558 <__quorem_D2A>
    7ef0:	00050b13          	addi	x22,x10,0
    7ef4:	00098593          	addi	x11,x19,0
    7ef8:	00048513          	addi	x10,x9,0
    7efc:	5cc020ef          	jal	x1,a4c8 <__mcmp>
    7f00:	000b8593          	addi	x11,x23,0
    7f04:	00050a93          	addi	x21,x10,0
    7f08:	000a0613          	addi	x12,x20,0
    7f0c:	00040513          	addi	x10,x8,0
    7f10:	610020ef          	jal	x1,a520 <__mdiff>
    7f14:	030b0d93          	addi	x27,x22,48
    7f18:	00050593          	addi	x11,x10,0
    7f1c:	1e050c63          	beq	x10,x0,8114 <__gdtoa+0x860>
    7f20:	00c52783          	lw	x15,12(x10)
    7f24:	f00798e3          	bne	x15,x0,7e34 <__gdtoa+0x580>
    7f28:	00a12823          	sw	x10,16(x2)
    7f2c:	00048513          	addi	x10,x9,0
    7f30:	598020ef          	jal	x1,a4c8 <__mcmp>
    7f34:	01012583          	lw	x11,16(x2)
    7f38:	00050793          	addi	x15,x10,0
    7f3c:	00040513          	addi	x10,x8,0
    7f40:	00f12823          	sw	x15,16(x2)
    7f44:	2f1010ef          	jal	x1,9a34 <_Bfree>
    7f48:	01012783          	lw	x15,16(x2)
    7f4c:	00fce733          	or	x14,x25,x15
    7f50:	00070463          	beq	x14,x0,7f58 <__gdtoa+0x6a4>
    7f54:	4800106f          	jal	x0,93d4 <__gdtoa+0x1b20>
    7f58:	00092783          	lw	x15,0(x18)
    7f5c:	0017f793          	andi	x15,x15,1
    7f60:	060790e3          	bne	x15,x0,87c0 <__gdtoa+0xf0c>
    7f64:	02812783          	lw	x15,40(x2)
    7f68:	00079463          	bne	x15,x0,7f70 <__gdtoa+0x6bc>
    7f6c:	3580106f          	jal	x0,92c4 <__gdtoa+0x1a10>
    7f70:	ef504ee3          	blt	x0,x21,7e6c <__gdtoa+0x5b8>
    7f74:	0104a683          	lw	x13,16(x9)
    7f78:	00100793          	addi	x15,x0,1
    7f7c:	01812f03          	lw	x30,24(x2)
    7f80:	01c12d03          	lw	x26,28(x2)
    7f84:	00070c93          	addi	x25,x14,0
    7f88:	00d7c463          	blt	x15,x13,7f90 <__gdtoa+0x6dc>
    7f8c:	4140106f          	jal	x0,93a0 <__gdtoa+0x1aec>
    7f90:	02812703          	lw	x14,40(x2)
    7f94:	00200793          	addi	x15,x0,2
    7f98:	000f0b13          	addi	x22,x30,0
    7f9c:	02f71463          	bne	x14,x15,7fc4 <__gdtoa+0x710>
    7fa0:	3d40106f          	jal	x0,9374 <__gdtoa+0x1ac0>
    7fa4:	2b5010ef          	jal	x1,9a58 <__multadd>
    7fa8:	000b8593          	addi	x11,x23,0
    7fac:	00050493          	addi	x9,x10,0
    7fb0:	16050263          	beq	x10,x0,8114 <__gdtoa+0x860>
    7fb4:	5a4010ef          	jal	x1,9558 <__quorem_D2A>
    7fb8:	03050d93          	addi	x27,x10,48
    7fbc:	00090c13          	addi	x24,x18,0
    7fc0:	000a8a13          	addi	x20,x21,0
    7fc4:	000a0593          	addi	x11,x20,0
    7fc8:	000b8513          	addi	x10,x23,0
    7fcc:	4fc020ef          	jal	x1,a4c8 <__mcmp>
    7fd0:	00050793          	addi	x15,x10,0
    7fd4:	00000693          	addi	x13,x0,0
    7fd8:	00a00613          	addi	x12,x0,10
    7fdc:	000a0593          	addi	x11,x20,0
    7fe0:	00040513          	addi	x10,x8,0
    7fe4:	001c0913          	addi	x18,x24,1
    7fe8:	00f04463          	blt	x0,x15,7ff0 <__gdtoa+0x73c>
    7fec:	3700106f          	jal	x0,935c <__gdtoa+0x1aa8>
    7ff0:	ffb90fa3          	sb	x27,-1(x18)
    7ff4:	265010ef          	jal	x1,9a58 <__multadd>
    7ff8:	00050a93          	addi	x21,x10,0
    7ffc:	00000693          	addi	x13,x0,0
    8000:	00a00613          	addi	x12,x0,10
    8004:	00048593          	addi	x11,x9,0
    8008:	00040513          	addi	x10,x8,0
    800c:	100a8463          	beq	x21,x0,8114 <__gdtoa+0x860>
    8010:	f9499ae3          	bne	x19,x20,7fa4 <__gdtoa+0x6f0>
    8014:	000a8993          	addi	x19,x21,0
    8018:	f8dff06f          	jal	x0,7fa4 <__gdtoa+0x6f0>
    801c:	00400793          	addi	x15,x0,4
    8020:	10f31c63          	bne	x6,x15,8138 <__gdtoa+0x884>
    8024:	00812703          	lw	x14,8(x2)
    8028:	00c12603          	lw	x12,12(x2)
    802c:	0a412c83          	lw	x25,164(x2)
    8030:	0cc12083          	lw	x1,204(x2)
    8034:	0b012b03          	lw	x22,176(x2)
    8038:	0a012d03          	lw	x26,160(x2)
    803c:	ffff87b7          	lui	x15,0xffff8
    8040:	00f72023          	sw	x15,0(x14)
    8044:	000125b7          	lui	x11,0x12
    8048:	00300693          	addi	x13,x0,3
    804c:	f3458593          	addi	x11,x11,-204 # 11f34 <__clzsi2+0x344>
    8050:	0d010113          	addi	x2,x2,208
    8054:	4380106f          	jal	x0,948c <__nrv_alloc_D2A>
    8058:	00048593          	addi	x11,x9,0
    805c:	00040513          	addi	x10,x8,0
    8060:	1d5010ef          	jal	x1,9a34 <_Bfree>
    8064:	0c412483          	lw	x9,196(x2)
    8068:	0c012903          	lw	x18,192(x2)
    806c:	0bc12983          	lw	x19,188(x2)
    8070:	0b412a83          	lw	x21,180(x2)
    8074:	0ac12b83          	lw	x23,172(x2)
    8078:	0a812c03          	lw	x24,168(x2)
    807c:	09c12d83          	lw	x27,156(x2)
    8080:	00812703          	lw	x14,8(x2)
    8084:	00c12603          	lw	x12,12(x2)
    8088:	00100793          	addi	x15,x0,1
    808c:	000125b7          	lui	x11,0x12
    8090:	00040513          	addi	x10,x8,0
    8094:	00f72023          	sw	x15,0(x14)
    8098:	00100693          	addi	x13,x0,1
    809c:	f1458593          	addi	x11,x11,-236 # 11f14 <__clzsi2+0x324>
    80a0:	3ec010ef          	jal	x1,948c <__nrv_alloc_D2A>
    80a4:	0c812403          	lw	x8,200(x2)
    80a8:	00050f13          	addi	x30,x10,0
    80ac:	0cc12083          	lw	x1,204(x2)
    80b0:	0a412c83          	lw	x25,164(x2)
    80b4:	0b012b03          	lw	x22,176(x2)
    80b8:	0a012d03          	lw	x26,160(x2)
    80bc:	000f0513          	addi	x10,x30,0
    80c0:	0d010113          	addi	x2,x2,208
    80c4:	00008067          	jalr	x0,0(x1)
    80c8:	00812703          	lw	x14,8(x2)
    80cc:	00c12603          	lw	x12,12(x2)
    80d0:	0cc12083          	lw	x1,204(x2)
    80d4:	0b012b03          	lw	x22,176(x2)
    80d8:	0a012d03          	lw	x26,160(x2)
    80dc:	ffff87b7          	lui	x15,0xffff8
    80e0:	00f72023          	sw	x15,0(x14)
    80e4:	000125b7          	lui	x11,0x12
    80e8:	00800693          	addi	x13,x0,8
    80ec:	f2858593          	addi	x11,x11,-216 # 11f28 <__clzsi2+0x338>
    80f0:	0d010113          	addi	x2,x2,208
    80f4:	3980106f          	jal	x0,948c <__nrv_alloc_D2A>
    80f8:	000b8593          	addi	x11,x23,0
    80fc:	00040513          	addi	x10,x8,0
    8100:	03e12023          	sw	x30,32(x2)
    8104:	234020ef          	jal	x1,a338 <__lshift>
    8108:	02012f03          	lw	x30,32(x2)
    810c:	00050b93          	addi	x23,x10,0
    8110:	cc051ee3          	bne	x10,x0,7dec <__gdtoa+0x538>
    8114:	0c812403          	lw	x8,200(x2)
    8118:	0c412483          	lw	x9,196(x2)
    811c:	0c012903          	lw	x18,192(x2)
    8120:	0bc12983          	lw	x19,188(x2)
    8124:	0b812a03          	lw	x20,184(x2)
    8128:	0b412a83          	lw	x21,180(x2)
    812c:	0ac12b83          	lw	x23,172(x2)
    8130:	0a812c03          	lw	x24,168(x2)
    8134:	09c12d83          	lw	x27,156(x2)
    8138:	00000f13          	addi	x30,x0,0
    813c:	f71ff06f          	jal	x0,80ac <__gdtoa+0x7f8>
    8140:	0004a823          	sw	x0,16(x9)
    8144:	8a9ff06f          	jal	x0,79ec <__gdtoa+0x138>
    8148:	00100793          	addi	x15,x0,1
    814c:	04f12823          	sw	x15,80(x2)
    8150:	02012823          	sw	x0,48(x2)
    8154:	fffa0793          	addi	x15,x20,-1
    8158:	3a07c463          	blt	x15,x0,8500 <__gdtoa+0xc4c>
    815c:	01c12783          	lw	x15,28(x2)
    8160:	a407dae3          	bge	x15,x0,7bb4 <__gdtoa+0x300>
    8164:	01c12783          	lw	x15,28(x2)
    8168:	03012703          	lw	x14,48(x2)
    816c:	00012e23          	sw	x0,28(x2)
    8170:	02f12e23          	sw	x15,60(x2)
    8174:	40f70733          	sub	x14,x14,x15
    8178:	02e12823          	sw	x14,48(x2)
    817c:	40f00733          	sub	x14,x0,x15
    8180:	02e12c23          	sw	x14,56(x2)
    8184:	a49ff06f          	jal	x0,7bcc <__gdtoa+0x318>
    8188:	00050593          	addi	x11,x10,0
    818c:	00048513          	addi	x10,x9,0
    8190:	638010ef          	jal	x1,97c8 <__rshift_D2A>
    8194:	08c12683          	lw	x13,140(x2)
    8198:	015687b3          	add	x15,x13,x21
    819c:	02f12223          	sw	x15,36(x2)
    81a0:	40dc0c33          	sub	x24,x24,x13
    81a4:	85dff06f          	jal	x0,7a00 <__gdtoa+0x14c>
    81a8:	02812783          	lw	x15,40(x2)
    81ac:	00012823          	sw	x0,16(x2)
    81b0:	3fd78793          	addi	x15,x15,1021 # ffff83fd <__heap_end+0xffbf83fd>
    81b4:	7f87ba13          	sltiu	x20,x15,2040
    81b8:	000b8513          	addi	x10,x23,0
    81bc:	015060ef          	jal	x1,e9d0 <__floatsidf>
    81c0:	ed01a603          	lw	x12,-304(x3) # 13010 <__SDATA_BEGIN__+0x28>
    81c4:	ed41a683          	lw	x13,-300(x3) # 13014 <__SDATA_BEGIN__+0x2c>
    81c8:	131050ef          	jal	x1,daf8 <__muldf3>
    81cc:	784060ef          	jal	x1,e950 <__fixdfsi>
    81d0:	00100793          	addi	x15,x0,1
    81d4:	00350593          	addi	x11,x10,3
    81d8:	04f12023          	sw	x15,64(x2)
    81dc:	fff00793          	addi	x15,x0,-1
    81e0:	00058693          	addi	x13,x11,0
    81e4:	00012c23          	sw	x0,24(x2)
    81e8:	04f12a23          	sw	x15,84(x2)
    81ec:	02f12a23          	sw	x15,52(x2)
    81f0:	a51ff06f          	jal	x0,7c40 <__gdtoa+0x38c>
    81f4:	02812783          	lw	x15,40(x2)
    81f8:	00300693          	addi	x13,x0,3
    81fc:	40f687b3          	sub	x15,x13,x15
    8200:	02f12423          	sw	x15,40(x2)
    8204:	03412783          	lw	x15,52(x2)
    8208:	00e00693          	addi	x13,x0,14
    820c:	a6f6e2e3          	bltu	x13,x15,7c70 <__gdtoa+0x3bc>
    8210:	a60a00e3          	beq	x20,x0,7c70 <__gdtoa+0x3bc>
    8214:	03c12703          	lw	x14,60(x2)
    8218:	02812683          	lw	x13,40(x2)
    821c:	00d766b3          	or	x13,x14,x13
    8220:	a40698e3          	bne	x13,x0,7c70 <__gdtoa+0x3bc>
    8224:	05012703          	lw	x14,80(x2)
    8228:	08012623          	sw	x0,140(x2)
    822c:	05312c23          	sw	x19,88(x2)
    8230:	04412b03          	lw	x22,68(x2)
    8234:	02070263          	beq	x14,x0,8258 <__gdtoa+0x9a4>
    8238:	ed81a603          	lw	x12,-296(x3) # 13018 <__SDATA_BEGIN__+0x30>
    823c:	edc1a683          	lw	x13,-292(x3) # 1301c <__SDATA_BEGIN__+0x34>
    8240:	000b0513          	addi	x10,x22,0
    8244:	00098593          	addi	x11,x19,0
    8248:	03e12423          	sw	x30,40(x2)
    824c:	7d0050ef          	jal	x1,da1c <__ledf2>
    8250:	02812f03          	lw	x30,40(x2)
    8254:	66054ce3          	blt	x10,x0,90cc <__gdtoa+0x1818>
    8258:	04412783          	lw	x15,68(x2)
    825c:	03e12423          	sw	x30,40(x2)
    8260:	00078613          	addi	x12,x15,0
    8264:	00078513          	addi	x10,x15,0
    8268:	05812783          	lw	x15,88(x2)
    826c:	00078693          	addi	x13,x15,0
    8270:	00078593          	addi	x11,x15,0
    8274:	6cc040ef          	jal	x1,c940 <__adddf3>
    8278:	ef01a603          	lw	x12,-272(x3) # 13030 <__SDATA_BEGIN__+0x48>
    827c:	ef41a683          	lw	x13,-268(x3) # 13034 <__SDATA_BEGIN__+0x4c>
    8280:	6c0040ef          	jal	x1,c940 <__adddf3>
    8284:	fcc007b7          	lui	x15,0xfcc00
    8288:	00b78a33          	add	x20,x15,x11
    828c:	03412783          	lw	x15,52(x2)
    8290:	02812f03          	lw	x30,40(x2)
    8294:	00050713          	addi	x14,x10,0
    8298:	280782e3          	beq	x15,x0,8d1c <__gdtoa+0x1468>
    829c:	03412783          	lw	x15,52(x2)
    82a0:	04412e83          	lw	x29,68(x2)
    82a4:	05812803          	lw	x16,88(x2)
    82a8:	06012023          	sw	x0,96(x2)
    82ac:	04f12e23          	sw	x15,92(x2)
    82b0:	05c12683          	lw	x13,92(x2)
    82b4:	000127b7          	lui	x15,0x12
    82b8:	04012583          	lw	x11,64(x2)
    82bc:	fff68693          	addi	x13,x13,-1
    82c0:	58078613          	addi	x12,x15,1408 # 12580 <__mprec_tens>
    82c4:	00369693          	slli	x13,x13,0x3
    82c8:	00c686b3          	add	x13,x13,x12
    82cc:	07012223          	sw	x16,100(x2)
    82d0:	03d12423          	sw	x29,40(x2)
    82d4:	0006a603          	lw	x12,0(x13)
    82d8:	0046a683          	lw	x13,4(x13)
    82dc:	42058ce3          	beq	x11,x0,8f14 <__gdtoa+0x1660>
    82e0:	f001a503          	lw	x10,-256(x3) # 13040 <__SDATA_BEGIN__+0x58>
    82e4:	f041a583          	lw	x11,-252(x3) # 13044 <__SDATA_BEGIN__+0x5c>
    82e8:	06f12e23          	sw	x15,124(x2)
    82ec:	001f0b13          	addi	x22,x30,1
    82f0:	07e12a23          	sw	x30,116(x2)
    82f4:	04e12423          	sw	x14,72(x2)
    82f8:	5dd040ef          	jal	x1,d0d4 <__divdf3>
    82fc:	04812703          	lw	x14,72(x2)
    8300:	000a0693          	addi	x13,x20,0
    8304:	00070613          	addi	x12,x14,0
    8308:	6a1050ef          	jal	x1,e1a8 <__subdf3>
    830c:	02812e83          	lw	x29,40(x2)
    8310:	06412803          	lw	x16,100(x2)
    8314:	00050613          	addi	x12,x10,0
    8318:	00058693          	addi	x13,x11,0
    831c:	000e8513          	addi	x10,x29,0
    8320:	00080593          	addi	x11,x16,0
    8324:	07d12423          	sw	x29,104(x2)
    8328:	05012423          	sw	x16,72(x2)
    832c:	06c12623          	sw	x12,108(x2)
    8330:	06d12823          	sw	x13,112(x2)
    8334:	61c060ef          	jal	x1,e950 <__fixdfsi>
    8338:	02a12423          	sw	x10,40(x2)
    833c:	694060ef          	jal	x1,e9d0 <__floatsidf>
    8340:	06812e83          	lw	x29,104(x2)
    8344:	04812803          	lw	x16,72(x2)
    8348:	00050613          	addi	x12,x10,0
    834c:	00058693          	addi	x13,x11,0
    8350:	000e8513          	addi	x10,x29,0
    8354:	00080593          	addi	x11,x16,0
    8358:	651050ef          	jal	x1,e1a8 <__subdf3>
    835c:	02812e03          	lw	x28,40(x2)
    8360:	07412f03          	lw	x30,116(x2)
    8364:	00050613          	addi	x12,x10,0
    8368:	00058693          	addi	x13,x11,0
    836c:	00050a13          	addi	x20,x10,0
    8370:	00058993          	addi	x19,x11,0
    8374:	06c12503          	lw	x10,108(x2)
    8378:	07012583          	lw	x11,112(x2)
    837c:	030e0e13          	addi	x28,x28,48
    8380:	01cf0023          	sb	x28,0(x30)
    8384:	03e12423          	sw	x30,40(x2)
    8388:	5b8050ef          	jal	x1,d940 <__gedf2>
    838c:	02812f03          	lw	x30,40(x2)
    8390:	68a042e3          	blt	x0,x10,9214 <__gdtoa+0x1960>
    8394:	ed81a783          	lw	x15,-296(x3) # 13018 <__SDATA_BEGIN__+0x30>
    8398:	edc1a803          	lw	x16,-292(x3) # 1301c <__SDATA_BEGIN__+0x34>
    839c:	04f12423          	sw	x15,72(x2)
    83a0:	05012623          	sw	x16,76(x2)
    83a4:	ee01a783          	lw	x15,-288(x3) # 13020 <__SDATA_BEGIN__+0x38>
    83a8:	ee41a803          	lw	x16,-284(x3) # 13024 <__SDATA_BEGIN__+0x3c>
    83ac:	06912223          	sw	x9,100(x2)
    83b0:	07712a23          	sw	x23,116(x2)
    83b4:	07812c23          	sw	x24,120(x2)
    83b8:	06c12483          	lw	x9,108(x2)
    83bc:	05c12c03          	lw	x24,92(x2)
    83c0:	07012b83          	lw	x23,112(x2)
    83c4:	02f12423          	sw	x15,40(x2)
    83c8:	03012623          	sw	x16,44(x2)
    83cc:	05e12e23          	sw	x30,92(x2)
    83d0:	06812423          	sw	x8,104(x2)
    83d4:	0800006f          	jal	x0,8454 <__gdtoa+0xba0>
    83d8:	08c12783          	lw	x15,140(x2)
    83dc:	00178793          	addi	x15,x15,1
    83e0:	08f12623          	sw	x15,140(x2)
    83e4:	6b87d6e3          	bge	x15,x24,9290 <__gdtoa+0x19dc>
    83e8:	710050ef          	jal	x1,daf8 <__muldf3>
    83ec:	02812603          	lw	x12,40(x2)
    83f0:	02c12683          	lw	x13,44(x2)
    83f4:	00050493          	addi	x9,x10,0
    83f8:	00058b93          	addi	x23,x11,0
    83fc:	000a0513          	addi	x10,x20,0
    8400:	00098593          	addi	x11,x19,0
    8404:	6f4050ef          	jal	x1,daf8 <__muldf3>
    8408:	00058a13          	addi	x20,x11,0
    840c:	00050413          	addi	x8,x10,0
    8410:	540060ef          	jal	x1,e950 <__fixdfsi>
    8414:	00050993          	addi	x19,x10,0
    8418:	5b8060ef          	jal	x1,e9d0 <__floatsidf>
    841c:	00050613          	addi	x12,x10,0
    8420:	00058693          	addi	x13,x11,0
    8424:	00040513          	addi	x10,x8,0
    8428:	000a0593          	addi	x11,x20,0
    842c:	57d050ef          	jal	x1,e1a8 <__subdf3>
    8430:	03098793          	addi	x15,x19,48
    8434:	00048613          	addi	x12,x9,0
    8438:	000b8693          	addi	x13,x23,0
    843c:	00fb0023          	sb	x15,0(x22)
    8440:	001b0b13          	addi	x22,x22,1
    8444:	00050a13          	addi	x20,x10,0
    8448:	00058993          	addi	x19,x11,0
    844c:	5d0050ef          	jal	x1,da1c <__ledf2>
    8450:	5a054ce3          	blt	x10,x0,9208 <__gdtoa+0x1954>
    8454:	04812503          	lw	x10,72(x2)
    8458:	04c12583          	lw	x11,76(x2)
    845c:	000a0613          	addi	x12,x20,0
    8460:	00098693          	addi	x13,x19,0
    8464:	545050ef          	jal	x1,e1a8 <__subdf3>
    8468:	00050613          	addi	x12,x10,0
    846c:	00058693          	addi	x13,x11,0
    8470:	00048513          	addi	x10,x9,0
    8474:	000b8593          	addi	x11,x23,0
    8478:	4c8050ef          	jal	x1,d940 <__gedf2>
    847c:	00050793          	addi	x15,x10,0
    8480:	02812603          	lw	x12,40(x2)
    8484:	02c12683          	lw	x13,44(x2)
    8488:	00048513          	addi	x10,x9,0
    848c:	000b8593          	addi	x11,x23,0
    8490:	f4f054e3          	bge	x0,x15,83d8 <__gdtoa+0xb24>
    8494:	06012783          	lw	x15,96(x2)
    8498:	06412483          	lw	x9,100(x2)
    849c:	05c12f03          	lw	x30,92(x2)
    84a0:	06812403          	lw	x8,104(x2)
    84a4:	fffb4b83          	lbu	x23,-1(x22)
    84a8:	00178d93          	addi	x27,x15,1
    84ac:	03900693          	addi	x13,x0,57
    84b0:	0100006f          	jal	x0,84c0 <__gdtoa+0xc0c>
    84b4:	24ff0ae3          	beq	x30,x15,8f08 <__gdtoa+0x1654>
    84b8:	fff7cb83          	lbu	x23,-1(x15)
    84bc:	00078b13          	addi	x22,x15,0
    84c0:	fffb0793          	addi	x15,x22,-1
    84c4:	fedb88e3          	beq	x23,x13,84b4 <__gdtoa+0xc00>
    84c8:	001b8693          	addi	x13,x23,1
    84cc:	0ff6f693          	andi	x13,x13,255
    84d0:	00d78023          	sb	x13,0(x15)
    84d4:	000d8b93          	addi	x23,x27,0
    84d8:	02000c93          	addi	x25,x0,32
    84dc:	2100006f          	jal	x0,86ec <__gdtoa+0xe38>
    84e0:	0c812403          	lw	x8,200(x2)
    84e4:	0c412483          	lw	x9,196(x2)
    84e8:	0c012903          	lw	x18,192(x2)
    84ec:	0b412a83          	lw	x21,180(x2)
    84f0:	0ac12b83          	lw	x23,172(x2)
    84f4:	09c12d83          	lw	x27,156(x2)
    84f8:	00000f13          	addi	x30,x0,0
    84fc:	bb1ff06f          	jal	x0,80ac <__gdtoa+0x7f8>
    8500:	00100693          	addi	x13,x0,1
    8504:	414687b3          	sub	x15,x13,x20
    8508:	02f12823          	sw	x15,48(x2)
    850c:	02012023          	sw	x0,32(x2)
    8510:	c4dff06f          	jal	x0,815c <__gdtoa+0x8a8>
    8514:	03812b03          	lw	x22,56(x2)
    8518:	03012a03          	lw	x20,48(x2)
    851c:	00000993          	addi	x19,x0,0
    8520:	ffcff06f          	jal	x0,7d1c <__gdtoa+0x468>
    8524:	00200793          	addi	x15,x0,2
    8528:	02f12423          	sw	x15,40(x2)
    852c:	f3cff06f          	jal	x0,7c68 <__gdtoa+0x3b4>
    8530:	01c12783          	lw	x15,28(x2)
    8534:	04012823          	sw	x0,80(x2)
    8538:	fff78793          	addi	x15,x15,-1
    853c:	00f12e23          	sw	x15,28(x2)
    8540:	c11ff06f          	jal	x0,8150 <__gdtoa+0x89c>
    8544:	ffc78793          	addi	x15,x15,-4
    8548:	00f12823          	sw	x15,16(x2)
    854c:	00400613          	addi	x12,x0,4
    8550:	22c78863          	beq	x15,x12,8780 <__gdtoa+0xecc>
    8554:	6ed78063          	beq	x15,x13,8c34 <__gdtoa+0x1380>
    8558:	00200693          	addi	x13,x0,2
    855c:	04012023          	sw	x0,64(x2)
    8560:	00000a13          	addi	x20,x0,0
    8564:	22d78463          	beq	x15,x13,878c <__gdtoa+0xed8>
    8568:	00300793          	addi	x15,x0,3
    856c:	00f12823          	sw	x15,16(x2)
    8570:	eacff06f          	jal	x0,7c1c <__gdtoa+0x368>
    8574:	000126b7          	lui	x13,0x12
    8578:	00379793          	slli	x15,x15,0x3
    857c:	58068693          	addi	x13,x13,1408 # 12580 <__mprec_tens>
    8580:	00d787b3          	add	x15,x15,x13
    8584:	0007aa03          	lw	x20,0(x15)
    8588:	0047aa83          	lw	x21,4(x15)
    858c:	01812783          	lw	x15,24(x2)
    8590:	5407c263          	blt	x15,x0,8ad4 <__gdtoa+0x1220>
    8594:	04812b03          	lw	x22,72(x2)
    8598:	00100793          	addi	x15,x0,1
    859c:	000a0613          	addi	x12,x20,0
    85a0:	000a8693          	addi	x13,x21,0
    85a4:	000b0513          	addi	x10,x22,0
    85a8:	00098593          	addi	x11,x19,0
    85ac:	01e12823          	sw	x30,16(x2)
    85b0:	08f12623          	sw	x15,140(x2)
    85b4:	321040ef          	jal	x1,d0d4 <__divdf3>
    85b8:	398060ef          	jal	x1,e950 <__fixdfsi>
    85bc:	00050913          	addi	x18,x10,0
    85c0:	410060ef          	jal	x1,e9d0 <__floatsidf>
    85c4:	000a0613          	addi	x12,x20,0
    85c8:	000a8693          	addi	x13,x21,0
    85cc:	52c050ef          	jal	x1,daf8 <__muldf3>
    85d0:	00050613          	addi	x12,x10,0
    85d4:	00058693          	addi	x13,x11,0
    85d8:	000b0513          	addi	x10,x22,0
    85dc:	00098593          	addi	x11,x19,0
    85e0:	3c9050ef          	jal	x1,e1a8 <__subdf3>
    85e4:	01012f03          	lw	x30,16(x2)
    85e8:	03c12703          	lw	x14,60(x2)
    85ec:	03090793          	addi	x15,x18,48
    85f0:	00ff0023          	sb	x15,0(x30)
    85f4:	00000613          	addi	x12,x0,0
    85f8:	00000693          	addi	x13,x0,0
    85fc:	00170d93          	addi	x27,x14,1
    8600:	001f0b13          	addi	x22,x30,1
    8604:	00050c13          	addi	x24,x10,0
    8608:	00058993          	addi	x19,x11,0
    860c:	2a8050ef          	jal	x1,d8b4 <__eqdf2>
    8610:	01012f03          	lw	x30,16(x2)
    8614:	000d8b93          	addi	x23,x27,0
    8618:	0c050a63          	beq	x10,x0,86ec <__gdtoa+0xe38>
    861c:	ee41a803          	lw	x16,-284(x3) # 13024 <__SDATA_BEGIN__+0x3c>
    8620:	ee01a783          	lw	x15,-288(x3) # 13020 <__SDATA_BEGIN__+0x38>
    8624:	01912e23          	sw	x25,28(x2)
    8628:	01b12c23          	sw	x27,24(x2)
    862c:	03412c83          	lw	x25,52(x2)
    8630:	000c0d93          	addi	x27,x24,0
    8634:	00f12823          	sw	x15,16(x2)
    8638:	00098c13          	addi	x24,x19,0
    863c:	01012a23          	sw	x16,20(x2)
    8640:	000f0993          	addi	x19,x30,0
    8644:	0700006f          	jal	x0,86b4 <__gdtoa+0xe00>
    8648:	09112623          	sw	x17,140(x2)
    864c:	4ac050ef          	jal	x1,daf8 <__muldf3>
    8650:	000a0613          	addi	x12,x20,0
    8654:	000a8693          	addi	x13,x21,0
    8658:	00050d93          	addi	x27,x10,0
    865c:	00058c13          	addi	x24,x11,0
    8660:	275040ef          	jal	x1,d0d4 <__divdf3>
    8664:	2ec060ef          	jal	x1,e950 <__fixdfsi>
    8668:	00050913          	addi	x18,x10,0
    866c:	364060ef          	jal	x1,e9d0 <__floatsidf>
    8670:	000a0613          	addi	x12,x20,0
    8674:	000a8693          	addi	x13,x21,0
    8678:	480050ef          	jal	x1,daf8 <__muldf3>
    867c:	00050613          	addi	x12,x10,0
    8680:	00058693          	addi	x13,x11,0
    8684:	000d8513          	addi	x10,x27,0
    8688:	000c0593          	addi	x11,x24,0
    868c:	31d050ef          	jal	x1,e1a8 <__subdf3>
    8690:	001b0b13          	addi	x22,x22,1
    8694:	03090793          	addi	x15,x18,48
    8698:	fefb0fa3          	sb	x15,-1(x22)
    869c:	00000613          	addi	x12,x0,0
    86a0:	00000693          	addi	x13,x0,0
    86a4:	00050d93          	addi	x27,x10,0
    86a8:	00058c13          	addi	x24,x11,0
    86ac:	208050ef          	jal	x1,d8b4 <__eqdf2>
    86b0:	40050c63          	beq	x10,x0,8ac8 <__gdtoa+0x1214>
    86b4:	08c12803          	lw	x16,140(x2)
    86b8:	01012603          	lw	x12,16(x2)
    86bc:	01412683          	lw	x13,20(x2)
    86c0:	000d8513          	addi	x10,x27,0
    86c4:	000c0593          	addi	x11,x24,0
    86c8:	00180893          	addi	x17,x16,1
    86cc:	f7981ee3          	bne	x16,x25,8648 <__gdtoa+0xd94>
    86d0:	02812703          	lw	x14,40(x2)
    86d4:	01812d83          	lw	x27,24(x2)
    86d8:	00098f13          	addi	x30,x19,0
    86dc:	7a070a63          	beq	x14,x0,8e90 <__gdtoa+0x15dc>
    86e0:	00100793          	addi	x15,x0,1
    86e4:	01000c93          	addi	x25,x0,16
    86e8:	1cf70ee3          	beq	x14,x15,90c4 <__gdtoa+0x1810>
    86ec:	00048593          	addi	x11,x9,0
    86f0:	00040513          	addi	x10,x8,0
    86f4:	01e12823          	sw	x30,16(x2)
    86f8:	33c010ef          	jal	x1,9a34 <_Bfree>
    86fc:	00812783          	lw	x15,8(x2)
    8700:	000b0023          	sb	x0,0(x22)
    8704:	01012f03          	lw	x30,16(x2)
    8708:	0177a023          	sw	x23,0(x15)
    870c:	00c12783          	lw	x15,12(x2)
    8710:	00078463          	beq	x15,x0,8718 <__gdtoa+0xe64>
    8714:	0167a023          	sw	x22,0(x15)
    8718:	000d2783          	lw	x15,0(x26)
    871c:	0c812403          	lw	x8,200(x2)
    8720:	0c412483          	lw	x9,196(x2)
    8724:	0197e7b3          	or	x15,x15,x25
    8728:	0c012903          	lw	x18,192(x2)
    872c:	0bc12983          	lw	x19,188(x2)
    8730:	0b812a03          	lw	x20,184(x2)
    8734:	0b412a83          	lw	x21,180(x2)
    8738:	0ac12b83          	lw	x23,172(x2)
    873c:	0a812c03          	lw	x24,168(x2)
    8740:	09c12d83          	lw	x27,156(x2)
    8744:	00fd2023          	sw	x15,0(x26)
    8748:	965ff06f          	jal	x0,80ac <__gdtoa+0x7f8>
    874c:	e6dc1663          	bne	x24,x13,7db8 <__gdtoa+0x504>
    8750:	004da783          	lw	x15,4(x27)
    8754:	00178793          	addi	x15,x15,1
    8758:	e757d063          	bge	x15,x21,7db8 <__gdtoa+0x504>
    875c:	03012783          	lw	x15,48(x2)
    8760:	00178793          	addi	x15,x15,1
    8764:	02f12823          	sw	x15,48(x2)
    8768:	02012783          	lw	x15,32(x2)
    876c:	00178793          	addi	x15,x15,1
    8770:	02f12023          	sw	x15,32(x2)
    8774:	00100793          	addi	x15,x0,1
    8778:	00f12e23          	sw	x15,28(x2)
    877c:	e3cff06f          	jal	x0,7db8 <__gdtoa+0x504>
    8780:	00100793          	addi	x15,x0,1
    8784:	00000a13          	addi	x20,x0,0
    8788:	04f12023          	sw	x15,64(x2)
    878c:	01812583          	lw	x11,24(x2)
    8790:	00b04463          	blt	x0,x11,8798 <__gdtoa+0xee4>
    8794:	00100593          	addi	x11,x0,1
    8798:	00058693          	addi	x13,x11,0
    879c:	04b12a23          	sw	x11,84(x2)
    87a0:	02b12a23          	sw	x11,52(x2)
    87a4:	00b12c23          	sw	x11,24(x2)
    87a8:	c98ff06f          	jal	x0,7c40 <__gdtoa+0x38c>
    87ac:	2ac010ef          	jal	x1,9a58 <__multadd>
    87b0:	00050993          	addi	x19,x10,0
    87b4:	960500e3          	beq	x10,x0,8114 <__gdtoa+0x860>
    87b8:	00050a13          	addi	x20,x10,0
    87bc:	f1cff06f          	jal	x0,7ed8 <__gdtoa+0x624>
    87c0:	ea0ad663          	bge	x21,x0,7e6c <__gdtoa+0x5b8>
    87c4:	02812783          	lw	x15,40(x2)
    87c8:	01812f03          	lw	x30,24(x2)
    87cc:	01c12d03          	lw	x26,28(x2)
    87d0:	00070c93          	addi	x25,x14,0
    87d4:	3a079ee3          	bne	x15,x0,9390 <__gdtoa+0x1adc>
    87d8:	0104a683          	lw	x13,16(x9)
    87dc:	00100793          	addi	x15,x0,1
    87e0:	01000c93          	addi	x25,x0,16
    87e4:	001c0913          	addi	x18,x24,1
    87e8:	34d7d0e3          	bge	x15,x13,9328 <__gdtoa+0x1a74>
    87ec:	00098a93          	addi	x21,x19,0
    87f0:	00090b13          	addi	x22,x18,0
    87f4:	01bc0023          	sb	x27,0(x24)
    87f8:	000a0993          	addi	x19,x20,0
    87fc:	000b8593          	addi	x11,x23,0
    8800:	00040513          	addi	x10,x8,0
    8804:	01e12823          	sw	x30,16(x2)
    8808:	22c010ef          	jal	x1,9a34 <_Bfree>
    880c:	03c12783          	lw	x15,60(x2)
    8810:	01012f03          	lw	x30,16(x2)
    8814:	00178b93          	addi	x23,x15,1
    8818:	ec098ae3          	beq	x19,x0,86ec <__gdtoa+0xe38>
    881c:	000a8c63          	beq	x21,x0,8834 <__gdtoa+0xf80>
    8820:	013a8a63          	beq	x21,x19,8834 <__gdtoa+0xf80>
    8824:	000a8593          	addi	x11,x21,0
    8828:	00040513          	addi	x10,x8,0
    882c:	208010ef          	jal	x1,9a34 <_Bfree>
    8830:	01012f03          	lw	x30,16(x2)
    8834:	00098593          	addi	x11,x19,0
    8838:	00040513          	addi	x10,x8,0
    883c:	01e12823          	sw	x30,16(x2)
    8840:	1f4010ef          	jal	x1,9a34 <_Bfree>
    8844:	01012f03          	lw	x30,16(x2)
    8848:	ea5ff06f          	jal	x0,86ec <__gdtoa+0xe38>
    884c:	00048593          	addi	x11,x9,0
    8850:	00040513          	addi	x10,x8,0
    8854:	03e12223          	sw	x30,36(x2)
    8858:	2e1010ef          	jal	x1,a338 <__lshift>
    885c:	00050493          	addi	x9,x10,0
    8860:	8a050ae3          	beq	x10,x0,8114 <__gdtoa+0x860>
    8864:	08c12783          	lw	x15,140(x2)
    8868:	02412f03          	lw	x30,36(x2)
    886c:	d74ff06f          	jal	x0,7de0 <__gdtoa+0x52c>
    8870:	000b8593          	addi	x11,x23,0
    8874:	00048513          	addi	x10,x9,0
    8878:	03e12023          	sw	x30,32(x2)
    887c:	44d010ef          	jal	x1,a4c8 <__mcmp>
    8880:	02012f03          	lw	x30,32(x2)
    8884:	d6055863          	bge	x10,x0,7df4 <__gdtoa+0x540>
    8888:	03c12783          	lw	x15,60(x2)
    888c:	00048593          	addi	x11,x9,0
    8890:	00000693          	addi	x13,x0,0
    8894:	fff78793          	addi	x15,x15,-1
    8898:	00a00613          	addi	x12,x0,10
    889c:	00040513          	addi	x10,x8,0
    88a0:	02f12e23          	sw	x15,60(x2)
    88a4:	1b4010ef          	jal	x1,9a58 <__multadd>
    88a8:	00050493          	addi	x9,x10,0
    88ac:	860504e3          	beq	x10,x0,8114 <__gdtoa+0x860>
    88b0:	04012783          	lw	x15,64(x2)
    88b4:	02012f03          	lw	x30,32(x2)
    88b8:	100792e3          	bne	x15,x0,91bc <__gdtoa+0x1908>
    88bc:	05412783          	lw	x15,84(x2)
    88c0:	1ef05863          	bge	x0,x15,8ab0 <__gdtoa+0x11fc>
    88c4:	02f12a23          	sw	x15,52(x2)
    88c8:	03412903          	lw	x18,52(x2)
    88cc:	000f0c13          	addi	x24,x30,0
    88d0:	00100793          	addi	x15,x0,1
    88d4:	000f0a13          	addi	x20,x30,0
    88d8:	0180006f          	jal	x0,88f0 <__gdtoa+0x103c>
    88dc:	17c010ef          	jal	x1,9a58 <__multadd>
    88e0:	00050493          	addi	x9,x10,0
    88e4:	820508e3          	beq	x10,x0,8114 <__gdtoa+0x860>
    88e8:	08c12783          	lw	x15,140(x2)
    88ec:	00178793          	addi	x15,x15,1
    88f0:	000b8593          	addi	x11,x23,0
    88f4:	00048513          	addi	x10,x9,0
    88f8:	08f12623          	sw	x15,140(x2)
    88fc:	45d000ef          	jal	x1,9558 <__quorem_D2A>
    8900:	03050d93          	addi	x27,x10,48
    8904:	01bc0023          	sb	x27,0(x24)
    8908:	08c12783          	lw	x15,140(x2)
    890c:	00000693          	addi	x13,x0,0
    8910:	00a00613          	addi	x12,x0,10
    8914:	00048593          	addi	x11,x9,0
    8918:	00040513          	addi	x10,x8,0
    891c:	001c0c13          	addi	x24,x24,1
    8920:	fb27cee3          	blt	x15,x18,88dc <__gdtoa+0x1028>
    8924:	000a0f13          	addi	x30,x20,0
    8928:	00000a93          	addi	x21,x0,0
    892c:	02812703          	lw	x14,40(x2)
    8930:	48070463          	beq	x14,x0,8db8 <__gdtoa+0x1504>
    8934:	00200793          	addi	x15,x0,2
    8938:	0104a683          	lw	x13,16(x9)
    893c:	4af70a63          	beq	x14,x15,8df0 <__gdtoa+0x153c>
    8940:	00100793          	addi	x15,x0,1
    8944:	2ad7c263          	blt	x15,x13,8be8 <__gdtoa+0x1334>
    8948:	0144a783          	lw	x15,20(x9)
    894c:	28079e63          	bne	x15,x0,8be8 <__gdtoa+0x1334>
    8950:	00f037b3          	sltu	x15,x0,x15
    8954:	00479c93          	slli	x25,x15,0x4
    8958:	03000693          	addi	x13,x0,48
    895c:	fffc4783          	lbu	x15,-1(x24)
    8960:	000c0b13          	addi	x22,x24,0
    8964:	fffc0c13          	addi	x24,x24,-1
    8968:	fed78ae3          	beq	x15,x13,895c <__gdtoa+0x10a8>
    896c:	e91ff06f          	jal	x0,87fc <__gdtoa+0xf48>
    8970:	03412783          	lw	x15,52(x2)
    8974:	03812703          	lw	x14,56(x2)
    8978:	fff78693          	addi	x13,x15,-1
    897c:	1ad74863          	blt	x14,x13,8b2c <__gdtoa+0x1278>
    8980:	40d70b33          	sub	x22,x14,x13
    8984:	7c07d263          	bge	x15,x0,9148 <__gdtoa+0x1894>
    8988:	03012783          	lw	x15,48(x2)
    898c:	03412703          	lw	x14,52(x2)
    8990:	08012623          	sw	x0,140(x2)
    8994:	40e78a33          	sub	x20,x15,x14
    8998:	b68ff06f          	jal	x0,7d00 <__gdtoa+0x44c>
    899c:	01012703          	lw	x14,16(x2)
    89a0:	00200793          	addi	x15,x0,2
    89a4:	c4e7dc63          	bge	x15,x14,7dfc <__gdtoa+0x548>
    89a8:	000b8593          	addi	x11,x23,0
    89ac:	00000693          	addi	x13,x0,0
    89b0:	00500613          	addi	x12,x0,5
    89b4:	00040513          	addi	x10,x8,0
    89b8:	01e12823          	sw	x30,16(x2)
    89bc:	09c010ef          	jal	x1,9a58 <__multadd>
    89c0:	00050593          	addi	x11,x10,0
    89c4:	f4050863          	beq	x10,x0,8114 <__gdtoa+0x860>
    89c8:	03412783          	lw	x15,52(x2)
    89cc:	01012f03          	lw	x30,16(x2)
    89d0:	14079463          	bne	x15,x0,8b18 <__gdtoa+0x1264>
    89d4:	00a12823          	sw	x10,16(x2)
    89d8:	00048513          	addi	x10,x9,0
    89dc:	01e12e23          	sw	x30,28(x2)
    89e0:	2e9010ef          	jal	x1,a4c8 <__mcmp>
    89e4:	01012583          	lw	x11,16(x2)
    89e8:	01c12f03          	lw	x30,28(x2)
    89ec:	12a05663          	bge	x0,x10,8b18 <__gdtoa+0x1264>
    89f0:	03c12783          	lw	x15,60(x2)
    89f4:	00278b93          	addi	x23,x15,2
    89f8:	03100793          	addi	x15,x0,49
    89fc:	001f0b13          	addi	x22,x30,1
    8a00:	00ff0023          	sb	x15,0(x30)
    8a04:	02000c93          	addi	x25,x0,32
    8a08:	00040513          	addi	x10,x8,0
    8a0c:	01e12823          	sw	x30,16(x2)
    8a10:	024010ef          	jal	x1,9a34 <_Bfree>
    8a14:	01012f03          	lw	x30,16(x2)
    8a18:	cc098ae3          	beq	x19,x0,86ec <__gdtoa+0xe38>
    8a1c:	e19ff06f          	jal	x0,8834 <__gdtoa+0xf80>
    8a20:	00100693          	addi	x13,x0,1
    8a24:	00100593          	addi	x11,x0,1
    8a28:	a18ff06f          	jal	x0,7c40 <__gdtoa+0x38c>
    8a2c:	00050593          	addi	x11,x10,0
    8a30:	00078613          	addi	x12,x15,0
    8a34:	00040513          	addi	x10,x8,0
    8a38:	7b0010ef          	jal	x1,a1e8 <__pow5mult>
    8a3c:	00050b93          	addi	x23,x10,0
    8a40:	ec050a63          	beq	x10,x0,8114 <__gdtoa+0x860>
    8a44:	01012783          	lw	x15,16(x2)
    8a48:	00100693          	addi	x13,x0,1
    8a4c:	02412f03          	lw	x30,36(x2)
    8a50:	20f6da63          	bge	x13,x15,8c64 <__gdtoa+0x13b0>
    8a54:	010ba783          	lw	x15,16(x23)
    8a58:	03e12223          	sw	x30,36(x2)
    8a5c:	00378793          	addi	x15,x15,3
    8a60:	00279793          	slli	x15,x15,0x2
    8a64:	00fb87b3          	add	x15,x23,x15
    8a68:	0047a503          	lw	x10,4(x15)
    8a6c:	2ac010ef          	jal	x1,9d18 <__hi0bits>
    8a70:	02412f03          	lw	x30,36(x2)
    8a74:	00050a93          	addi	x21,x10,0
    8a78:	01912e23          	sw	x25,28(x2)
    8a7c:	b40ff06f          	jal	x0,7dbc <__gdtoa+0x508>
    8a80:	01012783          	lw	x15,16(x2)
    8a84:	00100693          	addi	x13,x0,1
    8a88:	eef6c4e3          	blt	x13,x15,8970 <__gdtoa+0x10bc>
    8a8c:	03012783          	lw	x15,48(x2)
    8a90:	02012703          	lw	x14,32(x2)
    8a94:	03812b03          	lw	x22,56(x2)
    8a98:	00078a13          	addi	x20,x15,0
    8a9c:	00c70733          	add	x14,x14,x12
    8aa0:	00f607b3          	add	x15,x12,x15
    8aa4:	02e12023          	sw	x14,32(x2)
    8aa8:	02f12823          	sw	x15,48(x2)
    8aac:	a54ff06f          	jal	x0,7d00 <__gdtoa+0x44c>
    8ab0:	01012703          	lw	x14,16(x2)
    8ab4:	00200793          	addi	x15,x0,2
    8ab8:	08e7cce3          	blt	x15,x14,9350 <__gdtoa+0x1a9c>
    8abc:	05412783          	lw	x15,84(x2)
    8ac0:	02f12a23          	sw	x15,52(x2)
    8ac4:	e05ff06f          	jal	x0,88c8 <__gdtoa+0x1014>
    8ac8:	01c12c83          	lw	x25,28(x2)
    8acc:	00098f13          	addi	x30,x19,0
    8ad0:	c1dff06f          	jal	x0,86ec <__gdtoa+0xe38>
    8ad4:	03412783          	lw	x15,52(x2)
    8ad8:	aaf04ee3          	blt	x0,x15,8594 <__gdtoa+0xce0>
    8adc:	02079a63          	bne	x15,x0,8b10 <__gdtoa+0x125c>
    8ae0:	ef81a603          	lw	x12,-264(x3) # 13038 <__SDATA_BEGIN__+0x50>
    8ae4:	efc1a683          	lw	x13,-260(x3) # 1303c <__SDATA_BEGIN__+0x54>
    8ae8:	000a0513          	addi	x10,x20,0
    8aec:	000a8593          	addi	x11,x21,0
    8af0:	01e12823          	sw	x30,16(x2)
    8af4:	004050ef          	jal	x1,daf8 <__muldf3>
    8af8:	04812883          	lw	x17,72(x2)
    8afc:	00098693          	addi	x13,x19,0
    8b00:	00088613          	addi	x12,x17,0
    8b04:	63d040ef          	jal	x1,d940 <__gedf2>
    8b08:	01012f03          	lw	x30,16(x2)
    8b0c:	68054e63          	blt	x10,x0,91a8 <__gdtoa+0x18f4>
    8b10:	00000593          	addi	x11,x0,0
    8b14:	00000993          	addi	x19,x0,0
    8b18:	01812783          	lw	x15,24(x2)
    8b1c:	000f0b13          	addi	x22,x30,0
    8b20:	01000c93          	addi	x25,x0,16
    8b24:	40f00bb3          	sub	x23,x0,x15
    8b28:	ee1ff06f          	jal	x0,8a08 <__gdtoa+0x1154>
    8b2c:	03812783          	lw	x15,56(x2)
    8b30:	03012703          	lw	x14,48(x2)
    8b34:	00000b13          	addi	x22,x0,0
    8b38:	40f68633          	sub	x12,x13,x15
    8b3c:	01c12783          	lw	x15,28(x2)
    8b40:	00070a13          	addi	x20,x14,0
    8b44:	02d12c23          	sw	x13,56(x2)
    8b48:	00c787b3          	add	x15,x15,x12
    8b4c:	00f12e23          	sw	x15,28(x2)
    8b50:	02012603          	lw	x12,32(x2)
    8b54:	03412783          	lw	x15,52(x2)
    8b58:	00f60633          	add	x12,x12,x15
    8b5c:	08f12623          	sw	x15,140(x2)
    8b60:	00f707b3          	add	x15,x14,x15
    8b64:	02c12023          	sw	x12,32(x2)
    8b68:	02f12823          	sw	x15,48(x2)
    8b6c:	994ff06f          	jal	x0,7d00 <__gdtoa+0x44c>
    8b70:	00098593          	addi	x11,x19,0
    8b74:	000b0613          	addi	x12,x22,0
    8b78:	00040513          	addi	x10,x8,0
    8b7c:	03e12223          	sw	x30,36(x2)
    8b80:	668010ef          	jal	x1,a1e8 <__pow5mult>
    8b84:	00050993          	addi	x19,x10,0
    8b88:	d8050663          	beq	x10,x0,8114 <__gdtoa+0x860>
    8b8c:	00050593          	addi	x11,x10,0
    8b90:	00048613          	addi	x12,x9,0
    8b94:	00040513          	addi	x10,x8,0
    8b98:	388010ef          	jal	x1,9f20 <__multiply>
    8b9c:	00050b93          	addi	x23,x10,0
    8ba0:	d6050a63          	beq	x10,x0,8114 <__gdtoa+0x860>
    8ba4:	00048593          	addi	x11,x9,0
    8ba8:	00040513          	addi	x10,x8,0
    8bac:	689000ef          	jal	x1,9a34 <_Bfree>
    8bb0:	03812783          	lw	x15,56(x2)
    8bb4:	02412f03          	lw	x30,36(x2)
    8bb8:	000b8493          	addi	x9,x23,0
    8bbc:	416787b3          	sub	x15,x15,x22
    8bc0:	02f12c23          	sw	x15,56(x2)
    8bc4:	9c078263          	beq	x15,x0,7d88 <__gdtoa+0x4d4>
    8bc8:	9a0ff06f          	jal	x0,7d68 <__gdtoa+0x4b4>
    8bcc:	00098a93          	addi	x21,x19,0
    8bd0:	000c0793          	addi	x15,x24,0
    8bd4:	001c0913          	addi	x18,x24,1
    8bd8:	000a0993          	addi	x19,x20,0
    8bdc:	03900693          	addi	x13,x0,57
    8be0:	00090c13          	addi	x24,x18,0
    8be4:	00d78023          	sb	x13,0(x15)
    8be8:	03900693          	addi	x13,x0,57
    8bec:	0080006f          	jal	x0,8bf4 <__gdtoa+0x1340>
    8bf0:	218f0c63          	beq	x30,x24,8e08 <__gdtoa+0x1554>
    8bf4:	fffc4783          	lbu	x15,-1(x24)
    8bf8:	000c0b13          	addi	x22,x24,0
    8bfc:	fffc0c13          	addi	x24,x24,-1
    8c00:	fed788e3          	beq	x15,x13,8bf0 <__gdtoa+0x133c>
    8c04:	00178793          	addi	x15,x15,1
    8c08:	00fc0023          	sb	x15,0(x24)
    8c0c:	02000c93          	addi	x25,x0,32
    8c10:	bedff06f          	jal	x0,87fc <__gdtoa+0xf48>
    8c14:	00098593          	addi	x11,x19,0
    8c18:	00040513          	addi	x10,x8,0
    8c1c:	01e12c23          	sw	x30,24(x2)
    8c20:	718010ef          	jal	x1,a338 <__lshift>
    8c24:	01812f03          	lw	x30,24(x2)
    8c28:	00050993          	addi	x19,x10,0
    8c2c:	9e051063          	bne	x10,x0,7e0c <__gdtoa+0x558>
    8c30:	ce4ff06f          	jal	x0,8114 <__gdtoa+0x860>
    8c34:	00100793          	addi	x15,x0,1
    8c38:	00000a13          	addi	x20,x0,0
    8c3c:	04f12023          	sw	x15,64(x2)
    8c40:	fddfe06f          	jal	x0,7c1c <__gdtoa+0x368>
    8c44:	00100793          	addi	x15,x0,1
    8c48:	04f12023          	sw	x15,64(x2)
    8c4c:	fd1fe06f          	jal	x0,7c1c <__gdtoa+0x368>
    8c50:	00100793          	addi	x15,x0,1
    8c54:	04f12023          	sw	x15,64(x2)
    8c58:	b35ff06f          	jal	x0,878c <__gdtoa+0xed8>
    8c5c:	04012023          	sw	x0,64(x2)
    8c60:	b2dff06f          	jal	x0,878c <__gdtoa+0xed8>
    8c64:	dedc18e3          	bne	x24,x13,8a54 <__gdtoa+0x11a0>
    8c68:	004da783          	lw	x15,4(x27)
    8c6c:	00178793          	addi	x15,x15,1
    8c70:	df57d2e3          	bge	x15,x21,8a54 <__gdtoa+0x11a0>
    8c74:	03012783          	lw	x15,48(x2)
    8c78:	00100c93          	addi	x25,x0,1
    8c7c:	00178793          	addi	x15,x15,1
    8c80:	02f12823          	sw	x15,48(x2)
    8c84:	02012783          	lw	x15,32(x2)
    8c88:	00178793          	addi	x15,x15,1
    8c8c:	02f12023          	sw	x15,32(x2)
    8c90:	dc5ff06f          	jal	x0,8a54 <__gdtoa+0x11a0>
    8c94:	0049a583          	lw	x11,4(x19)
    8c98:	00040513          	addi	x10,x8,0
    8c9c:	01e12c23          	sw	x30,24(x2)
    8ca0:	4e1000ef          	jal	x1,9980 <_Balloc>
    8ca4:	00050a13          	addi	x20,x10,0
    8ca8:	c6050663          	beq	x10,x0,8114 <__gdtoa+0x860>
    8cac:	0109a603          	lw	x12,16(x19)
    8cb0:	00c98593          	addi	x11,x19,12
    8cb4:	00c50513          	addi	x10,x10,12
    8cb8:	00260613          	addi	x12,x12,2
    8cbc:	00261613          	slli	x12,x12,0x2
    8cc0:	b94fe0ef          	jal	x1,7054 <memcpy>
    8cc4:	000a0593          	addi	x11,x20,0
    8cc8:	00100613          	addi	x12,x0,1
    8ccc:	00040513          	addi	x10,x8,0
    8cd0:	668010ef          	jal	x1,a338 <__lshift>
    8cd4:	01812f03          	lw	x30,24(x2)
    8cd8:	00050a13          	addi	x20,x10,0
    8cdc:	00050463          	beq	x10,x0,8ce4 <__gdtoa+0x1430>
    8ce0:	938ff06f          	jal	x0,7e18 <__gdtoa+0x564>
    8ce4:	c30ff06f          	jal	x0,8114 <__gdtoa+0x860>
    8ce8:	000b0613          	addi	x12,x22,0
    8cec:	00098693          	addi	x13,x19,0
    8cf0:	000b0513          	addi	x10,x22,0
    8cf4:	00098593          	addi	x11,x19,0
    8cf8:	03e12423          	sw	x30,40(x2)
    8cfc:	445030ef          	jal	x1,c940 <__adddf3>
    8d00:	ef01a603          	lw	x12,-272(x3) # 13030 <__SDATA_BEGIN__+0x48>
    8d04:	ef41a683          	lw	x13,-268(x3) # 13034 <__SDATA_BEGIN__+0x4c>
    8d08:	439030ef          	jal	x1,c940 <__adddf3>
    8d0c:	02812f03          	lw	x30,40(x2)
    8d10:	fcc007b7          	lui	x15,0xfcc00
    8d14:	00050713          	addi	x14,x10,0
    8d18:	00b78a33          	add	x20,x15,x11
    8d1c:	ef81a603          	lw	x12,-264(x3) # 13038 <__SDATA_BEGIN__+0x50>
    8d20:	04412503          	lw	x10,68(x2)
    8d24:	efc1a683          	lw	x13,-260(x3) # 1303c <__SDATA_BEGIN__+0x54>
    8d28:	05812583          	lw	x11,88(x2)
    8d2c:	03e12423          	sw	x30,40(x2)
    8d30:	04e12423          	sw	x14,72(x2)
    8d34:	474050ef          	jal	x1,e1a8 <__subdf3>
    8d38:	04812703          	lw	x14,72(x2)
    8d3c:	000a0693          	addi	x13,x20,0
    8d40:	00050993          	addi	x19,x10,0
    8d44:	00070613          	addi	x12,x14,0
    8d48:	00058b13          	addi	x22,x11,0
    8d4c:	3f5040ef          	jal	x1,d940 <__gedf2>
    8d50:	02812f03          	lw	x30,40(x2)
    8d54:	40a04c63          	blt	x0,x10,916c <__gdtoa+0x18b8>
    8d58:	04812703          	lw	x14,72(x2)
    8d5c:	800008b7          	lui	x17,0x80000
    8d60:	0148c8b3          	xor	x17,x17,x20
    8d64:	00070613          	addi	x12,x14,0
    8d68:	00098513          	addi	x10,x19,0
    8d6c:	00088693          	addi	x13,x17,0 # 80000000 <__heap_end+0x7fc00000>
    8d70:	000b0593          	addi	x11,x22,0
    8d74:	4a9040ef          	jal	x1,da1c <__ledf2>
    8d78:	02812f03          	lw	x30,40(x2)
    8d7c:	d8054ae3          	blt	x10,x0,8b10 <__gdtoa+0x125c>
    8d80:	04412783          	lw	x15,68(x2)
    8d84:	02412703          	lw	x14,36(x2)
    8d88:	05812983          	lw	x19,88(x2)
    8d8c:	04f12423          	sw	x15,72(x2)
    8d90:	000127b7          	lui	x15,0x12
    8d94:	4e074a63          	blt	x14,x0,9288 <__gdtoa+0x19d4>
    8d98:	5807aa03          	lw	x20,1408(x15) # 12580 <__mprec_tens>
    8d9c:	5847aa83          	lw	x21,1412(x15)
    8da0:	01812783          	lw	x15,24(x2)
    8da4:	02012423          	sw	x0,40(x2)
    8da8:	fe07d663          	bge	x15,x0,8594 <__gdtoa+0xce0>
    8dac:	03412783          	lw	x15,52(x2)
    8db0:	fe079263          	bne	x15,x0,8594 <__gdtoa+0xce0>
    8db4:	d2dff06f          	jal	x0,8ae0 <__gdtoa+0x122c>
    8db8:	00048593          	addi	x11,x9,0
    8dbc:	00100613          	addi	x12,x0,1
    8dc0:	00040513          	addi	x10,x8,0
    8dc4:	01e12823          	sw	x30,16(x2)
    8dc8:	570010ef          	jal	x1,a338 <__lshift>
    8dcc:	00050493          	addi	x9,x10,0
    8dd0:	b4050263          	beq	x10,x0,8114 <__gdtoa+0x860>
    8dd4:	000b8593          	addi	x11,x23,0
    8dd8:	6f0010ef          	jal	x1,a4c8 <__mcmp>
    8ddc:	01012f03          	lw	x30,16(x2)
    8de0:	e0a044e3          	blt	x0,x10,8be8 <__gdtoa+0x1334>
    8de4:	00051663          	bne	x10,x0,8df0 <__gdtoa+0x153c>
    8de8:	001dfd93          	andi	x27,x27,1
    8dec:	de0d9ee3          	bne	x27,x0,8be8 <__gdtoa+0x1334>
    8df0:	0104a683          	lw	x13,16(x9)
    8df4:	00100793          	addi	x15,x0,1
    8df8:	01000c93          	addi	x25,x0,16
    8dfc:	b4d7cee3          	blt	x15,x13,8958 <__gdtoa+0x10a4>
    8e00:	0144a783          	lw	x15,20(x9)
    8e04:	b4dff06f          	jal	x0,8950 <__gdtoa+0x109c>
    8e08:	03c12783          	lw	x15,60(x2)
    8e0c:	02000c93          	addi	x25,x0,32
    8e10:	00178793          	addi	x15,x15,1
    8e14:	02f12e23          	sw	x15,60(x2)
    8e18:	03100793          	addi	x15,x0,49
    8e1c:	00ff0023          	sb	x15,0(x30)
    8e20:	9ddff06f          	jal	x0,87fc <__gdtoa+0xf48>
    8e24:	02812783          	lw	x15,40(x2)
    8e28:	01812f03          	lw	x30,24(x2)
    8e2c:	01c12d03          	lw	x26,28(x2)
    8e30:	00078e63          	beq	x15,x0,8e4c <__gdtoa+0x1598>
    8e34:	0104a683          	lw	x13,16(x9)
    8e38:	00100793          	addi	x15,x0,1
    8e3c:	94d7ca63          	blt	x15,x13,7f90 <__gdtoa+0x6dc>
    8e40:	0144a783          	lw	x15,20(x9)
    8e44:	00078463          	beq	x15,x0,8e4c <__gdtoa+0x1598>
    8e48:	948ff06f          	jal	x0,7f90 <__gdtoa+0x6dc>
    8e4c:	00048593          	addi	x11,x9,0
    8e50:	00100613          	addi	x12,x0,1
    8e54:	00040513          	addi	x10,x8,0
    8e58:	01e12823          	sw	x30,16(x2)
    8e5c:	4dc010ef          	jal	x1,a338 <__lshift>
    8e60:	00050493          	addi	x9,x10,0
    8e64:	aa050863          	beq	x10,x0,8114 <__gdtoa+0x860>
    8e68:	000b8593          	addi	x11,x23,0
    8e6c:	65c010ef          	jal	x1,a4c8 <__mcmp>
    8e70:	01012f03          	lw	x30,16(x2)
    8e74:	4ca05263          	bge	x0,x10,9338 <__gdtoa+0x1a84>
    8e78:	03900793          	addi	x15,x0,57
    8e7c:	d4fd88e3          	beq	x27,x15,8bcc <__gdtoa+0x1318>
    8e80:	02000793          	addi	x15,x0,32
    8e84:	031b0d93          	addi	x27,x22,49
    8e88:	02f12423          	sw	x15,40(x2)
    8e8c:	94dff06f          	jal	x0,87d8 <__gdtoa+0xf24>
    8e90:	00050613          	addi	x12,x10,0
    8e94:	00058693          	addi	x13,x11,0
    8e98:	01e12823          	sw	x30,16(x2)
    8e9c:	2a5030ef          	jal	x1,c940 <__adddf3>
    8ea0:	000a0613          	addi	x12,x20,0
    8ea4:	000a8693          	addi	x13,x21,0
    8ea8:	00050c13          	addi	x24,x10,0
    8eac:	00058993          	addi	x19,x11,0
    8eb0:	291040ef          	jal	x1,d940 <__gedf2>
    8eb4:	fffb4b83          	lbu	x23,-1(x22)
    8eb8:	01012f03          	lw	x30,16(x2)
    8ebc:	dea04863          	blt	x0,x10,84ac <__gdtoa+0xbf8>
    8ec0:	000c0513          	addi	x10,x24,0
    8ec4:	00098593          	addi	x11,x19,0
    8ec8:	000a0613          	addi	x12,x20,0
    8ecc:	000a8693          	addi	x13,x21,0
    8ed0:	1e5040ef          	jal	x1,d8b4 <__eqdf2>
    8ed4:	01012f03          	lw	x30,16(x2)
    8ed8:	00051663          	bne	x10,x0,8ee4 <__gdtoa+0x1630>
    8edc:	00197913          	andi	x18,x18,1
    8ee0:	dc091663          	bne	x18,x0,84ac <__gdtoa+0xbf8>
    8ee4:	000b0793          	addi	x15,x22,0
    8ee8:	01000c93          	addi	x25,x0,16
    8eec:	03000613          	addi	x12,x0,48
    8ef0:	fff7c703          	lbu	x14,-1(x15)
    8ef4:	00078b13          	addi	x22,x15,0
    8ef8:	fff78793          	addi	x15,x15,-1
    8efc:	fec70ae3          	beq	x14,x12,8ef0 <__gdtoa+0x163c>
    8f00:	000d8b93          	addi	x23,x27,0
    8f04:	fe8ff06f          	jal	x0,86ec <__gdtoa+0xe38>
    8f08:	03100693          	addi	x13,x0,49
    8f0c:	001d8d93          	addi	x27,x27,1
    8f10:	dc0ff06f          	jal	x0,84d0 <__gdtoa+0xc1c>
    8f14:	00070513          	addi	x10,x14,0
    8f18:	000a0593          	addi	x11,x20,0
    8f1c:	06f12e23          	sw	x15,124(x2)
    8f20:	07e12823          	sw	x30,112(x2)
    8f24:	3d5040ef          	jal	x1,daf8 <__muldf3>
    8f28:	ee01a783          	lw	x15,-288(x3) # 13020 <__SDATA_BEGIN__+0x38>
    8f2c:	07012f03          	lw	x30,112(x2)
    8f30:	ee41a803          	lw	x16,-284(x3) # 13024 <__SDATA_BEGIN__+0x3c>
    8f34:	04812603          	lw	x12,72(x2)
    8f38:	02f12423          	sw	x15,40(x2)
    8f3c:	07c12783          	lw	x15,124(x2)
    8f40:	06b12623          	sw	x11,108(x2)
    8f44:	00000693          	addi	x13,x0,0
    8f48:	00100593          	addi	x11,x0,1
    8f4c:	06912823          	sw	x9,112(x2)
    8f50:	06812a23          	sw	x8,116(x2)
    8f54:	05c12483          	lw	x9,92(x2)
    8f58:	07212c23          	sw	x18,120(x2)
    8f5c:	03012623          	sw	x16,44(x2)
    8f60:	06a12423          	sw	x10,104(x2)
    8f64:	08b12623          	sw	x11,140(x2)
    8f68:	07312223          	sw	x19,100(x2)
    8f6c:	000f0b13          	addi	x22,x30,0
    8f70:	05e12e23          	sw	x30,92(x2)
    8f74:	00068413          	addi	x8,x13,0
    8f78:	00078b93          	addi	x23,x15,0
    8f7c:	00060913          	addi	x18,x12,0
    8f80:	0180006f          	jal	x0,8f98 <__gdtoa+0x16e4>
    8f84:	08612623          	sw	x6,140(x2)
    8f88:	371040ef          	jal	x1,daf8 <__muldf3>
    8f8c:	00050913          	addi	x18,x10,0
    8f90:	00058993          	addi	x19,x11,0
    8f94:	00100413          	addi	x8,x0,1
    8f98:	00090513          	addi	x10,x18,0
    8f9c:	00098593          	addi	x11,x19,0
    8fa0:	1b1050ef          	jal	x1,e950 <__fixdfsi>
    8fa4:	00050a13          	addi	x20,x10,0
    8fa8:	02050463          	beq	x10,x0,8fd0 <__gdtoa+0x171c>
    8fac:	225050ef          	jal	x1,e9d0 <__floatsidf>
    8fb0:	00050613          	addi	x12,x10,0
    8fb4:	00058693          	addi	x13,x11,0
    8fb8:	00090513          	addi	x10,x18,0
    8fbc:	00098593          	addi	x11,x19,0
    8fc0:	1e8050ef          	jal	x1,e1a8 <__subdf3>
    8fc4:	00050913          	addi	x18,x10,0
    8fc8:	00058993          	addi	x19,x11,0
    8fcc:	00100413          	addi	x8,x0,1
    8fd0:	030a0793          	addi	x15,x20,48
    8fd4:	001b0b13          	addi	x22,x22,1
    8fd8:	0ff7f793          	andi	x15,x15,255
    8fdc:	fefb0fa3          	sb	x15,-1(x22)
    8fe0:	08c12883          	lw	x17,140(x2)
    8fe4:	02812603          	lw	x12,40(x2)
    8fe8:	02c12683          	lw	x13,44(x2)
    8fec:	00090513          	addi	x10,x18,0
    8ff0:	00098593          	addi	x11,x19,0
    8ff4:	00188313          	addi	x6,x17,1
    8ff8:	f89896e3          	bne	x17,x9,8f84 <__gdtoa+0x16d0>
    8ffc:	000b8713          	addi	x14,x23,0
    9000:	00040693          	addi	x13,x8,0
    9004:	00078b93          	addi	x23,x15,0
    9008:	07012483          	lw	x9,112(x2)
    900c:	05c12f03          	lw	x30,92(x2)
    9010:	07412403          	lw	x8,116(x2)
    9014:	07812903          	lw	x18,120(x2)
    9018:	00070793          	addi	x15,x14,0
    901c:	00068663          	beq	x13,x0,9028 <__gdtoa+0x1774>
    9020:	04a12423          	sw	x10,72(x2)
    9024:	07312223          	sw	x19,100(x2)
    9028:	f001a603          	lw	x12,-256(x3) # 13040 <__SDATA_BEGIN__+0x58>
    902c:	f041a683          	lw	x13,-252(x3) # 13044 <__SDATA_BEGIN__+0x5c>
    9030:	06812503          	lw	x10,104(x2)
    9034:	06c12583          	lw	x11,108(x2)
    9038:	03e12423          	sw	x30,40(x2)
    903c:	04f12e23          	sw	x15,92(x2)
    9040:	101030ef          	jal	x1,c940 <__adddf3>
    9044:	06412a03          	lw	x20,100(x2)
    9048:	04812603          	lw	x12,72(x2)
    904c:	000a0693          	addi	x13,x20,0
    9050:	1cd040ef          	jal	x1,da1c <__ledf2>
    9054:	02812f03          	lw	x30,40(x2)
    9058:	1e054663          	blt	x10,x0,9244 <__gdtoa+0x1990>
    905c:	06812603          	lw	x12,104(x2)
    9060:	06c12683          	lw	x13,108(x2)
    9064:	f001a503          	lw	x10,-256(x3) # 13040 <__SDATA_BEGIN__+0x58>
    9068:	f041a583          	lw	x11,-252(x3) # 13044 <__SDATA_BEGIN__+0x5c>
    906c:	13c050ef          	jal	x1,e1a8 <__subdf3>
    9070:	04812603          	lw	x12,72(x2)
    9074:	000a0693          	addi	x13,x20,0
    9078:	0c9040ef          	jal	x1,d940 <__gedf2>
    907c:	02812f03          	lw	x30,40(x2)
    9080:	05c12783          	lw	x15,92(x2)
    9084:	26a04863          	blt	x0,x10,92f4 <__gdtoa+0x1a40>
    9088:	04412703          	lw	x14,68(x2)
    908c:	05812983          	lw	x19,88(x2)
    9090:	04e12423          	sw	x14,72(x2)
    9094:	02412703          	lw	x14,36(x2)
    9098:	d00750e3          	bge	x14,x0,8d98 <__gdtoa+0x14e4>
    909c:	03812b03          	lw	x22,56(x2)
    90a0:	03012a03          	lw	x20,48(x2)
    90a4:	02012423          	sw	x0,40(x2)
    90a8:	00000993          	addi	x19,x0,0
    90ac:	c71fe06f          	jal	x0,7d1c <__gdtoa+0x468>
    90b0:	00098a93          	addi	x21,x19,0
    90b4:	01812f03          	lw	x30,24(x2)
    90b8:	01c12d03          	lw	x26,28(x2)
    90bc:	000a0993          	addi	x19,x20,0
    90c0:	86dff06f          	jal	x0,892c <__gdtoa+0x1078>
    90c4:	fffb4b83          	lbu	x23,-1(x22)
    90c8:	be4ff06f          	jal	x0,84ac <__gdtoa+0xbf8>
    90cc:	03412783          	lw	x15,52(x2)
    90d0:	c0078ce3          	beq	x15,x0,8ce8 <__gdtoa+0x1434>
    90d4:	05412783          	lw	x15,84(x2)
    90d8:	caf054e3          	bge	x0,x15,8d80 <__gdtoa+0x14cc>
    90dc:	ee01a603          	lw	x12,-288(x3) # 13020 <__SDATA_BEGIN__+0x38>
    90e0:	ee41a683          	lw	x13,-284(x3) # 13024 <__SDATA_BEGIN__+0x3c>
    90e4:	00098593          	addi	x11,x19,0
    90e8:	000b0513          	addi	x10,x22,0
    90ec:	07e12423          	sw	x30,104(x2)
    90f0:	209040ef          	jal	x1,daf8 <__muldf3>
    90f4:	ee81a603          	lw	x12,-280(x3) # 13028 <__SDATA_BEGIN__+0x40>
    90f8:	eec1a683          	lw	x13,-276(x3) # 1302c <__SDATA_BEGIN__+0x44>
    90fc:	00058993          	addi	x19,x11,0
    9100:	04a12423          	sw	x10,72(x2)
    9104:	06a12223          	sw	x10,100(x2)
    9108:	02b12423          	sw	x11,40(x2)
    910c:	1ed040ef          	jal	x1,daf8 <__muldf3>
    9110:	ef01a603          	lw	x12,-272(x3) # 13030 <__SDATA_BEGIN__+0x48>
    9114:	ef41a683          	lw	x13,-268(x3) # 13034 <__SDATA_BEGIN__+0x4c>
    9118:	029030ef          	jal	x1,c940 <__adddf3>
    911c:	fcc007b7          	lui	x15,0xfcc00
    9120:	00b78a33          	add	x20,x15,x11
    9124:	05412783          	lw	x15,84(x2)
    9128:	06412e83          	lw	x29,100(x2)
    912c:	06812f03          	lw	x30,104(x2)
    9130:	04f12e23          	sw	x15,92(x2)
    9134:	fff00793          	addi	x15,x0,-1
    9138:	00050713          	addi	x14,x10,0
    913c:	06f12023          	sw	x15,96(x2)
    9140:	00098813          	addi	x16,x19,0
    9144:	96cff06f          	jal	x0,82b0 <__gdtoa+0x9fc>
    9148:	03012703          	lw	x14,48(x2)
    914c:	02012683          	lw	x13,32(x2)
    9150:	08f12623          	sw	x15,140(x2)
    9154:	00070a13          	addi	x20,x14,0
    9158:	00f686b3          	add	x13,x13,x15
    915c:	00f707b3          	add	x15,x14,x15
    9160:	02d12023          	sw	x13,32(x2)
    9164:	02f12823          	sw	x15,48(x2)
    9168:	b99fe06f          	jal	x0,7d00 <__gdtoa+0x44c>
    916c:	00200b93          	addi	x23,x0,2
    9170:	00000593          	addi	x11,x0,0
    9174:	00000993          	addi	x19,x0,0
    9178:	881ff06f          	jal	x0,89f8 <__gdtoa+0x1144>
    917c:	03900793          	addi	x15,x0,57
    9180:	01812f03          	lw	x30,24(x2)
    9184:	01c12d03          	lw	x26,28(x2)
    9188:	a4fd82e3          	beq	x27,x15,8bcc <__gdtoa+0x1318>
    918c:	001d8d93          	addi	x27,x27,1
    9190:	00098a93          	addi	x21,x19,0
    9194:	001c0b13          	addi	x22,x24,1
    9198:	01bc0023          	sb	x27,0(x24)
    919c:	000a0993          	addi	x19,x20,0
    91a0:	02000c93          	addi	x25,x0,32
    91a4:	e58ff06f          	jal	x0,87fc <__gdtoa+0xf48>
    91a8:	03c12783          	lw	x15,60(x2)
    91ac:	00000593          	addi	x11,x0,0
    91b0:	00000993          	addi	x19,x0,0
    91b4:	00278b93          	addi	x23,x15,2 # fcc00002 <__heap_end+0xfc800002>
    91b8:	841ff06f          	jal	x0,89f8 <__gdtoa+0x1144>
    91bc:	00098593          	addi	x11,x19,0
    91c0:	00000693          	addi	x13,x0,0
    91c4:	00a00613          	addi	x12,x0,10
    91c8:	00040513          	addi	x10,x8,0
    91cc:	08d000ef          	jal	x1,9a58 <__multadd>
    91d0:	00050993          	addi	x19,x10,0
    91d4:	00051463          	bne	x10,x0,91dc <__gdtoa+0x1928>
    91d8:	f3dfe06f          	jal	x0,8114 <__gdtoa+0x860>
    91dc:	05412783          	lw	x15,84(x2)
    91e0:	02012f03          	lw	x30,32(x2)
    91e4:	00f05663          	bge	x0,x15,91f0 <__gdtoa+0x193c>
    91e8:	02f12a23          	sw	x15,52(x2)
    91ec:	c19fe06f          	jal	x0,7e04 <__gdtoa+0x550>
    91f0:	01012703          	lw	x14,16(x2)
    91f4:	00200793          	addi	x15,x0,2
    91f8:	14e7cc63          	blt	x15,x14,9350 <__gdtoa+0x1a9c>
    91fc:	05412783          	lw	x15,84(x2)
    9200:	02f12a23          	sw	x15,52(x2)
    9204:	c01fe06f          	jal	x0,7e04 <__gdtoa+0x550>
    9208:	06412483          	lw	x9,100(x2)
    920c:	05c12f03          	lw	x30,92(x2)
    9210:	06812403          	lw	x8,104(x2)
    9214:	000a0513          	addi	x10,x20,0
    9218:	00098593          	addi	x11,x19,0
    921c:	00000613          	addi	x12,x0,0
    9220:	00000693          	addi	x13,x0,0
    9224:	01e12823          	sw	x30,16(x2)
    9228:	68c040ef          	jal	x1,d8b4 <__eqdf2>
    922c:	00a037b3          	sltu	x15,x0,x10
    9230:	00479c93          	slli	x25,x15,0x4
    9234:	06012783          	lw	x15,96(x2)
    9238:	01012f03          	lw	x30,16(x2)
    923c:	00178b93          	addi	x23,x15,1
    9240:	cacff06f          	jal	x0,86ec <__gdtoa+0xe38>
    9244:	06012783          	lw	x15,96(x2)
    9248:	00178d93          	addi	x27,x15,1
    924c:	a60ff06f          	jal	x0,84ac <__gdtoa+0xbf8>
    9250:	03412783          	lw	x15,52(x2)
    9254:	03812703          	lw	x14,56(x2)
    9258:	fff78693          	addi	x13,x15,-1
    925c:	8cd748e3          	blt	x14,x13,8b2c <__gdtoa+0x1278>
    9260:	03012583          	lw	x11,48(x2)
    9264:	02012603          	lw	x12,32(x2)
    9268:	08f12623          	sw	x15,140(x2)
    926c:	00058a13          	addi	x20,x11,0
    9270:	00f60633          	add	x12,x12,x15
    9274:	00f587b3          	add	x15,x11,x15
    9278:	02c12023          	sw	x12,32(x2)
    927c:	40d70b33          	sub	x22,x14,x13
    9280:	02f12823          	sw	x15,48(x2)
    9284:	a7dfe06f          	jal	x0,7d00 <__gdtoa+0x44c>
    9288:	02012423          	sw	x0,40(x2)
    928c:	9f9fe06f          	jal	x0,7c84 <__gdtoa+0x3d0>
    9290:	04412703          	lw	x14,68(x2)
    9294:	06412483          	lw	x9,100(x2)
    9298:	07412b83          	lw	x23,116(x2)
    929c:	04e12423          	sw	x14,72(x2)
    92a0:	02412703          	lw	x14,36(x2)
    92a4:	07812c03          	lw	x24,120(x2)
    92a8:	05c12f03          	lw	x30,92(x2)
    92ac:	06812403          	lw	x8,104(x2)
    92b0:	07c12783          	lw	x15,124(x2)
    92b4:	05812983          	lw	x19,88(x2)
    92b8:	ae0750e3          	bge	x14,x0,8d98 <__gdtoa+0x14e4>
    92bc:	02012423          	sw	x0,40(x2)
    92c0:	9cdfe06f          	jal	x0,7c8c <__gdtoa+0x3d8>
    92c4:	03900793          	addi	x15,x0,57
    92c8:	01812f03          	lw	x30,24(x2)
    92cc:	01c12d03          	lw	x26,28(x2)
    92d0:	8efd8ee3          	beq	x27,x15,8bcc <__gdtoa+0x1318>
    92d4:	0f505063          	bge	x0,x21,93b4 <__gdtoa+0x1b00>
    92d8:	031b0d93          	addi	x27,x22,49
    92dc:	02000c93          	addi	x25,x0,32
    92e0:	00098a93          	addi	x21,x19,0
    92e4:	001c0b13          	addi	x22,x24,1
    92e8:	01bc0023          	sb	x27,0(x24)
    92ec:	000a0993          	addi	x19,x20,0
    92f0:	d0cff06f          	jal	x0,87fc <__gdtoa+0xf48>
    92f4:	04812503          	lw	x10,72(x2)
    92f8:	000a0593          	addi	x11,x20,0
    92fc:	00000613          	addi	x12,x0,0
    9300:	00000693          	addi	x13,x0,0
    9304:	01e12823          	sw	x30,16(x2)
    9308:	5ac040ef          	jal	x1,d8b4 <__eqdf2>
    930c:	06012703          	lw	x14,96(x2)
    9310:	00a037b3          	sltu	x15,x0,x10
    9314:	00479c93          	slli	x25,x15,0x4
    9318:	01012f03          	lw	x30,16(x2)
    931c:	000b0793          	addi	x15,x22,0
    9320:	00170d93          	addi	x27,x14,1
    9324:	bc9ff06f          	jal	x0,8eec <__gdtoa+0x1638>
    9328:	0144a783          	lw	x15,20(x9)
    932c:	cc079063          	bne	x15,x0,87ec <__gdtoa+0xf38>
    9330:	02812c83          	lw	x25,40(x2)
    9334:	cb8ff06f          	jal	x0,87ec <__gdtoa+0xf38>
    9338:	00051663          	bne	x10,x0,9344 <__gdtoa+0x1a90>
    933c:	001df793          	andi	x15,x27,1
    9340:	b2079ce3          	bne	x15,x0,8e78 <__gdtoa+0x15c4>
    9344:	02000793          	addi	x15,x0,32
    9348:	02f12423          	sw	x15,40(x2)
    934c:	c8cff06f          	jal	x0,87d8 <__gdtoa+0xf24>
    9350:	05412783          	lw	x15,84(x2)
    9354:	02f12a23          	sw	x15,52(x2)
    9358:	e50ff06f          	jal	x0,89a8 <__gdtoa+0x10f4>
    935c:	03900793          	addi	x15,x0,57
    9360:	000b0f13          	addi	x30,x22,0
    9364:	00fd8e63          	beq	x27,x15,9380 <__gdtoa+0x1acc>
    9368:	001d8d93          	addi	x27,x27,1
    936c:	02000c93          	addi	x25,x0,32
    9370:	c7cff06f          	jal	x0,87ec <__gdtoa+0xf38>
    9374:	01000c93          	addi	x25,x0,16
    9378:	001c0913          	addi	x18,x24,1
    937c:	c70ff06f          	jal	x0,87ec <__gdtoa+0xf38>
    9380:	00098a93          	addi	x21,x19,0
    9384:	000c0793          	addi	x15,x24,0
    9388:	000a0993          	addi	x19,x20,0
    938c:	851ff06f          	jal	x0,8bdc <__gdtoa+0x1328>
    9390:	0104a683          	lw	x13,16(x9)
    9394:	00100793          	addi	x15,x0,1
    9398:	00d7d463          	bge	x15,x13,93a0 <__gdtoa+0x1aec>
    939c:	bf5fe06f          	jal	x0,7f90 <__gdtoa+0x6dc>
    93a0:	0144a783          	lw	x15,20(x9)
    93a4:	00078463          	beq	x15,x0,93ac <__gdtoa+0x1af8>
    93a8:	be9fe06f          	jal	x0,7f90 <__gdtoa+0x6dc>
    93ac:	001c0913          	addi	x18,x24,1
    93b0:	c3cff06f          	jal	x0,87ec <__gdtoa+0xf38>
    93b4:	0104a683          	lw	x13,16(x9)
    93b8:	00100793          	addi	x15,x0,1
    93bc:	01000c93          	addi	x25,x0,16
    93c0:	f2d7c0e3          	blt	x15,x13,92e0 <__gdtoa+0x1a2c>
    93c4:	0144a783          	lw	x15,20(x9)
    93c8:	00f037b3          	sltu	x15,x0,x15
    93cc:	00479c93          	slli	x25,x15,0x4
    93d0:	f11ff06f          	jal	x0,92e0 <__gdtoa+0x1a2c>
    93d4:	020ac263          	blt	x21,x0,93f8 <__gdtoa+0x1b44>
    93d8:	015ceab3          	or	x21,x25,x21
    93dc:	000a9863          	bne	x21,x0,93ec <__gdtoa+0x1b38>
    93e0:	00092703          	lw	x14,0(x18)
    93e4:	00177713          	andi	x14,x14,1
    93e8:	00070863          	beq	x14,x0,93f8 <__gdtoa+0x1b44>
    93ec:	00f04463          	blt	x0,x15,93f4 <__gdtoa+0x1b40>
    93f0:	a7dfe06f          	jal	x0,7e6c <__gdtoa+0x5b8>
    93f4:	a69fe06f          	jal	x0,7e5c <__gdtoa+0x5a8>
    93f8:	02812703          	lw	x14,40(x2)
    93fc:	01812f03          	lw	x30,24(x2)
    9400:	01c12d03          	lw	x26,28(x2)
    9404:	02070863          	beq	x14,x0,9434 <__gdtoa+0x1b80>
    9408:	0104a603          	lw	x12,16(x9)
    940c:	00100693          	addi	x13,x0,1
    9410:	00c6d463          	bge	x13,x12,9418 <__gdtoa+0x1b64>
    9414:	b7dfe06f          	jal	x0,7f90 <__gdtoa+0x6dc>
    9418:	0144a683          	lw	x13,20(x9)
    941c:	00068463          	beq	x13,x0,9424 <__gdtoa+0x1b70>
    9420:	b71fe06f          	jal	x0,7f90 <__gdtoa+0x6dc>
    9424:	a2f044e3          	blt	x0,x15,8e4c <__gdtoa+0x1598>
    9428:	00000c93          	addi	x25,x0,0
    942c:	001c0913          	addi	x18,x24,1
    9430:	bbcff06f          	jal	x0,87ec <__gdtoa+0xf38>
    9434:	baf05263          	bge	x0,x15,87d8 <__gdtoa+0xf24>
    9438:	a15ff06f          	jal	x0,8e4c <__gdtoa+0x1598>

0000943c <__rv_alloc_D2A>:
    943c:	ff010113          	addi	x2,x2,-16
    9440:	00812423          	sw	x8,8(x2)
    9444:	00112623          	sw	x1,12(x2)
    9448:	01300793          	addi	x15,x0,19
    944c:	00000413          	addi	x8,x0,0
    9450:	00b7fc63          	bgeu	x15,x11,9468 <__rv_alloc_D2A+0x2c>
    9454:	00400793          	addi	x15,x0,4
    9458:	00179793          	slli	x15,x15,0x1
    945c:	01078713          	addi	x14,x15,16
    9460:	00140413          	addi	x8,x8,1
    9464:	fee5fae3          	bgeu	x11,x14,9458 <__rv_alloc_D2A+0x1c>
    9468:	00040593          	addi	x11,x8,0
    946c:	514000ef          	jal	x1,9980 <_Balloc>
    9470:	00050663          	beq	x10,x0,947c <__rv_alloc_D2A+0x40>
    9474:	00852023          	sw	x8,0(x10)
    9478:	00450513          	addi	x10,x10,4
    947c:	00c12083          	lw	x1,12(x2)
    9480:	00812403          	lw	x8,8(x2)
    9484:	01010113          	addi	x2,x2,16
    9488:	00008067          	jalr	x0,0(x1)

0000948c <__nrv_alloc_D2A>:
    948c:	ff010113          	addi	x2,x2,-16
    9490:	00812423          	sw	x8,8(x2)
    9494:	01212023          	sw	x18,0(x2)
    9498:	00112623          	sw	x1,12(x2)
    949c:	00912223          	sw	x9,4(x2)
    94a0:	01300793          	addi	x15,x0,19
    94a4:	00058413          	addi	x8,x11,0
    94a8:	00060913          	addi	x18,x12,0
    94ac:	06d7fe63          	bgeu	x15,x13,9528 <__nrv_alloc_D2A+0x9c>
    94b0:	00400793          	addi	x15,x0,4
    94b4:	00000493          	addi	x9,x0,0
    94b8:	00179793          	slli	x15,x15,0x1
    94bc:	01078713          	addi	x14,x15,16
    94c0:	00148493          	addi	x9,x9,1
    94c4:	fee6fae3          	bgeu	x13,x14,94b8 <__nrv_alloc_D2A+0x2c>
    94c8:	00048593          	addi	x11,x9,0
    94cc:	4b4000ef          	jal	x1,9980 <_Balloc>
    94d0:	00050793          	addi	x15,x10,0
    94d4:	04050e63          	beq	x10,x0,9530 <__nrv_alloc_D2A+0xa4>
    94d8:	00952023          	sw	x9,0(x10)
    94dc:	00044703          	lbu	x14,0(x8)
    94e0:	00450513          	addi	x10,x10,4
    94e4:	00140593          	addi	x11,x8,1
    94e8:	00e78223          	sb	x14,4(x15)
    94ec:	00050793          	addi	x15,x10,0
    94f0:	00070c63          	beq	x14,x0,9508 <__nrv_alloc_D2A+0x7c>
    94f4:	0005c703          	lbu	x14,0(x11)
    94f8:	00178793          	addi	x15,x15,1
    94fc:	00158593          	addi	x11,x11,1
    9500:	00e78023          	sb	x14,0(x15)
    9504:	fe0718e3          	bne	x14,x0,94f4 <__nrv_alloc_D2A+0x68>
    9508:	00090463          	beq	x18,x0,9510 <__nrv_alloc_D2A+0x84>
    950c:	00f92023          	sw	x15,0(x18)
    9510:	00c12083          	lw	x1,12(x2)
    9514:	00812403          	lw	x8,8(x2)
    9518:	00412483          	lw	x9,4(x2)
    951c:	00012903          	lw	x18,0(x2)
    9520:	01010113          	addi	x2,x2,16
    9524:	00008067          	jalr	x0,0(x1)
    9528:	00000493          	addi	x9,x0,0
    952c:	f9dff06f          	jal	x0,94c8 <__nrv_alloc_D2A+0x3c>
    9530:	00000513          	addi	x10,x0,0
    9534:	fddff06f          	jal	x0,9510 <__nrv_alloc_D2A+0x84>

00009538 <__freedtoa>:
    9538:	ffc5a683          	lw	x13,-4(x11)
    953c:	00100713          	addi	x14,x0,1
    9540:	00058793          	addi	x15,x11,0
    9544:	00d71733          	sll	x14,x14,x13
    9548:	ffc58593          	addi	x11,x11,-4
    954c:	00d7a023          	sw	x13,0(x15)
    9550:	00e7a223          	sw	x14,4(x15)
    9554:	4e00006f          	jal	x0,9a34 <_Bfree>

00009558 <__quorem_D2A>:
    9558:	fb010113          	addi	x2,x2,-80
    955c:	04912223          	sw	x9,68(x2)
    9560:	01052783          	lw	x15,16(x10)
    9564:	0105a483          	lw	x9,16(x11)
    9568:	04112623          	sw	x1,76(x2)
    956c:	00b12423          	sw	x11,8(x2)
    9570:	2297c263          	blt	x15,x9,9794 <__quorem_D2A+0x23c>
    9574:	fff48493          	addi	x9,x9,-1
    9578:	03512a23          	sw	x21,52(x2)
    957c:	03712623          	sw	x23,44(x2)
    9580:	00249a93          	slli	x21,x9,0x2
    9584:	01458b93          	addi	x23,x11,20
    9588:	05212023          	sw	x18,64(x2)
    958c:	03312e23          	sw	x19,60(x2)
    9590:	015b8933          	add	x18,x23,x21
    9594:	01450993          	addi	x19,x10,20
    9598:	015987b3          	add	x15,x19,x21
    959c:	03812423          	sw	x24,40(x2)
    95a0:	00092c03          	lw	x24,0(x18)
    95a4:	03912223          	sw	x25,36(x2)
    95a8:	0007ac83          	lw	x25,0(x15)
    95ac:	001c0c13          	addi	x24,x24,1
    95b0:	03412c23          	sw	x20,56(x2)
    95b4:	000c0593          	addi	x11,x24,0
    95b8:	00050a13          	addi	x20,x10,0
    95bc:	000c8513          	addi	x10,x25,0
    95c0:	04812423          	sw	x8,72(x2)
    95c4:	00f12623          	sw	x15,12(x2)
    95c8:	57c080ef          	jal	x1,11b44 <__hidden___udivsi3>
    95cc:	00050413          	addi	x8,x10,0
    95d0:	0f8ce263          	bltu	x25,x24,96b4 <__quorem_D2A+0x15c>
    95d4:	00010cb7          	lui	x25,0x10
    95d8:	03a12023          	sw	x26,32(x2)
    95dc:	01b12e23          	sw	x27,28(x2)
    95e0:	03612823          	sw	x22,48(x2)
    95e4:	000b8d93          	addi	x27,x23,0
    95e8:	00098d13          	addi	x26,x19,0
    95ec:	00000c13          	addi	x24,x0,0
    95f0:	00000a93          	addi	x21,x0,0
    95f4:	fffc8c93          	addi	x25,x25,-1 # ffff <__multf3+0x125b>
    95f8:	000dab03          	lw	x22,0(x27)
    95fc:	00040593          	addi	x11,x8,0
    9600:	004d0d13          	addi	x26,x26,4
    9604:	019b7533          	and	x10,x22,x25
    9608:	510080ef          	jal	x1,11b18 <__mulsi3>
    960c:	00050793          	addi	x15,x10,0
    9610:	00040593          	addi	x11,x8,0
    9614:	010b5513          	srli	x10,x22,0x10
    9618:	01878c33          	add	x24,x15,x24
    961c:	4fc080ef          	jal	x1,11b18 <__mulsi3>
    9620:	ffcd2783          	lw	x15,-4(x26)
    9624:	019c7633          	and	x12,x24,x25
    9628:	010c5c13          	srli	x24,x24,0x10
    962c:	0197f733          	and	x14,x15,x25
    9630:	40c70733          	sub	x14,x14,x12
    9634:	41570733          	sub	x14,x14,x21
    9638:	01850533          	add	x10,x10,x24
    963c:	01075693          	srli	x13,x14,0x10
    9640:	0016f693          	andi	x13,x13,1
    9644:	01957633          	and	x12,x10,x25
    9648:	00c686b3          	add	x13,x13,x12
    964c:	0107d793          	srli	x15,x15,0x10
    9650:	40d787b3          	sub	x15,x15,x13
    9654:	01079693          	slli	x13,x15,0x10
    9658:	01977733          	and	x14,x14,x25
    965c:	00e6e733          	or	x14,x13,x14
    9660:	0107d793          	srli	x15,x15,0x10
    9664:	004d8d93          	addi	x27,x27,4
    9668:	feed2e23          	sw	x14,-4(x26)
    966c:	01055c13          	srli	x24,x10,0x10
    9670:	0017fa93          	andi	x21,x15,1
    9674:	f9b972e3          	bgeu	x18,x27,95f8 <__quorem_D2A+0xa0>
    9678:	00c12703          	lw	x14,12(x2)
    967c:	00072783          	lw	x15,0(x14)
    9680:	12079463          	bne	x15,x0,97a8 <__quorem_D2A+0x250>
    9684:	ffc70a93          	addi	x21,x14,-4
    9688:	0159e863          	bltu	x19,x21,9698 <__quorem_D2A+0x140>
    968c:	0180006f          	jal	x0,96a4 <__quorem_D2A+0x14c>
    9690:	fff48493          	addi	x9,x9,-1
    9694:	0159f863          	bgeu	x19,x21,96a4 <__quorem_D2A+0x14c>
    9698:	000aa783          	lw	x15,0(x21)
    969c:	ffca8a93          	addi	x21,x21,-4
    96a0:	fe0788e3          	beq	x15,x0,9690 <__quorem_D2A+0x138>
    96a4:	03012b03          	lw	x22,48(x2)
    96a8:	02012d03          	lw	x26,32(x2)
    96ac:	01c12d83          	lw	x27,28(x2)
    96b0:	009a2823          	sw	x9,16(x20)
    96b4:	00812583          	lw	x11,8(x2)
    96b8:	000a0513          	addi	x10,x20,0
    96bc:	60d000ef          	jal	x1,a4c8 <__mcmp>
    96c0:	0a054063          	blt	x10,x0,9760 <__quorem_D2A+0x208>
    96c4:	00010537          	lui	x10,0x10
    96c8:	00098593          	addi	x11,x19,0
    96cc:	00000693          	addi	x13,x0,0
    96d0:	fff50513          	addi	x10,x10,-1 # ffff <__multf3+0x125b>
    96d4:	0005a783          	lw	x15,0(x11)
    96d8:	000ba603          	lw	x12,0(x23)
    96dc:	00458593          	addi	x11,x11,4
    96e0:	00a7f733          	and	x14,x15,x10
    96e4:	00a67833          	and	x16,x12,x10
    96e8:	41070733          	sub	x14,x14,x16
    96ec:	40d70733          	sub	x14,x14,x13
    96f0:	01075693          	srli	x13,x14,0x10
    96f4:	0016f693          	andi	x13,x13,1
    96f8:	01065613          	srli	x12,x12,0x10
    96fc:	00c686b3          	add	x13,x13,x12
    9700:	0107d793          	srli	x15,x15,0x10
    9704:	40d787b3          	sub	x15,x15,x13
    9708:	01079693          	slli	x13,x15,0x10
    970c:	00a77733          	and	x14,x14,x10
    9710:	00e6e733          	or	x14,x13,x14
    9714:	0107d793          	srli	x15,x15,0x10
    9718:	004b8b93          	addi	x23,x23,4
    971c:	fee5ae23          	sw	x14,-4(x11)
    9720:	0017f693          	andi	x13,x15,1
    9724:	fb7978e3          	bgeu	x18,x23,96d4 <__quorem_D2A+0x17c>
    9728:	00249793          	slli	x15,x9,0x2
    972c:	00f987b3          	add	x15,x19,x15
    9730:	0007a703          	lw	x14,0(x15)
    9734:	02071463          	bne	x14,x0,975c <__quorem_D2A+0x204>
    9738:	ffc78793          	addi	x15,x15,-4
    973c:	00f9e863          	bltu	x19,x15,974c <__quorem_D2A+0x1f4>
    9740:	0180006f          	jal	x0,9758 <__quorem_D2A+0x200>
    9744:	fff48493          	addi	x9,x9,-1
    9748:	00f9f863          	bgeu	x19,x15,9758 <__quorem_D2A+0x200>
    974c:	0007a703          	lw	x14,0(x15)
    9750:	ffc78793          	addi	x15,x15,-4
    9754:	fe0708e3          	beq	x14,x0,9744 <__quorem_D2A+0x1ec>
    9758:	009a2823          	sw	x9,16(x20)
    975c:	00140413          	addi	x8,x8,1
    9760:	04c12083          	lw	x1,76(x2)
    9764:	00040513          	addi	x10,x8,0
    9768:	04812403          	lw	x8,72(x2)
    976c:	04012903          	lw	x18,64(x2)
    9770:	03c12983          	lw	x19,60(x2)
    9774:	03812a03          	lw	x20,56(x2)
    9778:	03412a83          	lw	x21,52(x2)
    977c:	02c12b83          	lw	x23,44(x2)
    9780:	02812c03          	lw	x24,40(x2)
    9784:	02412c83          	lw	x25,36(x2)
    9788:	04412483          	lw	x9,68(x2)
    978c:	05010113          	addi	x2,x2,80
    9790:	00008067          	jalr	x0,0(x1)
    9794:	04c12083          	lw	x1,76(x2)
    9798:	04412483          	lw	x9,68(x2)
    979c:	00000513          	addi	x10,x0,0
    97a0:	05010113          	addi	x2,x2,80
    97a4:	00008067          	jalr	x0,0(x1)
    97a8:	00812583          	lw	x11,8(x2)
    97ac:	000a0513          	addi	x10,x20,0
    97b0:	03012b03          	lw	x22,48(x2)
    97b4:	02012d03          	lw	x26,32(x2)
    97b8:	01c12d83          	lw	x27,28(x2)
    97bc:	50d000ef          	jal	x1,a4c8 <__mcmp>
    97c0:	f00552e3          	bge	x10,x0,96c4 <__quorem_D2A+0x16c>
    97c4:	f9dff06f          	jal	x0,9760 <__quorem_D2A+0x208>

000097c8 <__rshift_D2A>:
    97c8:	01052803          	lw	x16,16(x10)
    97cc:	4055de13          	srai	x28,x11,0x5
    97d0:	010e4863          	blt	x28,x16,97e0 <__rshift_D2A+0x18>
    97d4:	00052823          	sw	x0,16(x10)
    97d8:	00052a23          	sw	x0,20(x10)
    97dc:	00008067          	jalr	x0,0(x1)
    97e0:	01450313          	addi	x6,x10,20
    97e4:	00281613          	slli	x12,x16,0x2
    97e8:	002e1793          	slli	x15,x28,0x2
    97ec:	01f5f593          	andi	x11,x11,31
    97f0:	00c30633          	add	x12,x6,x12
    97f4:	00f307b3          	add	x15,x6,x15
    97f8:	06058263          	beq	x11,x0,985c <__rshift_D2A+0x94>
    97fc:	0007a683          	lw	x13,0(x15)
    9800:	02000e93          	addi	x29,x0,32
    9804:	00478793          	addi	x15,x15,4
    9808:	40be8eb3          	sub	x29,x29,x11
    980c:	00b6d6b3          	srl	x13,x13,x11
    9810:	08c7f463          	bgeu	x15,x12,9898 <__rshift_D2A+0xd0>
    9814:	00030893          	addi	x17,x6,0
    9818:	0007a703          	lw	x14,0(x15)
    981c:	00488893          	addi	x17,x17,4
    9820:	00478793          	addi	x15,x15,4
    9824:	01d71733          	sll	x14,x14,x29
    9828:	00d76733          	or	x14,x14,x13
    982c:	fee8ae23          	sw	x14,-4(x17)
    9830:	ffc7a683          	lw	x13,-4(x15)
    9834:	00b6d6b3          	srl	x13,x13,x11
    9838:	fec7e0e3          	bltu	x15,x12,9818 <__rshift_D2A+0x50>
    983c:	41c80833          	sub	x16,x16,x28
    9840:	00281813          	slli	x16,x16,0x2
    9844:	ffc80813          	addi	x16,x16,-4
    9848:	01030833          	add	x16,x6,x16
    984c:	00d82023          	sw	x13,0(x16)
    9850:	02068a63          	beq	x13,x0,9884 <__rshift_D2A+0xbc>
    9854:	00480813          	addi	x16,x16,4
    9858:	02c0006f          	jal	x0,9884 <__rshift_D2A+0xbc>
    985c:	00030713          	addi	x14,x6,0
    9860:	f6c7fae3          	bgeu	x15,x12,97d4 <__rshift_D2A+0xc>
    9864:	0007a683          	lw	x13,0(x15)
    9868:	00478793          	addi	x15,x15,4
    986c:	00470713          	addi	x14,x14,4
    9870:	fed72e23          	sw	x13,-4(x14)
    9874:	fec7e8e3          	bltu	x15,x12,9864 <__rshift_D2A+0x9c>
    9878:	41c80833          	sub	x16,x16,x28
    987c:	00281813          	slli	x16,x16,0x2
    9880:	01030833          	add	x16,x6,x16
    9884:	406807b3          	sub	x15,x16,x6
    9888:	4027d793          	srai	x15,x15,0x2
    988c:	00f52823          	sw	x15,16(x10)
    9890:	f46804e3          	beq	x16,x6,97d8 <__rshift_D2A+0x10>
    9894:	00008067          	jalr	x0,0(x1)
    9898:	00d52a23          	sw	x13,20(x10)
    989c:	f2068ce3          	beq	x13,x0,97d4 <__rshift_D2A+0xc>
    98a0:	00030813          	addi	x16,x6,0
    98a4:	00480813          	addi	x16,x16,4
    98a8:	fddff06f          	jal	x0,9884 <__rshift_D2A+0xbc>

000098ac <__trailz_D2A>:
    98ac:	01052703          	lw	x14,16(x10)
    98b0:	fe010113          	addi	x2,x2,-32
    98b4:	01450513          	addi	x10,x10,20
    98b8:	00271713          	slli	x14,x14,0x2
    98bc:	00812c23          	sw	x8,24(x2)
    98c0:	00112e23          	sw	x1,28(x2)
    98c4:	00e50733          	add	x14,x10,x14
    98c8:	00000413          	addi	x8,x0,0
    98cc:	00e56a63          	bltu	x10,x14,98e0 <__trailz_D2A+0x34>
    98d0:	02c0006f          	jal	x0,98fc <__trailz_D2A+0x50>
    98d4:	00450513          	addi	x10,x10,4
    98d8:	02040413          	addi	x8,x8,32
    98dc:	02e57063          	bgeu	x10,x14,98fc <__trailz_D2A+0x50>
    98e0:	00052783          	lw	x15,0(x10)
    98e4:	fe0788e3          	beq	x15,x0,98d4 <__trailz_D2A+0x28>
    98e8:	00e57a63          	bgeu	x10,x14,98fc <__trailz_D2A+0x50>
    98ec:	00c10513          	addi	x10,x2,12
    98f0:	00f12623          	sw	x15,12(x2)
    98f4:	49c000ef          	jal	x1,9d90 <__lo0bits>
    98f8:	00a40433          	add	x8,x8,x10
    98fc:	01c12083          	lw	x1,28(x2)
    9900:	00040513          	addi	x10,x8,0
    9904:	01812403          	lw	x8,24(x2)
    9908:	02010113          	addi	x2,x2,32
    990c:	00008067          	jalr	x0,0(x1)

00009910 <_mbtowc_r>:
    9910:	e1c1a783          	lw	x15,-484(x3) # 12f5c <__global_locale+0xe4>
    9914:	00078067          	jalr	x0,0(x15)

00009918 <__ascii_mbtowc>:
    9918:	02058063          	beq	x11,x0,9938 <__ascii_mbtowc+0x20>
    991c:	04060263          	beq	x12,x0,9960 <__ascii_mbtowc+0x48>
    9920:	04068863          	beq	x13,x0,9970 <__ascii_mbtowc+0x58>
    9924:	00064783          	lbu	x15,0(x12)
    9928:	00f5a023          	sw	x15,0(x11)
    992c:	00064503          	lbu	x10,0(x12)
    9930:	00a03533          	sltu	x10,x0,x10
    9934:	00008067          	jalr	x0,0(x1)
    9938:	ff010113          	addi	x2,x2,-16
    993c:	00c10593          	addi	x11,x2,12
    9940:	02060463          	beq	x12,x0,9968 <__ascii_mbtowc+0x50>
    9944:	02068a63          	beq	x13,x0,9978 <__ascii_mbtowc+0x60>
    9948:	00064783          	lbu	x15,0(x12)
    994c:	00f5a023          	sw	x15,0(x11)
    9950:	00064503          	lbu	x10,0(x12)
    9954:	00a03533          	sltu	x10,x0,x10
    9958:	01010113          	addi	x2,x2,16
    995c:	00008067          	jalr	x0,0(x1)
    9960:	00000513          	addi	x10,x0,0
    9964:	00008067          	jalr	x0,0(x1)
    9968:	00000513          	addi	x10,x0,0
    996c:	fedff06f          	jal	x0,9958 <__ascii_mbtowc+0x40>
    9970:	ffe00513          	addi	x10,x0,-2
    9974:	00008067          	jalr	x0,0(x1)
    9978:	ffe00513          	addi	x10,x0,-2
    997c:	fddff06f          	jal	x0,9958 <__ascii_mbtowc+0x40>

00009980 <_Balloc>:
    9980:	04452783          	lw	x15,68(x10)
    9984:	ff010113          	addi	x2,x2,-16
    9988:	00812423          	sw	x8,8(x2)
    998c:	00912223          	sw	x9,4(x2)
    9990:	00112623          	sw	x1,12(x2)
    9994:	00050413          	addi	x8,x10,0
    9998:	00058493          	addi	x9,x11,0
    999c:	02078c63          	beq	x15,x0,99d4 <_Balloc+0x54>
    99a0:	00249713          	slli	x14,x9,0x2
    99a4:	00e787b3          	add	x15,x15,x14
    99a8:	0007a503          	lw	x10,0(x15)
    99ac:	04050463          	beq	x10,x0,99f4 <_Balloc+0x74>
    99b0:	00052703          	lw	x14,0(x10)
    99b4:	00e7a023          	sw	x14,0(x15)
    99b8:	00052823          	sw	x0,16(x10)
    99bc:	00052623          	sw	x0,12(x10)
    99c0:	00c12083          	lw	x1,12(x2)
    99c4:	00812403          	lw	x8,8(x2)
    99c8:	00412483          	lw	x9,4(x2)
    99cc:	01010113          	addi	x2,x2,16
    99d0:	00008067          	jalr	x0,0(x1)
    99d4:	02100613          	addi	x12,x0,33
    99d8:	00400593          	addi	x11,x0,4
    99dc:	4c9010ef          	jal	x1,b6a4 <_calloc_r>
    99e0:	04a42223          	sw	x10,68(x8)
    99e4:	00050793          	addi	x15,x10,0
    99e8:	fa051ce3          	bne	x10,x0,99a0 <_Balloc+0x20>
    99ec:	00000513          	addi	x10,x0,0
    99f0:	fd1ff06f          	jal	x0,99c0 <_Balloc+0x40>
    99f4:	01212023          	sw	x18,0(x2)
    99f8:	00100913          	addi	x18,x0,1
    99fc:	00991933          	sll	x18,x18,x9
    9a00:	00590613          	addi	x12,x18,5
    9a04:	00261613          	slli	x12,x12,0x2
    9a08:	00100593          	addi	x11,x0,1
    9a0c:	00040513          	addi	x10,x8,0
    9a10:	495010ef          	jal	x1,b6a4 <_calloc_r>
    9a14:	00050a63          	beq	x10,x0,9a28 <_Balloc+0xa8>
    9a18:	01252423          	sw	x18,8(x10)
    9a1c:	00952223          	sw	x9,4(x10)
    9a20:	00012903          	lw	x18,0(x2)
    9a24:	f95ff06f          	jal	x0,99b8 <_Balloc+0x38>
    9a28:	00012903          	lw	x18,0(x2)
    9a2c:	00000513          	addi	x10,x0,0
    9a30:	f91ff06f          	jal	x0,99c0 <_Balloc+0x40>

00009a34 <_Bfree>:
    9a34:	02058063          	beq	x11,x0,9a54 <_Bfree+0x20>
    9a38:	0045a703          	lw	x14,4(x11)
    9a3c:	04452783          	lw	x15,68(x10)
    9a40:	00271713          	slli	x14,x14,0x2
    9a44:	00e787b3          	add	x15,x15,x14
    9a48:	0007a703          	lw	x14,0(x15)
    9a4c:	00e5a023          	sw	x14,0(x11)
    9a50:	00b7a023          	sw	x11,0(x15)
    9a54:	00008067          	jalr	x0,0(x1)

00009a58 <__multadd>:
    9a58:	fd010113          	addi	x2,x2,-48
    9a5c:	01412c23          	sw	x20,24(x2)
    9a60:	0105aa03          	lw	x20,16(x11)
    9a64:	01912223          	sw	x25,4(x2)
    9a68:	00010cb7          	lui	x25,0x10
    9a6c:	02912223          	sw	x9,36(x2)
    9a70:	03212023          	sw	x18,32(x2)
    9a74:	01312e23          	sw	x19,28(x2)
    9a78:	01512a23          	sw	x21,20(x2)
    9a7c:	01612823          	sw	x22,16(x2)
    9a80:	01712623          	sw	x23,12(x2)
    9a84:	02112623          	sw	x1,44(x2)
    9a88:	02812423          	sw	x8,40(x2)
    9a8c:	01812423          	sw	x24,8(x2)
    9a90:	00058a93          	addi	x21,x11,0
    9a94:	00050b13          	addi	x22,x10,0
    9a98:	00060993          	addi	x19,x12,0
    9a9c:	00068493          	addi	x9,x13,0
    9aa0:	01458913          	addi	x18,x11,20
    9aa4:	00000b93          	addi	x23,x0,0
    9aa8:	fffc8c93          	addi	x25,x25,-1 # ffff <__multf3+0x125b>
    9aac:	00092c03          	lw	x24,0(x18)
    9ab0:	00098593          	addi	x11,x19,0
    9ab4:	00490913          	addi	x18,x18,4
    9ab8:	019c7533          	and	x10,x24,x25
    9abc:	05c080ef          	jal	x1,11b18 <__mulsi3>
    9ac0:	00050413          	addi	x8,x10,0
    9ac4:	00098593          	addi	x11,x19,0
    9ac8:	010c5513          	srli	x10,x24,0x10
    9acc:	00940433          	add	x8,x8,x9
    9ad0:	048080ef          	jal	x1,11b18 <__mulsi3>
    9ad4:	01045793          	srli	x15,x8,0x10
    9ad8:	00f50533          	add	x10,x10,x15
    9adc:	01051793          	slli	x15,x10,0x10
    9ae0:	01947433          	and	x8,x8,x25
    9ae4:	008787b3          	add	x15,x15,x8
    9ae8:	fef92e23          	sw	x15,-4(x18)
    9aec:	001b8b93          	addi	x23,x23,1
    9af0:	01055493          	srli	x9,x10,0x10
    9af4:	fb4bcce3          	blt	x23,x20,9aac <__multadd+0x54>
    9af8:	02048263          	beq	x9,x0,9b1c <__multadd+0xc4>
    9afc:	008aa783          	lw	x15,8(x21)
    9b00:	04fa5a63          	bge	x20,x15,9b54 <__multadd+0xfc>
    9b04:	004a0793          	addi	x15,x20,4
    9b08:	00279793          	slli	x15,x15,0x2
    9b0c:	00fa87b3          	add	x15,x21,x15
    9b10:	0097a223          	sw	x9,4(x15)
    9b14:	001a0a13          	addi	x20,x20,1
    9b18:	014aa823          	sw	x20,16(x21)
    9b1c:	02c12083          	lw	x1,44(x2)
    9b20:	02812403          	lw	x8,40(x2)
    9b24:	02412483          	lw	x9,36(x2)
    9b28:	02012903          	lw	x18,32(x2)
    9b2c:	01c12983          	lw	x19,28(x2)
    9b30:	01812a03          	lw	x20,24(x2)
    9b34:	01012b03          	lw	x22,16(x2)
    9b38:	00c12b83          	lw	x23,12(x2)
    9b3c:	00812c03          	lw	x24,8(x2)
    9b40:	00412c83          	lw	x25,4(x2)
    9b44:	000a8513          	addi	x10,x21,0
    9b48:	01412a83          	lw	x21,20(x2)
    9b4c:	03010113          	addi	x2,x2,48
    9b50:	00008067          	jalr	x0,0(x1)
    9b54:	004aa583          	lw	x11,4(x21)
    9b58:	000b0513          	addi	x10,x22,0
    9b5c:	00158593          	addi	x11,x11,1
    9b60:	e21ff0ef          	jal	x1,9980 <_Balloc>
    9b64:	00050413          	addi	x8,x10,0
    9b68:	04050c63          	beq	x10,x0,9bc0 <__multadd+0x168>
    9b6c:	010aa603          	lw	x12,16(x21)
    9b70:	00ca8593          	addi	x11,x21,12
    9b74:	00c50513          	addi	x10,x10,12
    9b78:	00260613          	addi	x12,x12,2
    9b7c:	00261613          	slli	x12,x12,0x2
    9b80:	cd4fd0ef          	jal	x1,7054 <memcpy>
    9b84:	004aa703          	lw	x14,4(x21)
    9b88:	044b2783          	lw	x15,68(x22)
    9b8c:	00271713          	slli	x14,x14,0x2
    9b90:	00e787b3          	add	x15,x15,x14
    9b94:	0007a703          	lw	x14,0(x15)
    9b98:	00eaa023          	sw	x14,0(x21)
    9b9c:	0157a023          	sw	x21,0(x15)
    9ba0:	004a0793          	addi	x15,x20,4
    9ba4:	00040a93          	addi	x21,x8,0
    9ba8:	00279793          	slli	x15,x15,0x2
    9bac:	00fa87b3          	add	x15,x21,x15
    9bb0:	0097a223          	sw	x9,4(x15)
    9bb4:	001a0a13          	addi	x20,x20,1
    9bb8:	014aa823          	sw	x20,16(x21)
    9bbc:	f61ff06f          	jal	x0,9b1c <__multadd+0xc4>
    9bc0:	000126b7          	lui	x13,0x12
    9bc4:	00012537          	lui	x10,0x12
    9bc8:	f3868693          	addi	x13,x13,-200 # 11f38 <__clzsi2+0x348>
    9bcc:	00000613          	addi	x12,x0,0
    9bd0:	0ba00593          	addi	x11,x0,186
    9bd4:	f4c50513          	addi	x10,x10,-180 # 11f4c <__clzsi2+0x35c>
    9bd8:	265010ef          	jal	x1,b63c <__assert_func>

00009bdc <__s2b>:
    9bdc:	fe010113          	addi	x2,x2,-32
    9be0:	00812c23          	sw	x8,24(x2)
    9be4:	01212823          	sw	x18,16(x2)
    9be8:	00058413          	addi	x8,x11,0
    9bec:	00050913          	addi	x18,x10,0
    9bf0:	00900593          	addi	x11,x0,9
    9bf4:	00868513          	addi	x10,x13,8
    9bf8:	00912a23          	sw	x9,20(x2)
    9bfc:	01312623          	sw	x19,12(x2)
    9c00:	01412423          	sw	x20,8(x2)
    9c04:	00112e23          	sw	x1,28(x2)
    9c08:	00068493          	addi	x9,x13,0
    9c0c:	00060993          	addi	x19,x12,0
    9c10:	00070a13          	addi	x20,x14,0
    9c14:	729070ef          	jal	x1,11b3c <__divsi3>
    9c18:	00900793          	addi	x15,x0,9
    9c1c:	0c97da63          	bge	x15,x9,9cf0 <__s2b+0x114>
    9c20:	00100793          	addi	x15,x0,1
    9c24:	00000593          	addi	x11,x0,0
    9c28:	00179793          	slli	x15,x15,0x1
    9c2c:	00158593          	addi	x11,x11,1
    9c30:	fea7cce3          	blt	x15,x10,9c28 <__s2b+0x4c>
    9c34:	00090513          	addi	x10,x18,0
    9c38:	d49ff0ef          	jal	x1,9980 <_Balloc>
    9c3c:	00050593          	addi	x11,x10,0
    9c40:	0a050c63          	beq	x10,x0,9cf8 <__s2b+0x11c>
    9c44:	00100793          	addi	x15,x0,1
    9c48:	00f52823          	sw	x15,16(x10)
    9c4c:	01452a23          	sw	x20,20(x10)
    9c50:	00900793          	addi	x15,x0,9
    9c54:	0937d863          	bge	x15,x19,9ce4 <__s2b+0x108>
    9c58:	01512223          	sw	x21,4(x2)
    9c5c:	00940a93          	addi	x21,x8,9
    9c60:	01340a33          	add	x20,x8,x19
    9c64:	000a8413          	addi	x8,x21,0
    9c68:	00044683          	lbu	x13,0(x8)
    9c6c:	00a00613          	addi	x12,x0,10
    9c70:	00090513          	addi	x10,x18,0
    9c74:	fd068693          	addi	x13,x13,-48
    9c78:	de1ff0ef          	jal	x1,9a58 <__multadd>
    9c7c:	00140413          	addi	x8,x8,1
    9c80:	00050593          	addi	x11,x10,0
    9c84:	ff4412e3          	bne	x8,x20,9c68 <__s2b+0x8c>
    9c88:	ff898413          	addi	x8,x19,-8
    9c8c:	008a8433          	add	x8,x21,x8
    9c90:	00412a83          	lw	x21,4(x2)
    9c94:	0299d663          	bge	x19,x9,9cc0 <__s2b+0xe4>
    9c98:	413484b3          	sub	x9,x9,x19
    9c9c:	009404b3          	add	x9,x8,x9
    9ca0:	00044683          	lbu	x13,0(x8)
    9ca4:	00a00613          	addi	x12,x0,10
    9ca8:	00090513          	addi	x10,x18,0
    9cac:	fd068693          	addi	x13,x13,-48
    9cb0:	da9ff0ef          	jal	x1,9a58 <__multadd>
    9cb4:	00140413          	addi	x8,x8,1
    9cb8:	00050593          	addi	x11,x10,0
    9cbc:	fe9412e3          	bne	x8,x9,9ca0 <__s2b+0xc4>
    9cc0:	01c12083          	lw	x1,28(x2)
    9cc4:	01812403          	lw	x8,24(x2)
    9cc8:	01412483          	lw	x9,20(x2)
    9ccc:	01012903          	lw	x18,16(x2)
    9cd0:	00c12983          	lw	x19,12(x2)
    9cd4:	00812a03          	lw	x20,8(x2)
    9cd8:	00058513          	addi	x10,x11,0
    9cdc:	02010113          	addi	x2,x2,32
    9ce0:	00008067          	jalr	x0,0(x1)
    9ce4:	00a40413          	addi	x8,x8,10
    9ce8:	00900993          	addi	x19,x0,9
    9cec:	fa9ff06f          	jal	x0,9c94 <__s2b+0xb8>
    9cf0:	00000593          	addi	x11,x0,0
    9cf4:	f41ff06f          	jal	x0,9c34 <__s2b+0x58>
    9cf8:	000126b7          	lui	x13,0x12
    9cfc:	00012537          	lui	x10,0x12
    9d00:	f3868693          	addi	x13,x13,-200 # 11f38 <__clzsi2+0x348>
    9d04:	00000613          	addi	x12,x0,0
    9d08:	0d300593          	addi	x11,x0,211
    9d0c:	f4c50513          	addi	x10,x10,-180 # 11f4c <__clzsi2+0x35c>
    9d10:	01512223          	sw	x21,4(x2)
    9d14:	129010ef          	jal	x1,b63c <__assert_func>

00009d18 <__hi0bits>:
    9d18:	00050793          	addi	x15,x10,0
    9d1c:	00010737          	lui	x14,0x10
    9d20:	00000513          	addi	x10,x0,0
    9d24:	00e7f663          	bgeu	x15,x14,9d30 <__hi0bits+0x18>
    9d28:	01079793          	slli	x15,x15,0x10
    9d2c:	01000513          	addi	x10,x0,16
    9d30:	01000737          	lui	x14,0x1000
    9d34:	00e7f663          	bgeu	x15,x14,9d40 <__hi0bits+0x28>
    9d38:	00850513          	addi	x10,x10,8
    9d3c:	00879793          	slli	x15,x15,0x8
    9d40:	10000737          	lui	x14,0x10000
    9d44:	00e7f663          	bgeu	x15,x14,9d50 <__hi0bits+0x38>
    9d48:	00450513          	addi	x10,x10,4
    9d4c:	00479793          	slli	x15,x15,0x4
    9d50:	40000737          	lui	x14,0x40000
    9d54:	00e7ea63          	bltu	x15,x14,9d68 <__hi0bits+0x50>
    9d58:	fff7c793          	xori	x15,x15,-1
    9d5c:	01f7d793          	srli	x15,x15,0x1f
    9d60:	00f50533          	add	x10,x10,x15
    9d64:	00008067          	jalr	x0,0(x1)
    9d68:	00279793          	slli	x15,x15,0x2
    9d6c:	0007ca63          	blt	x15,x0,9d80 <__hi0bits+0x68>
    9d70:	00179713          	slli	x14,x15,0x1
    9d74:	00074a63          	blt	x14,x0,9d88 <__hi0bits+0x70>
    9d78:	02000513          	addi	x10,x0,32
    9d7c:	00008067          	jalr	x0,0(x1)
    9d80:	00250513          	addi	x10,x10,2
    9d84:	00008067          	jalr	x0,0(x1)
    9d88:	00350513          	addi	x10,x10,3
    9d8c:	00008067          	jalr	x0,0(x1)

00009d90 <__lo0bits>:
    9d90:	00052783          	lw	x15,0(x10)
    9d94:	00050713          	addi	x14,x10,0
    9d98:	0077f693          	andi	x13,x15,7
    9d9c:	02068463          	beq	x13,x0,9dc4 <__lo0bits+0x34>
    9da0:	0017f693          	andi	x13,x15,1
    9da4:	00000513          	addi	x10,x0,0
    9da8:	04069e63          	bne	x13,x0,9e04 <__lo0bits+0x74>
    9dac:	0027f693          	andi	x13,x15,2
    9db0:	0a068863          	beq	x13,x0,9e60 <__lo0bits+0xd0>
    9db4:	0017d793          	srli	x15,x15,0x1
    9db8:	00f72023          	sw	x15,0(x14) # 40000000 <__heap_end+0x3fc00000>
    9dbc:	00100513          	addi	x10,x0,1
    9dc0:	00008067          	jalr	x0,0(x1)
    9dc4:	01079693          	slli	x13,x15,0x10
    9dc8:	0106d693          	srli	x13,x13,0x10
    9dcc:	00000513          	addi	x10,x0,0
    9dd0:	06068e63          	beq	x13,x0,9e4c <__lo0bits+0xbc>
    9dd4:	0ff7f693          	andi	x13,x15,255
    9dd8:	06068063          	beq	x13,x0,9e38 <__lo0bits+0xa8>
    9ddc:	00f7f693          	andi	x13,x15,15
    9de0:	04068263          	beq	x13,x0,9e24 <__lo0bits+0x94>
    9de4:	0037f693          	andi	x13,x15,3
    9de8:	02068463          	beq	x13,x0,9e10 <__lo0bits+0x80>
    9dec:	0017f693          	andi	x13,x15,1
    9df0:	00069c63          	bne	x13,x0,9e08 <__lo0bits+0x78>
    9df4:	0017d793          	srli	x15,x15,0x1
    9df8:	00150513          	addi	x10,x10,1
    9dfc:	00079663          	bne	x15,x0,9e08 <__lo0bits+0x78>
    9e00:	02000513          	addi	x10,x0,32
    9e04:	00008067          	jalr	x0,0(x1)
    9e08:	00f72023          	sw	x15,0(x14)
    9e0c:	00008067          	jalr	x0,0(x1)
    9e10:	0027d793          	srli	x15,x15,0x2
    9e14:	0017f693          	andi	x13,x15,1
    9e18:	00250513          	addi	x10,x10,2
    9e1c:	fe0696e3          	bne	x13,x0,9e08 <__lo0bits+0x78>
    9e20:	fd5ff06f          	jal	x0,9df4 <__lo0bits+0x64>
    9e24:	0047d793          	srli	x15,x15,0x4
    9e28:	0037f693          	andi	x13,x15,3
    9e2c:	00450513          	addi	x10,x10,4
    9e30:	fa069ee3          	bne	x13,x0,9dec <__lo0bits+0x5c>
    9e34:	fddff06f          	jal	x0,9e10 <__lo0bits+0x80>
    9e38:	0087d793          	srli	x15,x15,0x8
    9e3c:	00f7f693          	andi	x13,x15,15
    9e40:	00850513          	addi	x10,x10,8
    9e44:	fa0690e3          	bne	x13,x0,9de4 <__lo0bits+0x54>
    9e48:	fddff06f          	jal	x0,9e24 <__lo0bits+0x94>
    9e4c:	0107d793          	srli	x15,x15,0x10
    9e50:	0ff7f693          	andi	x13,x15,255
    9e54:	01000513          	addi	x10,x0,16
    9e58:	f80692e3          	bne	x13,x0,9ddc <__lo0bits+0x4c>
    9e5c:	fddff06f          	jal	x0,9e38 <__lo0bits+0xa8>
    9e60:	0027d793          	srli	x15,x15,0x2
    9e64:	00f72023          	sw	x15,0(x14)
    9e68:	00200513          	addi	x10,x0,2
    9e6c:	00008067          	jalr	x0,0(x1)

00009e70 <__i2b>:
    9e70:	04452783          	lw	x15,68(x10)
    9e74:	ff010113          	addi	x2,x2,-16
    9e78:	00812423          	sw	x8,8(x2)
    9e7c:	00912223          	sw	x9,4(x2)
    9e80:	00112623          	sw	x1,12(x2)
    9e84:	00050413          	addi	x8,x10,0
    9e88:	00058493          	addi	x9,x11,0
    9e8c:	02078c63          	beq	x15,x0,9ec4 <__i2b+0x54>
    9e90:	0047a503          	lw	x10,4(x15)
    9e94:	06050263          	beq	x10,x0,9ef8 <__i2b+0x88>
    9e98:	00052703          	lw	x14,0(x10)
    9e9c:	00e7a223          	sw	x14,4(x15)
    9ea0:	00c12083          	lw	x1,12(x2)
    9ea4:	00812403          	lw	x8,8(x2)
    9ea8:	00100793          	addi	x15,x0,1
    9eac:	00952a23          	sw	x9,20(x10)
    9eb0:	00052623          	sw	x0,12(x10)
    9eb4:	00f52823          	sw	x15,16(x10)
    9eb8:	00412483          	lw	x9,4(x2)
    9ebc:	01010113          	addi	x2,x2,16
    9ec0:	00008067          	jalr	x0,0(x1)
    9ec4:	02100613          	addi	x12,x0,33
    9ec8:	00400593          	addi	x11,x0,4
    9ecc:	7d8010ef          	jal	x1,b6a4 <_calloc_r>
    9ed0:	04a42223          	sw	x10,68(x8)
    9ed4:	00050793          	addi	x15,x10,0
    9ed8:	fa051ce3          	bne	x10,x0,9e90 <__i2b+0x20>
    9edc:	000126b7          	lui	x13,0x12
    9ee0:	00012537          	lui	x10,0x12
    9ee4:	f3868693          	addi	x13,x13,-200 # 11f38 <__clzsi2+0x348>
    9ee8:	00000613          	addi	x12,x0,0
    9eec:	14500593          	addi	x11,x0,325
    9ef0:	f4c50513          	addi	x10,x10,-180 # 11f4c <__clzsi2+0x35c>
    9ef4:	748010ef          	jal	x1,b63c <__assert_func>
    9ef8:	01c00613          	addi	x12,x0,28
    9efc:	00100593          	addi	x11,x0,1
    9f00:	00040513          	addi	x10,x8,0
    9f04:	7a0010ef          	jal	x1,b6a4 <_calloc_r>
    9f08:	fc050ae3          	beq	x10,x0,9edc <__i2b+0x6c>
    9f0c:	00100793          	addi	x15,x0,1
    9f10:	00f52223          	sw	x15,4(x10)
    9f14:	00200793          	addi	x15,x0,2
    9f18:	00f52423          	sw	x15,8(x10)
    9f1c:	f85ff06f          	jal	x0,9ea0 <__i2b+0x30>

00009f20 <__multiply>:
    9f20:	fb010113          	addi	x2,x2,-80
    9f24:	03312e23          	sw	x19,60(x2)
    9f28:	03812423          	sw	x24,40(x2)
    9f2c:	01062983          	lw	x19,16(x12)
    9f30:	0105ac03          	lw	x24,16(x11)
    9f34:	04812423          	sw	x8,72(x2)
    9f38:	03412c23          	sw	x20,56(x2)
    9f3c:	04112623          	sw	x1,76(x2)
    9f40:	03712623          	sw	x23,44(x2)
    9f44:	00058a13          	addi	x20,x11,0
    9f48:	00060413          	addi	x8,x12,0
    9f4c:	013c4c63          	blt	x24,x19,9f64 <__multiply+0x44>
    9f50:	00098713          	addi	x14,x19,0
    9f54:	00058413          	addi	x8,x11,0
    9f58:	000c0993          	addi	x19,x24,0
    9f5c:	00060a13          	addi	x20,x12,0
    9f60:	00070c13          	addi	x24,x14,0
    9f64:	00842783          	lw	x15,8(x8)
    9f68:	00442583          	lw	x11,4(x8)
    9f6c:	01898bb3          	add	x23,x19,x24
    9f70:	0177a7b3          	slt	x15,x15,x23
    9f74:	00f585b3          	add	x11,x11,x15
    9f78:	a09ff0ef          	jal	x1,9980 <_Balloc>
    9f7c:	00a12623          	sw	x10,12(x2)
    9f80:	22050863          	beq	x10,x0,a1b0 <__multiply+0x290>
    9f84:	00c12783          	lw	x15,12(x2)
    9f88:	03512a23          	sw	x21,52(x2)
    9f8c:	03612823          	sw	x22,48(x2)
    9f90:	002b9a93          	slli	x21,x23,0x2
    9f94:	01478b13          	addi	x22,x15,20
    9f98:	015b0ab3          	add	x21,x22,x21
    9f9c:	000b0793          	addi	x15,x22,0
    9fa0:	015b7863          	bgeu	x22,x21,9fb0 <__multiply+0x90>
    9fa4:	0007a023          	sw	x0,0(x15)
    9fa8:	00478793          	addi	x15,x15,4
    9fac:	ff57ece3          	bltu	x15,x21,9fa4 <__multiply+0x84>
    9fb0:	014a0a13          	addi	x20,x20,20
    9fb4:	002c1c13          	slli	x24,x24,0x2
    9fb8:	01440793          	addi	x15,x8,20
    9fbc:	018a0733          	add	x14,x20,x24
    9fc0:	00299993          	slli	x19,x19,0x2
    9fc4:	00f12423          	sw	x15,8(x2)
    9fc8:	00e12023          	sw	x14,0(x2)
    9fcc:	013789b3          	add	x19,x15,x19
    9fd0:	16ea7c63          	bgeu	x20,x14,a148 <__multiply+0x228>
    9fd4:	00400713          	addi	x14,x0,4
    9fd8:	04912223          	sw	x9,68(x2)
    9fdc:	05212023          	sw	x18,64(x2)
    9fe0:	03912223          	sw	x25,36(x2)
    9fe4:	03a12023          	sw	x26,32(x2)
    9fe8:	01b12e23          	sw	x27,28(x2)
    9fec:	01540793          	addi	x15,x8,21
    9ff0:	00e12223          	sw	x14,4(x2)
    9ff4:	1af9f263          	bgeu	x19,x15,a198 <__multiply+0x278>
    9ff8:	00010437          	lui	x8,0x10
    9ffc:	fff40413          	addi	x8,x8,-1 # ffff <__multf3+0x125b>
    a000:	01c0006f          	jal	x0,a01c <__multiply+0xfc>
    a004:	01095913          	srli	x18,x18,0x10
    a008:	0a091063          	bne	x18,x0,a0a8 <__multiply+0x188>
    a00c:	00012783          	lw	x15,0(x2)
    a010:	004a0a13          	addi	x20,x20,4
    a014:	004b0b13          	addi	x22,x22,4
    a018:	10fa7e63          	bgeu	x20,x15,a134 <__multiply+0x214>
    a01c:	000a2903          	lw	x18,0(x20)
    a020:	008974b3          	and	x9,x18,x8
    a024:	fe0480e3          	beq	x9,x0,a004 <__multiply+0xe4>
    a028:	00812c83          	lw	x25,8(x2)
    a02c:	000b0d13          	addi	x26,x22,0
    a030:	00000c13          	addi	x24,x0,0
    a034:	000cad83          	lw	x27,0(x25)
    a038:	000d2903          	lw	x18,0(x26)
    a03c:	00048593          	addi	x11,x9,0
    a040:	008df533          	and	x10,x27,x8
    a044:	2d5070ef          	jal	x1,11b18 <__mulsi3>
    a048:	00897733          	and	x14,x18,x8
    a04c:	00e50733          	add	x14,x10,x14
    a050:	00048593          	addi	x11,x9,0
    a054:	010dd513          	srli	x10,x27,0x10
    a058:	01870c33          	add	x24,x14,x24
    a05c:	01095913          	srli	x18,x18,0x10
    a060:	2b9070ef          	jal	x1,11b18 <__mulsi3>
    a064:	010c5713          	srli	x14,x24,0x10
    a068:	01250533          	add	x10,x10,x18
    a06c:	00e50533          	add	x10,x10,x14
    a070:	008c77b3          	and	x15,x24,x8
    a074:	01051713          	slli	x14,x10,0x10
    a078:	004d0d13          	addi	x26,x26,4
    a07c:	00f767b3          	or	x15,x14,x15
    a080:	004c8c93          	addi	x25,x25,4
    a084:	fefd2e23          	sw	x15,-4(x26)
    a088:	01055c13          	srli	x24,x10,0x10
    a08c:	fb3ce4e3          	bltu	x25,x19,a034 <__multiply+0x114>
    a090:	00412783          	lw	x15,4(x2)
    a094:	00fb0733          	add	x14,x22,x15
    a098:	01872023          	sw	x24,0(x14)
    a09c:	000a2903          	lw	x18,0(x20)
    a0a0:	01095913          	srli	x18,x18,0x10
    a0a4:	f60904e3          	beq	x18,x0,a00c <__multiply+0xec>
    a0a8:	000b2c83          	lw	x25,0(x22)
    a0ac:	00812d03          	lw	x26,8(x2)
    a0b0:	000b0c13          	addi	x24,x22,0
    a0b4:	000c8493          	addi	x9,x25,0
    a0b8:	00000d93          	addi	x27,x0,0
    a0bc:	000d2503          	lw	x10,0(x26)
    a0c0:	00090593          	addi	x11,x18,0
    a0c4:	0104d493          	srli	x9,x9,0x10
    a0c8:	00857533          	and	x10,x10,x8
    a0cc:	24d070ef          	jal	x1,11b18 <__mulsi3>
    a0d0:	01b50733          	add	x14,x10,x27
    a0d4:	00970db3          	add	x27,x14,x9
    a0d8:	010d9593          	slli	x11,x27,0x10
    a0dc:	008cf7b3          	and	x15,x25,x8
    a0e0:	00f5e7b3          	or	x15,x11,x15
    a0e4:	00fc2023          	sw	x15,0(x24)
    a0e8:	002d5503          	lhu	x10,2(x26)
    a0ec:	004c2483          	lw	x9,4(x24)
    a0f0:	00090593          	addi	x11,x18,0
    a0f4:	225070ef          	jal	x1,11b18 <__mulsi3>
    a0f8:	0084f7b3          	and	x15,x9,x8
    a0fc:	010dd713          	srli	x14,x27,0x10
    a100:	00f507b3          	add	x15,x10,x15
    a104:	004d0d13          	addi	x26,x26,4
    a108:	00e78cb3          	add	x25,x15,x14
    a10c:	004c0c13          	addi	x24,x24,4
    a110:	010cdd93          	srli	x27,x25,0x10
    a114:	fb3d64e3          	bltu	x26,x19,a0bc <__multiply+0x19c>
    a118:	00412783          	lw	x15,4(x2)
    a11c:	004a0a13          	addi	x20,x20,4
    a120:	00fb0733          	add	x14,x22,x15
    a124:	00012783          	lw	x15,0(x2)
    a128:	01972023          	sw	x25,0(x14)
    a12c:	004b0b13          	addi	x22,x22,4
    a130:	eefa66e3          	bltu	x20,x15,a01c <__multiply+0xfc>
    a134:	04412483          	lw	x9,68(x2)
    a138:	04012903          	lw	x18,64(x2)
    a13c:	02412c83          	lw	x25,36(x2)
    a140:	02012d03          	lw	x26,32(x2)
    a144:	01c12d83          	lw	x27,28(x2)
    a148:	01704863          	blt	x0,x23,a158 <__multiply+0x238>
    a14c:	0180006f          	jal	x0,a164 <__multiply+0x244>
    a150:	fffb8b93          	addi	x23,x23,-1
    a154:	000b8863          	beq	x23,x0,a164 <__multiply+0x244>
    a158:	ffcaa783          	lw	x15,-4(x21)
    a15c:	ffca8a93          	addi	x21,x21,-4
    a160:	fe0788e3          	beq	x15,x0,a150 <__multiply+0x230>
    a164:	00c12783          	lw	x15,12(x2)
    a168:	04c12083          	lw	x1,76(x2)
    a16c:	04812403          	lw	x8,72(x2)
    a170:	0177a823          	sw	x23,16(x15)
    a174:	03412a83          	lw	x21,52(x2)
    a178:	03012b03          	lw	x22,48(x2)
    a17c:	03c12983          	lw	x19,60(x2)
    a180:	03812a03          	lw	x20,56(x2)
    a184:	02c12b83          	lw	x23,44(x2)
    a188:	02812c03          	lw	x24,40(x2)
    a18c:	00078513          	addi	x10,x15,0
    a190:	05010113          	addi	x2,x2,80
    a194:	00008067          	jalr	x0,0(x1)
    a198:	408987b3          	sub	x15,x19,x8
    a19c:	feb78793          	addi	x15,x15,-21
    a1a0:	ffc7f793          	andi	x15,x15,-4
    a1a4:	00478793          	addi	x15,x15,4
    a1a8:	00f12223          	sw	x15,4(x2)
    a1ac:	e4dff06f          	jal	x0,9ff8 <__multiply+0xd8>
    a1b0:	000126b7          	lui	x13,0x12
    a1b4:	00012537          	lui	x10,0x12
    a1b8:	f3868693          	addi	x13,x13,-200 # 11f38 <__clzsi2+0x348>
    a1bc:	00000613          	addi	x12,x0,0
    a1c0:	16200593          	addi	x11,x0,354
    a1c4:	f4c50513          	addi	x10,x10,-180 # 11f4c <__clzsi2+0x35c>
    a1c8:	04912223          	sw	x9,68(x2)
    a1cc:	05212023          	sw	x18,64(x2)
    a1d0:	03512a23          	sw	x21,52(x2)
    a1d4:	03612823          	sw	x22,48(x2)
    a1d8:	03912223          	sw	x25,36(x2)
    a1dc:	03a12023          	sw	x26,32(x2)
    a1e0:	01b12e23          	sw	x27,28(x2)
    a1e4:	458010ef          	jal	x1,b63c <__assert_func>

0000a1e8 <__pow5mult>:
    a1e8:	fe010113          	addi	x2,x2,-32
    a1ec:	00812c23          	sw	x8,24(x2)
    a1f0:	01212823          	sw	x18,16(x2)
    a1f4:	01312623          	sw	x19,12(x2)
    a1f8:	00112e23          	sw	x1,28(x2)
    a1fc:	00367793          	andi	x15,x12,3
    a200:	00060413          	addi	x8,x12,0
    a204:	00050993          	addi	x19,x10,0
    a208:	00058913          	addi	x18,x11,0
    a20c:	0a079c63          	bne	x15,x0,a2c4 <__pow5mult+0xdc>
    a210:	40245413          	srai	x8,x8,0x2
    a214:	06040a63          	beq	x8,x0,a288 <__pow5mult+0xa0>
    a218:	00912a23          	sw	x9,20(x2)
    a21c:	0409a483          	lw	x9,64(x19)
    a220:	0c048663          	beq	x9,x0,a2ec <__pow5mult+0x104>
    a224:	00147793          	andi	x15,x8,1
    a228:	02079063          	bne	x15,x0,a248 <__pow5mult+0x60>
    a22c:	40145413          	srai	x8,x8,0x1
    a230:	04040a63          	beq	x8,x0,a284 <__pow5mult+0x9c>
    a234:	0004a503          	lw	x10,0(x9)
    a238:	06050663          	beq	x10,x0,a2a4 <__pow5mult+0xbc>
    a23c:	00050493          	addi	x9,x10,0
    a240:	00147793          	andi	x15,x8,1
    a244:	fe0784e3          	beq	x15,x0,a22c <__pow5mult+0x44>
    a248:	00048613          	addi	x12,x9,0
    a24c:	00090593          	addi	x11,x18,0
    a250:	00098513          	addi	x10,x19,0
    a254:	ccdff0ef          	jal	x1,9f20 <__multiply>
    a258:	02090063          	beq	x18,x0,a278 <__pow5mult+0x90>
    a25c:	00492703          	lw	x14,4(x18)
    a260:	0449a783          	lw	x15,68(x19)
    a264:	00271713          	slli	x14,x14,0x2
    a268:	00e787b3          	add	x15,x15,x14
    a26c:	0007a703          	lw	x14,0(x15)
    a270:	00e92023          	sw	x14,0(x18)
    a274:	0127a023          	sw	x18,0(x15)
    a278:	40145413          	srai	x8,x8,0x1
    a27c:	00050913          	addi	x18,x10,0
    a280:	fa041ae3          	bne	x8,x0,a234 <__pow5mult+0x4c>
    a284:	01412483          	lw	x9,20(x2)
    a288:	01c12083          	lw	x1,28(x2)
    a28c:	01812403          	lw	x8,24(x2)
    a290:	00c12983          	lw	x19,12(x2)
    a294:	00090513          	addi	x10,x18,0
    a298:	01012903          	lw	x18,16(x2)
    a29c:	02010113          	addi	x2,x2,32
    a2a0:	00008067          	jalr	x0,0(x1)
    a2a4:	00048613          	addi	x12,x9,0
    a2a8:	00048593          	addi	x11,x9,0
    a2ac:	00098513          	addi	x10,x19,0
    a2b0:	c71ff0ef          	jal	x1,9f20 <__multiply>
    a2b4:	00a4a023          	sw	x10,0(x9)
    a2b8:	00052023          	sw	x0,0(x10)
    a2bc:	00050493          	addi	x9,x10,0
    a2c0:	f81ff06f          	jal	x0,a240 <__pow5mult+0x58>
    a2c4:	fff78793          	addi	x15,x15,-1
    a2c8:	00012737          	lui	x14,0x12
    a2cc:	52070713          	addi	x14,x14,1312 # 12520 <p05.0>
    a2d0:	00279793          	slli	x15,x15,0x2
    a2d4:	00f707b3          	add	x15,x14,x15
    a2d8:	0007a603          	lw	x12,0(x15)
    a2dc:	00000693          	addi	x13,x0,0
    a2e0:	f78ff0ef          	jal	x1,9a58 <__multadd>
    a2e4:	00050913          	addi	x18,x10,0
    a2e8:	f29ff06f          	jal	x0,a210 <__pow5mult+0x28>
    a2ec:	00100593          	addi	x11,x0,1
    a2f0:	00098513          	addi	x10,x19,0
    a2f4:	e8cff0ef          	jal	x1,9980 <_Balloc>
    a2f8:	00050493          	addi	x9,x10,0
    a2fc:	02050063          	beq	x10,x0,a31c <__pow5mult+0x134>
    a300:	27100793          	addi	x15,x0,625
    a304:	00f52a23          	sw	x15,20(x10)
    a308:	00100793          	addi	x15,x0,1
    a30c:	00f52823          	sw	x15,16(x10)
    a310:	04a9a023          	sw	x10,64(x19)
    a314:	00052023          	sw	x0,0(x10)
    a318:	f0dff06f          	jal	x0,a224 <__pow5mult+0x3c>
    a31c:	000126b7          	lui	x13,0x12
    a320:	00012537          	lui	x10,0x12
    a324:	f3868693          	addi	x13,x13,-200 # 11f38 <__clzsi2+0x348>
    a328:	00000613          	addi	x12,x0,0
    a32c:	14500593          	addi	x11,x0,325
    a330:	f4c50513          	addi	x10,x10,-180 # 11f4c <__clzsi2+0x35c>
    a334:	308010ef          	jal	x1,b63c <__assert_func>

0000a338 <__lshift>:
    a338:	fe010113          	addi	x2,x2,-32
    a33c:	01512223          	sw	x21,4(x2)
    a340:	0105aa83          	lw	x21,16(x11)
    a344:	0085a783          	lw	x15,8(x11)
    a348:	01312623          	sw	x19,12(x2)
    a34c:	40565993          	srai	x19,x12,0x5
    a350:	01598ab3          	add	x21,x19,x21
    a354:	00812c23          	sw	x8,24(x2)
    a358:	00912a23          	sw	x9,20(x2)
    a35c:	01212823          	sw	x18,16(x2)
    a360:	01412423          	sw	x20,8(x2)
    a364:	00112e23          	sw	x1,28(x2)
    a368:	001a8913          	addi	x18,x21,1
    a36c:	00058493          	addi	x9,x11,0
    a370:	00060413          	addi	x8,x12,0
    a374:	0045a583          	lw	x11,4(x11)
    a378:	00050a13          	addi	x20,x10,0
    a37c:	0127d863          	bge	x15,x18,a38c <__lshift+0x54>
    a380:	00179793          	slli	x15,x15,0x1
    a384:	00158593          	addi	x11,x11,1
    a388:	ff27cce3          	blt	x15,x18,a380 <__lshift+0x48>
    a38c:	000a0513          	addi	x10,x20,0
    a390:	df0ff0ef          	jal	x1,9980 <_Balloc>
    a394:	10050c63          	beq	x10,x0,a4ac <__lshift+0x174>
    a398:	01450813          	addi	x16,x10,20
    a39c:	03305463          	bge	x0,x19,a3c4 <__lshift+0x8c>
    a3a0:	00598993          	addi	x19,x19,5
    a3a4:	00299993          	slli	x19,x19,0x2
    a3a8:	01350733          	add	x14,x10,x19
    a3ac:	00080793          	addi	x15,x16,0
    a3b0:	00478793          	addi	x15,x15,4
    a3b4:	fe07ae23          	sw	x0,-4(x15)
    a3b8:	fee79ce3          	bne	x15,x14,a3b0 <__lshift+0x78>
    a3bc:	fec98993          	addi	x19,x19,-20
    a3c0:	01380833          	add	x16,x16,x19
    a3c4:	0104a883          	lw	x17,16(x9)
    a3c8:	01448793          	addi	x15,x9,20
    a3cc:	01f47613          	andi	x12,x8,31
    a3d0:	00289893          	slli	x17,x17,0x2
    a3d4:	011788b3          	add	x17,x15,x17
    a3d8:	0a060463          	beq	x12,x0,a480 <__lshift+0x148>
    a3dc:	02000593          	addi	x11,x0,32
    a3e0:	40c585b3          	sub	x11,x11,x12
    a3e4:	00080313          	addi	x6,x16,0
    a3e8:	00000693          	addi	x13,x0,0
    a3ec:	0007a703          	lw	x14,0(x15)
    a3f0:	00430313          	addi	x6,x6,4
    a3f4:	00478793          	addi	x15,x15,4
    a3f8:	00c71733          	sll	x14,x14,x12
    a3fc:	00d76733          	or	x14,x14,x13
    a400:	fee32e23          	sw	x14,-4(x6)
    a404:	ffc7a683          	lw	x13,-4(x15)
    a408:	00b6d6b3          	srl	x13,x13,x11
    a40c:	ff17e0e3          	bltu	x15,x17,a3ec <__lshift+0xb4>
    a410:	01548793          	addi	x15,x9,21
    a414:	00400713          	addi	x14,x0,4
    a418:	00f8ea63          	bltu	x17,x15,a42c <__lshift+0xf4>
    a41c:	409887b3          	sub	x15,x17,x9
    a420:	feb78793          	addi	x15,x15,-21
    a424:	ffc7f793          	andi	x15,x15,-4
    a428:	00478713          	addi	x14,x15,4
    a42c:	00e80833          	add	x16,x16,x14
    a430:	00d82023          	sw	x13,0(x16)
    a434:	00069463          	bne	x13,x0,a43c <__lshift+0x104>
    a438:	000a8913          	addi	x18,x21,0
    a43c:	0044a703          	lw	x14,4(x9)
    a440:	044a2783          	lw	x15,68(x20)
    a444:	01c12083          	lw	x1,28(x2)
    a448:	00271713          	slli	x14,x14,0x2
    a44c:	00e787b3          	add	x15,x15,x14
    a450:	0007a703          	lw	x14,0(x15)
    a454:	01252823          	sw	x18,16(x10)
    a458:	01812403          	lw	x8,24(x2)
    a45c:	00e4a023          	sw	x14,0(x9)
    a460:	0097a023          	sw	x9,0(x15)
    a464:	01012903          	lw	x18,16(x2)
    a468:	01412483          	lw	x9,20(x2)
    a46c:	00c12983          	lw	x19,12(x2)
    a470:	00812a03          	lw	x20,8(x2)
    a474:	00412a83          	lw	x21,4(x2)
    a478:	02010113          	addi	x2,x2,32
    a47c:	00008067          	jalr	x0,0(x1)
    a480:	0007a703          	lw	x14,0(x15)
    a484:	00478793          	addi	x15,x15,4
    a488:	00480813          	addi	x16,x16,4
    a48c:	fee82e23          	sw	x14,-4(x16)
    a490:	fb17f4e3          	bgeu	x15,x17,a438 <__lshift+0x100>
    a494:	0007a703          	lw	x14,0(x15)
    a498:	00478793          	addi	x15,x15,4
    a49c:	00480813          	addi	x16,x16,4
    a4a0:	fee82e23          	sw	x14,-4(x16)
    a4a4:	fd17eee3          	bltu	x15,x17,a480 <__lshift+0x148>
    a4a8:	f91ff06f          	jal	x0,a438 <__lshift+0x100>
    a4ac:	000126b7          	lui	x13,0x12
    a4b0:	00012537          	lui	x10,0x12
    a4b4:	f3868693          	addi	x13,x13,-200 # 11f38 <__clzsi2+0x348>
    a4b8:	00000613          	addi	x12,x0,0
    a4bc:	1de00593          	addi	x11,x0,478
    a4c0:	f4c50513          	addi	x10,x10,-180 # 11f4c <__clzsi2+0x35c>
    a4c4:	178010ef          	jal	x1,b63c <__assert_func>

0000a4c8 <__mcmp>:
    a4c8:	01052703          	lw	x14,16(x10)
    a4cc:	0105a783          	lw	x15,16(x11)
    a4d0:	00050813          	addi	x16,x10,0
    a4d4:	40f70533          	sub	x10,x14,x15
    a4d8:	04f71263          	bne	x14,x15,a51c <__mcmp+0x54>
    a4dc:	00279793          	slli	x15,x15,0x2
    a4e0:	01480813          	addi	x16,x16,20
    a4e4:	01458593          	addi	x11,x11,20
    a4e8:	00f80733          	add	x14,x16,x15
    a4ec:	00f587b3          	add	x15,x11,x15
    a4f0:	0080006f          	jal	x0,a4f8 <__mcmp+0x30>
    a4f4:	02e87463          	bgeu	x16,x14,a51c <__mcmp+0x54>
    a4f8:	ffc72603          	lw	x12,-4(x14)
    a4fc:	ffc7a683          	lw	x13,-4(x15)
    a500:	ffc70713          	addi	x14,x14,-4
    a504:	ffc78793          	addi	x15,x15,-4
    a508:	fed606e3          	beq	x12,x13,a4f4 <__mcmp+0x2c>
    a50c:	00100513          	addi	x10,x0,1
    a510:	00d67663          	bgeu	x12,x13,a51c <__mcmp+0x54>
    a514:	fff00513          	addi	x10,x0,-1
    a518:	00008067          	jalr	x0,0(x1)
    a51c:	00008067          	jalr	x0,0(x1)

0000a520 <__mdiff>:
    a520:	0105a703          	lw	x14,16(x11)
    a524:	01062783          	lw	x15,16(x12)
    a528:	ff010113          	addi	x2,x2,-16
    a52c:	00812423          	sw	x8,8(x2)
    a530:	00912223          	sw	x9,4(x2)
    a534:	00112623          	sw	x1,12(x2)
    a538:	01212023          	sw	x18,0(x2)
    a53c:	00058413          	addi	x8,x11,0
    a540:	00060493          	addi	x9,x12,0
    a544:	40f706b3          	sub	x13,x14,x15
    a548:	18f71e63          	bne	x14,x15,a6e4 <__mdiff+0x1c4>
    a54c:	00279693          	slli	x13,x15,0x2
    a550:	01458613          	addi	x12,x11,20
    a554:	01448713          	addi	x14,x9,20
    a558:	00d607b3          	add	x15,x12,x13
    a55c:	00d70733          	add	x14,x14,x13
    a560:	0080006f          	jal	x0,a568 <__mdiff+0x48>
    a564:	18f67c63          	bgeu	x12,x15,a6fc <__mdiff+0x1dc>
    a568:	ffc7a583          	lw	x11,-4(x15)
    a56c:	ffc72683          	lw	x13,-4(x14)
    a570:	ffc78793          	addi	x15,x15,-4
    a574:	ffc70713          	addi	x14,x14,-4
    a578:	fed586e3          	beq	x11,x13,a564 <__mdiff+0x44>
    a57c:	00100913          	addi	x18,x0,1
    a580:	00d5ea63          	bltu	x11,x13,a594 <__mdiff+0x74>
    a584:	00048793          	addi	x15,x9,0
    a588:	00000913          	addi	x18,x0,0
    a58c:	00040493          	addi	x9,x8,0
    a590:	00078413          	addi	x8,x15,0
    a594:	0044a583          	lw	x11,4(x9)
    a598:	be8ff0ef          	jal	x1,9980 <_Balloc>
    a59c:	1a050663          	beq	x10,x0,a748 <__mdiff+0x228>
    a5a0:	0104a883          	lw	x17,16(x9)
    a5a4:	01042283          	lw	x5,16(x8)
    a5a8:	01448f93          	addi	x31,x9,20
    a5ac:	00289313          	slli	x6,x17,0x2
    a5b0:	01440813          	addi	x16,x8,20
    a5b4:	00229293          	slli	x5,x5,0x2
    a5b8:	01450593          	addi	x11,x10,20
    a5bc:	00010e37          	lui	x28,0x10
    a5c0:	01252623          	sw	x18,12(x10)
    a5c4:	006f8333          	add	x6,x31,x6
    a5c8:	005802b3          	add	x5,x16,x5
    a5cc:	00058f13          	addi	x30,x11,0
    a5d0:	000f8e93          	addi	x29,x31,0
    a5d4:	00000693          	addi	x13,x0,0
    a5d8:	fffe0e13          	addi	x28,x28,-1 # ffff <__multf3+0x125b>
    a5dc:	000ea703          	lw	x14,0(x29)
    a5e0:	00082603          	lw	x12,0(x16)
    a5e4:	004f0f13          	addi	x30,x30,4
    a5e8:	01c777b3          	and	x15,x14,x28
    a5ec:	01c673b3          	and	x7,x12,x28
    a5f0:	407787b3          	sub	x15,x15,x7
    a5f4:	00d787b3          	add	x15,x15,x13
    a5f8:	01075713          	srli	x14,x14,0x10
    a5fc:	01065613          	srli	x12,x12,0x10
    a600:	4107d693          	srai	x13,x15,0x10
    a604:	40c70733          	sub	x14,x14,x12
    a608:	00d70733          	add	x14,x14,x13
    a60c:	01071693          	slli	x13,x14,0x10
    a610:	01c7f7b3          	and	x15,x15,x28
    a614:	00d7e7b3          	or	x15,x15,x13
    a618:	00480813          	addi	x16,x16,4
    a61c:	feff2e23          	sw	x15,-4(x30)
    a620:	004e8e93          	addi	x29,x29,4
    a624:	41075693          	srai	x13,x14,0x10
    a628:	fa586ae3          	bltu	x16,x5,a5dc <__mdiff+0xbc>
    a62c:	01540713          	addi	x14,x8,21
    a630:	40828433          	sub	x8,x5,x8
    a634:	feb40413          	addi	x8,x8,-21
    a638:	00e2b2b3          	sltu	x5,x5,x14
    a63c:	0012cf13          	xori	x30,x5,1
    a640:	00245413          	srli	x8,x8,0x2
    a644:	00400713          	addi	x14,x0,4
    a648:	0a028463          	beq	x5,x0,a6f0 <__mdiff+0x1d0>
    a64c:	00ef8fb3          	add	x31,x31,x14
    a650:	00e58833          	add	x16,x11,x14
    a654:	00010eb7          	lui	x29,0x10
    a658:	00080e13          	addi	x28,x16,0
    a65c:	000f8613          	addi	x12,x31,0
    a660:	fffe8e93          	addi	x29,x29,-1 # ffff <__multf3+0x125b>
    a664:	0c6ff463          	bgeu	x31,x6,a72c <__mdiff+0x20c>
    a668:	00062783          	lw	x15,0(x12)
    a66c:	004e0e13          	addi	x28,x28,4
    a670:	00460613          	addi	x12,x12,4
    a674:	01d7f733          	and	x14,x15,x29
    a678:	00d70733          	add	x14,x14,x13
    a67c:	0107d593          	srli	x11,x15,0x10
    a680:	41075713          	srai	x14,x14,0x10
    a684:	00b70733          	add	x14,x14,x11
    a688:	00d787b3          	add	x15,x15,x13
    a68c:	01d7f7b3          	and	x15,x15,x29
    a690:	01071693          	slli	x13,x14,0x10
    a694:	00d7e7b3          	or	x15,x15,x13
    a698:	fefe2e23          	sw	x15,-4(x28)
    a69c:	41075693          	srai	x13,x14,0x10
    a6a0:	fc6664e3          	bltu	x12,x6,a668 <__mdiff+0x148>
    a6a4:	fff30313          	addi	x6,x6,-1
    a6a8:	41f30333          	sub	x6,x6,x31
    a6ac:	ffc37313          	andi	x6,x6,-4
    a6b0:	00680733          	add	x14,x16,x6
    a6b4:	00079a63          	bne	x15,x0,a6c8 <__mdiff+0x1a8>
    a6b8:	ffc72783          	lw	x15,-4(x14)
    a6bc:	fff88893          	addi	x17,x17,-1
    a6c0:	ffc70713          	addi	x14,x14,-4
    a6c4:	fe078ae3          	beq	x15,x0,a6b8 <__mdiff+0x198>
    a6c8:	00c12083          	lw	x1,12(x2)
    a6cc:	00812403          	lw	x8,8(x2)
    a6d0:	01152823          	sw	x17,16(x10)
    a6d4:	00412483          	lw	x9,4(x2)
    a6d8:	00012903          	lw	x18,0(x2)
    a6dc:	01010113          	addi	x2,x2,16
    a6e0:	00008067          	jalr	x0,0(x1)
    a6e4:	00100913          	addi	x18,x0,1
    a6e8:	e806dee3          	bge	x13,x0,a584 <__mdiff+0x64>
    a6ec:	ea9ff06f          	jal	x0,a594 <__mdiff+0x74>
    a6f0:	00140713          	addi	x14,x8,1
    a6f4:	00271713          	slli	x14,x14,0x2
    a6f8:	f55ff06f          	jal	x0,a64c <__mdiff+0x12c>
    a6fc:	00000593          	addi	x11,x0,0
    a700:	a80ff0ef          	jal	x1,9980 <_Balloc>
    a704:	06050063          	beq	x10,x0,a764 <__mdiff+0x244>
    a708:	00c12083          	lw	x1,12(x2)
    a70c:	00812403          	lw	x8,8(x2)
    a710:	00100793          	addi	x15,x0,1
    a714:	00f52823          	sw	x15,16(x10)
    a718:	00052a23          	sw	x0,20(x10)
    a71c:	00412483          	lw	x9,4(x2)
    a720:	00012903          	lw	x18,0(x2)
    a724:	01010113          	addi	x2,x2,16
    a728:	00008067          	jalr	x0,0(x1)
    a72c:	00000713          	addi	x14,x0,0
    a730:	000f1663          	bne	x30,x0,a73c <__mdiff+0x21c>
    a734:	00e58733          	add	x14,x11,x14
    a738:	f7dff06f          	jal	x0,a6b4 <__mdiff+0x194>
    a73c:	00241713          	slli	x14,x8,0x2
    a740:	00e58733          	add	x14,x11,x14
    a744:	f71ff06f          	jal	x0,a6b4 <__mdiff+0x194>
    a748:	000126b7          	lui	x13,0x12
    a74c:	00012537          	lui	x10,0x12
    a750:	f3868693          	addi	x13,x13,-200 # 11f38 <__clzsi2+0x348>
    a754:	00000613          	addi	x12,x0,0
    a758:	24500593          	addi	x11,x0,581
    a75c:	f4c50513          	addi	x10,x10,-180 # 11f4c <__clzsi2+0x35c>
    a760:	6dd000ef          	jal	x1,b63c <__assert_func>
    a764:	000126b7          	lui	x13,0x12
    a768:	00012537          	lui	x10,0x12
    a76c:	f3868693          	addi	x13,x13,-200 # 11f38 <__clzsi2+0x348>
    a770:	00000613          	addi	x12,x0,0
    a774:	23700593          	addi	x11,x0,567
    a778:	f4c50513          	addi	x10,x10,-180 # 11f4c <__clzsi2+0x35c>
    a77c:	6c1000ef          	jal	x1,b63c <__assert_func>

0000a780 <__ulp>:
    a780:	7ff007b7          	lui	x15,0x7ff00
    a784:	00b7f5b3          	and	x11,x15,x11
    a788:	fcc007b7          	lui	x15,0xfcc00
    a78c:	00f585b3          	add	x11,x11,x15
    a790:	00000793          	addi	x15,x0,0
    a794:	00b05663          	bge	x0,x11,a7a0 <__ulp+0x20>
    a798:	00078513          	addi	x10,x15,0 # fcc00000 <__heap_end+0xfc800000>
    a79c:	00008067          	jalr	x0,0(x1)
    a7a0:	40b005b3          	sub	x11,x0,x11
    a7a4:	4145d593          	srai	x11,x11,0x14
    a7a8:	01300793          	addi	x15,x0,19
    a7ac:	00b7cc63          	blt	x15,x11,a7c4 <__ulp+0x44>
    a7b0:	000807b7          	lui	x15,0x80
    a7b4:	40b7d5b3          	sra	x11,x15,x11
    a7b8:	00000793          	addi	x15,x0,0
    a7bc:	00078513          	addi	x10,x15,0 # 80000 <__heap_start+0x6cc90>
    a7c0:	00008067          	jalr	x0,0(x1)
    a7c4:	fec58593          	addi	x11,x11,-20
    a7c8:	01e00713          	addi	x14,x0,30
    a7cc:	00100793          	addi	x15,x0,1
    a7d0:	00b74663          	blt	x14,x11,a7dc <__ulp+0x5c>
    a7d4:	800007b7          	lui	x15,0x80000
    a7d8:	00b7d7b3          	srl	x15,x15,x11
    a7dc:	00000593          	addi	x11,x0,0
    a7e0:	00078513          	addi	x10,x15,0 # 80000000 <__heap_end+0x7fc00000>
    a7e4:	00008067          	jalr	x0,0(x1)

0000a7e8 <__b2d>:
    a7e8:	fe010113          	addi	x2,x2,-32
    a7ec:	00912a23          	sw	x9,20(x2)
    a7f0:	01052483          	lw	x9,16(x10)
    a7f4:	00812c23          	sw	x8,24(x2)
    a7f8:	01450413          	addi	x8,x10,20
    a7fc:	00249493          	slli	x9,x9,0x2
    a800:	009404b3          	add	x9,x8,x9
    a804:	01212823          	sw	x18,16(x2)
    a808:	ffc4a903          	lw	x18,-4(x9)
    a80c:	01312623          	sw	x19,12(x2)
    a810:	01412423          	sw	x20,8(x2)
    a814:	00090513          	addi	x10,x18,0
    a818:	00058993          	addi	x19,x11,0
    a81c:	00112e23          	sw	x1,28(x2)
    a820:	cf8ff0ef          	jal	x1,9d18 <__hi0bits>
    a824:	02000713          	addi	x14,x0,32
    a828:	40a707b3          	sub	x15,x14,x10
    a82c:	00f9a023          	sw	x15,0(x19)
    a830:	00a00793          	addi	x15,x0,10
    a834:	ffc48a13          	addi	x20,x9,-4
    a838:	08a7dc63          	bge	x15,x10,a8d0 <__b2d+0xe8>
    a83c:	ff550613          	addi	x12,x10,-11
    a840:	05447063          	bgeu	x8,x20,a880 <__b2d+0x98>
    a844:	ff84a783          	lw	x15,-8(x9)
    a848:	04060c63          	beq	x12,x0,a8a0 <__b2d+0xb8>
    a84c:	40c706b3          	sub	x13,x14,x12
    a850:	00d7d733          	srl	x14,x15,x13
    a854:	00c91933          	sll	x18,x18,x12
    a858:	00e96933          	or	x18,x18,x14
    a85c:	ff848593          	addi	x11,x9,-8
    a860:	3ff00737          	lui	x14,0x3ff00
    a864:	00e96733          	or	x14,x18,x14
    a868:	00c797b3          	sll	x15,x15,x12
    a86c:	02b47e63          	bgeu	x8,x11,a8a8 <__b2d+0xc0>
    a870:	ff44a603          	lw	x12,-12(x9)
    a874:	00d656b3          	srl	x13,x12,x13
    a878:	00d7e7b3          	or	x15,x15,x13
    a87c:	02c0006f          	jal	x0,a8a8 <__b2d+0xc0>
    a880:	00b00793          	addi	x15,x0,11
    a884:	00f50c63          	beq	x10,x15,a89c <__b2d+0xb4>
    a888:	00c91933          	sll	x18,x18,x12
    a88c:	3ff00737          	lui	x14,0x3ff00
    a890:	00e96733          	or	x14,x18,x14
    a894:	00000793          	addi	x15,x0,0
    a898:	0100006f          	jal	x0,a8a8 <__b2d+0xc0>
    a89c:	00000793          	addi	x15,x0,0
    a8a0:	3ff00737          	lui	x14,0x3ff00
    a8a4:	00e96733          	or	x14,x18,x14
    a8a8:	01c12083          	lw	x1,28(x2)
    a8ac:	01812403          	lw	x8,24(x2)
    a8b0:	01412483          	lw	x9,20(x2)
    a8b4:	01012903          	lw	x18,16(x2)
    a8b8:	00c12983          	lw	x19,12(x2)
    a8bc:	00812a03          	lw	x20,8(x2)
    a8c0:	00078513          	addi	x10,x15,0
    a8c4:	00070593          	addi	x11,x14,0 # 3ff00000 <__heap_end+0x3fb00000>
    a8c8:	02010113          	addi	x2,x2,32
    a8cc:	00008067          	jalr	x0,0(x1)
    a8d0:	00b00693          	addi	x13,x0,11
    a8d4:	40a686b3          	sub	x13,x13,x10
    a8d8:	3ff007b7          	lui	x15,0x3ff00
    a8dc:	00d95733          	srl	x14,x18,x13
    a8e0:	00f76733          	or	x14,x14,x15
    a8e4:	00000793          	addi	x15,x0,0
    a8e8:	01447663          	bgeu	x8,x20,a8f4 <__b2d+0x10c>
    a8ec:	ff84a783          	lw	x15,-8(x9)
    a8f0:	00d7d7b3          	srl	x15,x15,x13
    a8f4:	01550513          	addi	x10,x10,21
    a8f8:	00a91933          	sll	x18,x18,x10
    a8fc:	00f967b3          	or	x15,x18,x15
    a900:	fa9ff06f          	jal	x0,a8a8 <__b2d+0xc0>

0000a904 <__d2b>:
    a904:	fd010113          	addi	x2,x2,-48
    a908:	01512a23          	sw	x21,20(x2)
    a90c:	00058a93          	addi	x21,x11,0
    a910:	00100593          	addi	x11,x0,1
    a914:	02912223          	sw	x9,36(x2)
    a918:	01312e23          	sw	x19,28(x2)
    a91c:	01412c23          	sw	x20,24(x2)
    a920:	02112623          	sw	x1,44(x2)
    a924:	02812423          	sw	x8,40(x2)
    a928:	03212023          	sw	x18,32(x2)
    a92c:	00060493          	addi	x9,x12,0
    a930:	00068a13          	addi	x20,x13,0
    a934:	00070993          	addi	x19,x14,0
    a938:	848ff0ef          	jal	x1,9980 <_Balloc>
    a93c:	10050263          	beq	x10,x0,aa40 <__d2b+0x13c>
    a940:	00100737          	lui	x14,0x100
    a944:	0144d913          	srli	x18,x9,0x14
    a948:	fff70793          	addi	x15,x14,-1 # fffff <__heap_start+0xecc8f>
    a94c:	7ff97913          	andi	x18,x18,2047
    a950:	00050413          	addi	x8,x10,0
    a954:	0097f7b3          	and	x15,x15,x9
    a958:	00090463          	beq	x18,x0,a960 <__d2b+0x5c>
    a95c:	00e7e7b3          	or	x15,x15,x14
    a960:	00f12623          	sw	x15,12(x2)
    a964:	060a9263          	bne	x21,x0,a9c8 <__d2b+0xc4>
    a968:	00c10513          	addi	x10,x2,12
    a96c:	c24ff0ef          	jal	x1,9d90 <__lo0bits>
    a970:	00c12703          	lw	x14,12(x2)
    a974:	00100493          	addi	x9,x0,1
    a978:	00942823          	sw	x9,16(x8)
    a97c:	00e42a23          	sw	x14,20(x8)
    a980:	02050793          	addi	x15,x10,32
    a984:	08090863          	beq	x18,x0,aa14 <__d2b+0x110>
    a988:	bcd90913          	addi	x18,x18,-1075
    a98c:	00f90933          	add	x18,x18,x15
    a990:	03500493          	addi	x9,x0,53
    a994:	012a2023          	sw	x18,0(x20)
    a998:	40f48533          	sub	x10,x9,x15
    a99c:	00a9a023          	sw	x10,0(x19)
    a9a0:	02c12083          	lw	x1,44(x2)
    a9a4:	00040513          	addi	x10,x8,0
    a9a8:	02812403          	lw	x8,40(x2)
    a9ac:	02412483          	lw	x9,36(x2)
    a9b0:	02012903          	lw	x18,32(x2)
    a9b4:	01c12983          	lw	x19,28(x2)
    a9b8:	01812a03          	lw	x20,24(x2)
    a9bc:	01412a83          	lw	x21,20(x2)
    a9c0:	03010113          	addi	x2,x2,48
    a9c4:	00008067          	jalr	x0,0(x1)
    a9c8:	00810513          	addi	x10,x2,8
    a9cc:	01512423          	sw	x21,8(x2)
    a9d0:	bc0ff0ef          	jal	x1,9d90 <__lo0bits>
    a9d4:	00c12703          	lw	x14,12(x2)
    a9d8:	00050793          	addi	x15,x10,0
    a9dc:	04050e63          	beq	x10,x0,aa38 <__d2b+0x134>
    a9e0:	00812603          	lw	x12,8(x2)
    a9e4:	02000693          	addi	x13,x0,32
    a9e8:	40a686b3          	sub	x13,x13,x10
    a9ec:	00d716b3          	sll	x13,x14,x13
    a9f0:	00a75733          	srl	x14,x14,x10
    a9f4:	00c6e6b3          	or	x13,x13,x12
    a9f8:	00e12623          	sw	x14,12(x2)
    a9fc:	00e034b3          	sltu	x9,x0,x14
    aa00:	00148493          	addi	x9,x9,1
    aa04:	00d42a23          	sw	x13,20(x8)
    aa08:	00e42c23          	sw	x14,24(x8)
    aa0c:	00942823          	sw	x9,16(x8)
    aa10:	f6091ce3          	bne	x18,x0,a988 <__d2b+0x84>
    aa14:	00249713          	slli	x14,x9,0x2
    aa18:	00e40733          	add	x14,x8,x14
    aa1c:	01072503          	lw	x10,16(x14)
    aa20:	bce78793          	addi	x15,x15,-1074 # 3feffbce <__heap_end+0x3faffbce>
    aa24:	00fa2023          	sw	x15,0(x20)
    aa28:	af0ff0ef          	jal	x1,9d18 <__hi0bits>
    aa2c:	00549493          	slli	x9,x9,0x5
    aa30:	40a48533          	sub	x10,x9,x10
    aa34:	f69ff06f          	jal	x0,a99c <__d2b+0x98>
    aa38:	00812683          	lw	x13,8(x2)
    aa3c:	fc1ff06f          	jal	x0,a9fc <__d2b+0xf8>
    aa40:	000126b7          	lui	x13,0x12
    aa44:	00012537          	lui	x10,0x12
    aa48:	f3868693          	addi	x13,x13,-200 # 11f38 <__clzsi2+0x348>
    aa4c:	00000613          	addi	x12,x0,0
    aa50:	30f00593          	addi	x11,x0,783
    aa54:	f4c50513          	addi	x10,x10,-180 # 11f4c <__clzsi2+0x35c>
    aa58:	3e5000ef          	jal	x1,b63c <__assert_func>

0000aa5c <__ratio>:
    aa5c:	fd010113          	addi	x2,x2,-48
    aa60:	03212023          	sw	x18,32(x2)
    aa64:	00058913          	addi	x18,x11,0
    aa68:	00810593          	addi	x11,x2,8
    aa6c:	02112623          	sw	x1,44(x2)
    aa70:	02812423          	sw	x8,40(x2)
    aa74:	02912223          	sw	x9,36(x2)
    aa78:	01312e23          	sw	x19,28(x2)
    aa7c:	00050993          	addi	x19,x10,0
    aa80:	d69ff0ef          	jal	x1,a7e8 <__b2d>
    aa84:	00050493          	addi	x9,x10,0
    aa88:	00058413          	addi	x8,x11,0
    aa8c:	00090513          	addi	x10,x18,0
    aa90:	00c10593          	addi	x11,x2,12
    aa94:	d55ff0ef          	jal	x1,a7e8 <__b2d>
    aa98:	01092703          	lw	x14,16(x18)
    aa9c:	0109a783          	lw	x15,16(x19)
    aaa0:	00c12683          	lw	x13,12(x2)
    aaa4:	40e787b3          	sub	x15,x15,x14
    aaa8:	00812703          	lw	x14,8(x2)
    aaac:	00579793          	slli	x15,x15,0x5
    aab0:	40d70733          	sub	x14,x14,x13
    aab4:	00e787b3          	add	x15,x15,x14
    aab8:	00050713          	addi	x14,x10,0
    aabc:	02f05e63          	bge	x0,x15,aaf8 <__ratio+0x9c>
    aac0:	01479793          	slli	x15,x15,0x14
    aac4:	00878433          	add	x8,x15,x8
    aac8:	00058693          	addi	x13,x11,0
    aacc:	00048513          	addi	x10,x9,0
    aad0:	00040593          	addi	x11,x8,0
    aad4:	00070613          	addi	x12,x14,0
    aad8:	5fc020ef          	jal	x1,d0d4 <__divdf3>
    aadc:	02c12083          	lw	x1,44(x2)
    aae0:	02812403          	lw	x8,40(x2)
    aae4:	02412483          	lw	x9,36(x2)
    aae8:	02012903          	lw	x18,32(x2)
    aaec:	01c12983          	lw	x19,28(x2)
    aaf0:	03010113          	addi	x2,x2,48
    aaf4:	00008067          	jalr	x0,0(x1)
    aaf8:	01479793          	slli	x15,x15,0x14
    aafc:	40f585b3          	sub	x11,x11,x15
    ab00:	fc9ff06f          	jal	x0,aac8 <__ratio+0x6c>

0000ab04 <_mprec_log10>:
    ab04:	ff010113          	addi	x2,x2,-16
    ab08:	01212023          	sw	x18,0(x2)
    ab0c:	00112623          	sw	x1,12(x2)
    ab10:	01700793          	addi	x15,x0,23
    ab14:	00050913          	addi	x18,x10,0
    ab18:	04a7da63          	bge	x15,x10,ab6c <_mprec_log10+0x68>
    ab1c:	ed81a783          	lw	x15,-296(x3) # 13018 <__SDATA_BEGIN__+0x30>
    ab20:	edc1a583          	lw	x11,-292(x3) # 1301c <__SDATA_BEGIN__+0x34>
    ab24:	00812423          	sw	x8,8(x2)
    ab28:	00912223          	sw	x9,4(x2)
    ab2c:	ee01a403          	lw	x8,-288(x3) # 13020 <__SDATA_BEGIN__+0x38>
    ab30:	ee41a483          	lw	x9,-284(x3) # 13024 <__SDATA_BEGIN__+0x3c>
    ab34:	00078513          	addi	x10,x15,0
    ab38:	00040613          	addi	x12,x8,0
    ab3c:	00048693          	addi	x13,x9,0
    ab40:	7b9020ef          	jal	x1,daf8 <__muldf3>
    ab44:	fff90913          	addi	x18,x18,-1
    ab48:	00050793          	addi	x15,x10,0
    ab4c:	fe0914e3          	bne	x18,x0,ab34 <_mprec_log10+0x30>
    ab50:	00812403          	lw	x8,8(x2)
    ab54:	00c12083          	lw	x1,12(x2)
    ab58:	00412483          	lw	x9,4(x2)
    ab5c:	00012903          	lw	x18,0(x2)
    ab60:	00078513          	addi	x10,x15,0
    ab64:	01010113          	addi	x2,x2,16
    ab68:	00008067          	jalr	x0,0(x1)
    ab6c:	00012737          	lui	x14,0x12
    ab70:	00351913          	slli	x18,x10,0x3
    ab74:	58070713          	addi	x14,x14,1408 # 12580 <__mprec_tens>
    ab78:	01270733          	add	x14,x14,x18
    ab7c:	00072783          	lw	x15,0(x14)
    ab80:	00c12083          	lw	x1,12(x2)
    ab84:	00472583          	lw	x11,4(x14)
    ab88:	00012903          	lw	x18,0(x2)
    ab8c:	00078513          	addi	x10,x15,0
    ab90:	01010113          	addi	x2,x2,16
    ab94:	00008067          	jalr	x0,0(x1)

0000ab98 <__copybits>:
    ab98:	01062683          	lw	x13,16(x12)
    ab9c:	fff58593          	addi	x11,x11,-1
    aba0:	4055d593          	srai	x11,x11,0x5
    aba4:	00158593          	addi	x11,x11,1
    aba8:	01460793          	addi	x15,x12,20
    abac:	00269693          	slli	x13,x13,0x2
    abb0:	00259593          	slli	x11,x11,0x2
    abb4:	00d786b3          	add	x13,x15,x13
    abb8:	00b505b3          	add	x11,x10,x11
    abbc:	02d7f863          	bgeu	x15,x13,abec <__copybits+0x54>
    abc0:	00050713          	addi	x14,x10,0
    abc4:	0007a803          	lw	x16,0(x15)
    abc8:	00478793          	addi	x15,x15,4
    abcc:	00470713          	addi	x14,x14,4
    abd0:	ff072e23          	sw	x16,-4(x14)
    abd4:	fed7e8e3          	bltu	x15,x13,abc4 <__copybits+0x2c>
    abd8:	40c687b3          	sub	x15,x13,x12
    abdc:	feb78793          	addi	x15,x15,-21
    abe0:	ffc7f793          	andi	x15,x15,-4
    abe4:	00478793          	addi	x15,x15,4
    abe8:	00f50533          	add	x10,x10,x15
    abec:	00b57863          	bgeu	x10,x11,abfc <__copybits+0x64>
    abf0:	00450513          	addi	x10,x10,4
    abf4:	fe052e23          	sw	x0,-4(x10)
    abf8:	feb56ce3          	bltu	x10,x11,abf0 <__copybits+0x58>
    abfc:	00008067          	jalr	x0,0(x1)

0000ac00 <__any_on>:
    ac00:	01052703          	lw	x14,16(x10)
    ac04:	4055d613          	srai	x12,x11,0x5
    ac08:	01450693          	addi	x13,x10,20
    ac0c:	02c75263          	bge	x14,x12,ac30 <__any_on+0x30>
    ac10:	00271713          	slli	x14,x14,0x2
    ac14:	00e687b3          	add	x15,x13,x14
    ac18:	04f6f263          	bgeu	x13,x15,ac5c <__any_on+0x5c>
    ac1c:	ffc7a703          	lw	x14,-4(x15)
    ac20:	ffc78793          	addi	x15,x15,-4
    ac24:	fe070ae3          	beq	x14,x0,ac18 <__any_on+0x18>
    ac28:	00100513          	addi	x10,x0,1
    ac2c:	00008067          	jalr	x0,0(x1)
    ac30:	00261793          	slli	x15,x12,0x2
    ac34:	00f687b3          	add	x15,x13,x15
    ac38:	fee650e3          	bge	x12,x14,ac18 <__any_on+0x18>
    ac3c:	01f5f593          	andi	x11,x11,31
    ac40:	fc058ce3          	beq	x11,x0,ac18 <__any_on+0x18>
    ac44:	0007a603          	lw	x12,0(x15)
    ac48:	00100513          	addi	x10,x0,1
    ac4c:	00b65733          	srl	x14,x12,x11
    ac50:	00b71733          	sll	x14,x14,x11
    ac54:	fce602e3          	beq	x12,x14,ac18 <__any_on+0x18>
    ac58:	00008067          	jalr	x0,0(x1)
    ac5c:	00000513          	addi	x10,x0,0
    ac60:	00008067          	jalr	x0,0(x1)

0000ac64 <_realloc_r>:
    ac64:	fd010113          	addi	x2,x2,-48
    ac68:	02912223          	sw	x9,36(x2)
    ac6c:	02112623          	sw	x1,44(x2)
    ac70:	00060493          	addi	x9,x12,0
    ac74:	1e058863          	beq	x11,x0,ae64 <_realloc_r+0x200>
    ac78:	02812423          	sw	x8,40(x2)
    ac7c:	03212023          	sw	x18,32(x2)
    ac80:	00058413          	addi	x8,x11,0
    ac84:	01312e23          	sw	x19,28(x2)
    ac88:	01512a23          	sw	x21,20(x2)
    ac8c:	01412c23          	sw	x20,24(x2)
    ac90:	00050913          	addi	x18,x10,0
    ac94:	a48f70ef          	jal	x1,1edc <__malloc_lock>
    ac98:	ffc42703          	lw	x14,-4(x8)
    ac9c:	00b48793          	addi	x15,x9,11
    aca0:	01600693          	addi	x13,x0,22
    aca4:	ff840a93          	addi	x21,x8,-8
    aca8:	ffc77993          	andi	x19,x14,-4
    acac:	10f6f263          	bgeu	x13,x15,adb0 <_realloc_r+0x14c>
    acb0:	ff87fa13          	andi	x20,x15,-8
    acb4:	1007c263          	blt	x15,x0,adb8 <_realloc_r+0x154>
    acb8:	109a6063          	bltu	x20,x9,adb8 <_realloc_r+0x154>
    acbc:	1349d263          	bge	x19,x20,ade0 <_realloc_r+0x17c>
    acc0:	000137b7          	lui	x15,0x13
    acc4:	01812423          	sw	x24,8(x2)
    acc8:	a7078c13          	addi	x24,x15,-1424 # 12a70 <__malloc_av_>
    accc:	008c2603          	lw	x12,8(x24)
    acd0:	013a86b3          	add	x13,x21,x19
    acd4:	0046a783          	lw	x15,4(x13)
    acd8:	1cd60863          	beq	x12,x13,aea8 <_realloc_r+0x244>
    acdc:	ffe7f613          	andi	x12,x15,-2
    ace0:	00c68633          	add	x12,x13,x12
    ace4:	00462603          	lw	x12,4(x12)
    ace8:	00167613          	andi	x12,x12,1
    acec:	14061a63          	bne	x12,x0,ae40 <_realloc_r+0x1dc>
    acf0:	ffc7f793          	andi	x15,x15,-4
    acf4:	00f98633          	add	x12,x19,x15
    acf8:	0d465863          	bge	x12,x20,adc8 <_realloc_r+0x164>
    acfc:	00177713          	andi	x14,x14,1
    ad00:	02071c63          	bne	x14,x0,ad38 <_realloc_r+0xd4>
    ad04:	01712623          	sw	x23,12(x2)
    ad08:	ff842b83          	lw	x23,-8(x8)
    ad0c:	01612823          	sw	x22,16(x2)
    ad10:	417a8bb3          	sub	x23,x21,x23
    ad14:	004ba703          	lw	x14,4(x23)
    ad18:	ffc77713          	andi	x14,x14,-4
    ad1c:	00e787b3          	add	x15,x15,x14
    ad20:	01378b33          	add	x22,x15,x19
    ad24:	334b5c63          	bge	x22,x20,b05c <_realloc_r+0x3f8>
    ad28:	00e98b33          	add	x22,x19,x14
    ad2c:	294b5863          	bge	x22,x20,afbc <_realloc_r+0x358>
    ad30:	01012b03          	lw	x22,16(x2)
    ad34:	00c12b83          	lw	x23,12(x2)
    ad38:	00048593          	addi	x11,x9,0
    ad3c:	00090513          	addi	x10,x18,0
    ad40:	9e1f60ef          	jal	x1,1720 <_malloc_r>
    ad44:	00050493          	addi	x9,x10,0
    ad48:	40050863          	beq	x10,x0,b158 <_realloc_r+0x4f4>
    ad4c:	ffc42783          	lw	x15,-4(x8)
    ad50:	ff850713          	addi	x14,x10,-8
    ad54:	ffe7f793          	andi	x15,x15,-2
    ad58:	00fa87b3          	add	x15,x21,x15
    ad5c:	24e78663          	beq	x15,x14,afa8 <_realloc_r+0x344>
    ad60:	ffc98613          	addi	x12,x19,-4
    ad64:	02400793          	addi	x15,x0,36
    ad68:	2ec7e463          	bltu	x15,x12,b050 <_realloc_r+0x3ec>
    ad6c:	01300713          	addi	x14,x0,19
    ad70:	20c76a63          	bltu	x14,x12,af84 <_realloc_r+0x320>
    ad74:	00050793          	addi	x15,x10,0
    ad78:	00040713          	addi	x14,x8,0
    ad7c:	00072683          	lw	x13,0(x14)
    ad80:	00d7a023          	sw	x13,0(x15)
    ad84:	00472683          	lw	x13,4(x14)
    ad88:	00d7a223          	sw	x13,4(x15)
    ad8c:	00872703          	lw	x14,8(x14)
    ad90:	00e7a423          	sw	x14,8(x15)
    ad94:	00040593          	addi	x11,x8,0
    ad98:	00090513          	addi	x10,x18,0
    ad9c:	e80f60ef          	jal	x1,141c <_free_r>
    ada0:	00090513          	addi	x10,x18,0
    ada4:	93cf70ef          	jal	x1,1ee0 <__malloc_unlock>
    ada8:	00812c03          	lw	x24,8(x2)
    adac:	06c0006f          	jal	x0,ae18 <_realloc_r+0x1b4>
    adb0:	01000a13          	addi	x20,x0,16
    adb4:	f09a74e3          	bgeu	x20,x9,acbc <_realloc_r+0x58>
    adb8:	00c00793          	addi	x15,x0,12
    adbc:	00f92023          	sw	x15,0(x18)
    adc0:	00000493          	addi	x9,x0,0
    adc4:	0540006f          	jal	x0,ae18 <_realloc_r+0x1b4>
    adc8:	00c6a783          	lw	x15,12(x13)
    adcc:	0086a703          	lw	x14,8(x13)
    add0:	00812c03          	lw	x24,8(x2)
    add4:	00060993          	addi	x19,x12,0
    add8:	00f72623          	sw	x15,12(x14)
    addc:	00e7a423          	sw	x14,8(x15)
    ade0:	004aa783          	lw	x15,4(x21)
    ade4:	414986b3          	sub	x13,x19,x20
    ade8:	00f00613          	addi	x12,x0,15
    adec:	0017f793          	andi	x15,x15,1
    adf0:	013a8733          	add	x14,x21,x19
    adf4:	08d66263          	bltu	x12,x13,ae78 <_realloc_r+0x214>
    adf8:	0137e7b3          	or	x15,x15,x19
    adfc:	00faa223          	sw	x15,4(x21)
    ae00:	00472783          	lw	x15,4(x14)
    ae04:	0017e793          	ori	x15,x15,1
    ae08:	00f72223          	sw	x15,4(x14)
    ae0c:	00090513          	addi	x10,x18,0
    ae10:	8d0f70ef          	jal	x1,1ee0 <__malloc_unlock>
    ae14:	00040493          	addi	x9,x8,0
    ae18:	02812403          	lw	x8,40(x2)
    ae1c:	02c12083          	lw	x1,44(x2)
    ae20:	02012903          	lw	x18,32(x2)
    ae24:	01c12983          	lw	x19,28(x2)
    ae28:	01812a03          	lw	x20,24(x2)
    ae2c:	01412a83          	lw	x21,20(x2)
    ae30:	00048513          	addi	x10,x9,0
    ae34:	02412483          	lw	x9,36(x2)
    ae38:	03010113          	addi	x2,x2,48
    ae3c:	00008067          	jalr	x0,0(x1)
    ae40:	00177713          	andi	x14,x14,1
    ae44:	ee071ae3          	bne	x14,x0,ad38 <_realloc_r+0xd4>
    ae48:	01712623          	sw	x23,12(x2)
    ae4c:	ff842b83          	lw	x23,-8(x8)
    ae50:	01612823          	sw	x22,16(x2)
    ae54:	417a8bb3          	sub	x23,x21,x23
    ae58:	004ba703          	lw	x14,4(x23)
    ae5c:	ffc77713          	andi	x14,x14,-4
    ae60:	ec9ff06f          	jal	x0,ad28 <_realloc_r+0xc4>
    ae64:	02c12083          	lw	x1,44(x2)
    ae68:	02412483          	lw	x9,36(x2)
    ae6c:	00060593          	addi	x11,x12,0
    ae70:	03010113          	addi	x2,x2,48
    ae74:	8adf606f          	jal	x0,1720 <_malloc_r>
    ae78:	0147e7b3          	or	x15,x15,x20
    ae7c:	00faa223          	sw	x15,4(x21)
    ae80:	014a85b3          	add	x11,x21,x20
    ae84:	0016e693          	ori	x13,x13,1
    ae88:	00d5a223          	sw	x13,4(x11)
    ae8c:	00472783          	lw	x15,4(x14)
    ae90:	00858593          	addi	x11,x11,8
    ae94:	00090513          	addi	x10,x18,0
    ae98:	0017e793          	ori	x15,x15,1
    ae9c:	00f72223          	sw	x15,4(x14)
    aea0:	d7cf60ef          	jal	x1,141c <_free_r>
    aea4:	f69ff06f          	jal	x0,ae0c <_realloc_r+0x1a8>
    aea8:	ffc7f793          	andi	x15,x15,-4
    aeac:	013786b3          	add	x13,x15,x19
    aeb0:	010a0613          	addi	x12,x20,16
    aeb4:	26c6d063          	bge	x13,x12,b114 <_realloc_r+0x4b0>
    aeb8:	00177713          	andi	x14,x14,1
    aebc:	e6071ee3          	bne	x14,x0,ad38 <_realloc_r+0xd4>
    aec0:	01712623          	sw	x23,12(x2)
    aec4:	ff842b83          	lw	x23,-8(x8)
    aec8:	01612823          	sw	x22,16(x2)
    aecc:	417a8bb3          	sub	x23,x21,x23
    aed0:	004ba703          	lw	x14,4(x23)
    aed4:	ffc77713          	andi	x14,x14,-4
    aed8:	00e787b3          	add	x15,x15,x14
    aedc:	01378b33          	add	x22,x15,x19
    aee0:	e4cb44e3          	blt	x22,x12,ad28 <_realloc_r+0xc4>
    aee4:	00cba783          	lw	x15,12(x23)
    aee8:	008ba703          	lw	x14,8(x23)
    aeec:	ffc98613          	addi	x12,x19,-4
    aef0:	02400693          	addi	x13,x0,36
    aef4:	00f72623          	sw	x15,12(x14)
    aef8:	00e7a423          	sw	x14,8(x15)
    aefc:	008b8493          	addi	x9,x23,8
    af00:	28c6e463          	bltu	x13,x12,b188 <_realloc_r+0x524>
    af04:	01300713          	addi	x14,x0,19
    af08:	00048793          	addi	x15,x9,0
    af0c:	02c77263          	bgeu	x14,x12,af30 <_realloc_r+0x2cc>
    af10:	00042703          	lw	x14,0(x8)
    af14:	01b00793          	addi	x15,x0,27
    af18:	00eba423          	sw	x14,8(x23)
    af1c:	00442703          	lw	x14,4(x8)
    af20:	00eba623          	sw	x14,12(x23)
    af24:	26c7ea63          	bltu	x15,x12,b198 <_realloc_r+0x534>
    af28:	00840413          	addi	x8,x8,8
    af2c:	010b8793          	addi	x15,x23,16
    af30:	00042703          	lw	x14,0(x8)
    af34:	00e7a023          	sw	x14,0(x15)
    af38:	00442703          	lw	x14,4(x8)
    af3c:	00e7a223          	sw	x14,4(x15)
    af40:	00842703          	lw	x14,8(x8)
    af44:	00e7a423          	sw	x14,8(x15)
    af48:	014b8733          	add	x14,x23,x20
    af4c:	414b0b33          	sub	x22,x22,x20
    af50:	00ec2423          	sw	x14,8(x24)
    af54:	001b6793          	ori	x15,x22,1
    af58:	00f72223          	sw	x15,4(x14)
    af5c:	004ba783          	lw	x15,4(x23)
    af60:	00090513          	addi	x10,x18,0
    af64:	0017f793          	andi	x15,x15,1
    af68:	0147e7b3          	or	x15,x15,x20
    af6c:	00fba223          	sw	x15,4(x23)
    af70:	f71f60ef          	jal	x1,1ee0 <__malloc_unlock>
    af74:	01012b03          	lw	x22,16(x2)
    af78:	00c12b83          	lw	x23,12(x2)
    af7c:	00812c03          	lw	x24,8(x2)
    af80:	e99ff06f          	jal	x0,ae18 <_realloc_r+0x1b4>
    af84:	00042683          	lw	x13,0(x8)
    af88:	01b00713          	addi	x14,x0,27
    af8c:	00d52023          	sw	x13,0(x10)
    af90:	00442683          	lw	x13,4(x8)
    af94:	00d52223          	sw	x13,4(x10)
    af98:	14c76e63          	bltu	x14,x12,b0f4 <_realloc_r+0x490>
    af9c:	00840713          	addi	x14,x8,8
    afa0:	00850793          	addi	x15,x10,8
    afa4:	dd9ff06f          	jal	x0,ad7c <_realloc_r+0x118>
    afa8:	ffc52783          	lw	x15,-4(x10)
    afac:	00812c03          	lw	x24,8(x2)
    afb0:	ffc7f793          	andi	x15,x15,-4
    afb4:	00f989b3          	add	x19,x19,x15
    afb8:	e29ff06f          	jal	x0,ade0 <_realloc_r+0x17c>
    afbc:	00cba783          	lw	x15,12(x23)
    afc0:	008ba703          	lw	x14,8(x23)
    afc4:	ffc98613          	addi	x12,x19,-4
    afc8:	02400693          	addi	x13,x0,36
    afcc:	00f72623          	sw	x15,12(x14)
    afd0:	00e7a423          	sw	x14,8(x15)
    afd4:	008b8493          	addi	x9,x23,8
    afd8:	10c6e663          	bltu	x13,x12,b0e4 <_realloc_r+0x480>
    afdc:	01300713          	addi	x14,x0,19
    afe0:	00048793          	addi	x15,x9,0
    afe4:	02c77c63          	bgeu	x14,x12,b01c <_realloc_r+0x3b8>
    afe8:	00042703          	lw	x14,0(x8)
    afec:	01b00793          	addi	x15,x0,27
    aff0:	00eba423          	sw	x14,8(x23)
    aff4:	00442703          	lw	x14,4(x8)
    aff8:	00eba623          	sw	x14,12(x23)
    affc:	14c7f863          	bgeu	x15,x12,b14c <_realloc_r+0x4e8>
    b000:	00842783          	lw	x15,8(x8)
    b004:	00fba823          	sw	x15,16(x23)
    b008:	00c42783          	lw	x15,12(x8)
    b00c:	00fbaa23          	sw	x15,20(x23)
    b010:	0ad60c63          	beq	x12,x13,b0c8 <_realloc_r+0x464>
    b014:	01040413          	addi	x8,x8,16
    b018:	018b8793          	addi	x15,x23,24
    b01c:	00042703          	lw	x14,0(x8)
    b020:	00e7a023          	sw	x14,0(x15)
    b024:	00442703          	lw	x14,4(x8)
    b028:	00e7a223          	sw	x14,4(x15)
    b02c:	00842703          	lw	x14,8(x8)
    b030:	00e7a423          	sw	x14,8(x15)
    b034:	000b0993          	addi	x19,x22,0
    b038:	000b8a93          	addi	x21,x23,0
    b03c:	01012b03          	lw	x22,16(x2)
    b040:	00c12b83          	lw	x23,12(x2)
    b044:	00812c03          	lw	x24,8(x2)
    b048:	00048413          	addi	x8,x9,0
    b04c:	d95ff06f          	jal	x0,ade0 <_realloc_r+0x17c>
    b050:	00040593          	addi	x11,x8,0
    b054:	ef5fb0ef          	jal	x1,6f48 <memmove>
    b058:	d3dff06f          	jal	x0,ad94 <_realloc_r+0x130>
    b05c:	00c6a783          	lw	x15,12(x13)
    b060:	0086a703          	lw	x14,8(x13)
    b064:	ffc98613          	addi	x12,x19,-4
    b068:	02400693          	addi	x13,x0,36
    b06c:	00f72623          	sw	x15,12(x14)
    b070:	00e7a423          	sw	x14,8(x15)
    b074:	008ba703          	lw	x14,8(x23)
    b078:	00cba783          	lw	x15,12(x23)
    b07c:	008b8493          	addi	x9,x23,8
    b080:	00f72623          	sw	x15,12(x14)
    b084:	00e7a423          	sw	x14,8(x15)
    b088:	04c6ee63          	bltu	x13,x12,b0e4 <_realloc_r+0x480>
    b08c:	01300713          	addi	x14,x0,19
    b090:	00048793          	addi	x15,x9,0
    b094:	f8c774e3          	bgeu	x14,x12,b01c <_realloc_r+0x3b8>
    b098:	00042703          	lw	x14,0(x8)
    b09c:	01b00793          	addi	x15,x0,27
    b0a0:	00eba423          	sw	x14,8(x23)
    b0a4:	00442703          	lw	x14,4(x8)
    b0a8:	00eba623          	sw	x14,12(x23)
    b0ac:	0ac7f063          	bgeu	x15,x12,b14c <_realloc_r+0x4e8>
    b0b0:	00842703          	lw	x14,8(x8)
    b0b4:	02400793          	addi	x15,x0,36
    b0b8:	00eba823          	sw	x14,16(x23)
    b0bc:	00c42703          	lw	x14,12(x8)
    b0c0:	00ebaa23          	sw	x14,20(x23)
    b0c4:	f4f618e3          	bne	x12,x15,b014 <_realloc_r+0x3b0>
    b0c8:	01042703          	lw	x14,16(x8)
    b0cc:	020b8793          	addi	x15,x23,32
    b0d0:	01840413          	addi	x8,x8,24
    b0d4:	00ebac23          	sw	x14,24(x23)
    b0d8:	ffc42703          	lw	x14,-4(x8)
    b0dc:	00ebae23          	sw	x14,28(x23)
    b0e0:	f3dff06f          	jal	x0,b01c <_realloc_r+0x3b8>
    b0e4:	00040593          	addi	x11,x8,0
    b0e8:	00048513          	addi	x10,x9,0
    b0ec:	e5dfb0ef          	jal	x1,6f48 <memmove>
    b0f0:	f45ff06f          	jal	x0,b034 <_realloc_r+0x3d0>
    b0f4:	00842703          	lw	x14,8(x8)
    b0f8:	00e52423          	sw	x14,8(x10)
    b0fc:	00c42703          	lw	x14,12(x8)
    b100:	00e52623          	sw	x14,12(x10)
    b104:	06f60463          	beq	x12,x15,b16c <_realloc_r+0x508>
    b108:	01040713          	addi	x14,x8,16
    b10c:	01050793          	addi	x15,x10,16
    b110:	c6dff06f          	jal	x0,ad7c <_realloc_r+0x118>
    b114:	014a8ab3          	add	x21,x21,x20
    b118:	414686b3          	sub	x13,x13,x20
    b11c:	015c2423          	sw	x21,8(x24)
    b120:	0016e793          	ori	x15,x13,1
    b124:	00faa223          	sw	x15,4(x21)
    b128:	ffc42783          	lw	x15,-4(x8)
    b12c:	00090513          	addi	x10,x18,0
    b130:	00040493          	addi	x9,x8,0
    b134:	0017f793          	andi	x15,x15,1
    b138:	0147e7b3          	or	x15,x15,x20
    b13c:	fef42e23          	sw	x15,-4(x8)
    b140:	da1f60ef          	jal	x1,1ee0 <__malloc_unlock>
    b144:	00812c03          	lw	x24,8(x2)
    b148:	cd1ff06f          	jal	x0,ae18 <_realloc_r+0x1b4>
    b14c:	00840413          	addi	x8,x8,8
    b150:	010b8793          	addi	x15,x23,16
    b154:	ec9ff06f          	jal	x0,b01c <_realloc_r+0x3b8>
    b158:	00090513          	addi	x10,x18,0
    b15c:	d85f60ef          	jal	x1,1ee0 <__malloc_unlock>
    b160:	00000493          	addi	x9,x0,0
    b164:	00812c03          	lw	x24,8(x2)
    b168:	cb1ff06f          	jal	x0,ae18 <_realloc_r+0x1b4>
    b16c:	01042683          	lw	x13,16(x8)
    b170:	01840713          	addi	x14,x8,24
    b174:	01850793          	addi	x15,x10,24
    b178:	00d52823          	sw	x13,16(x10)
    b17c:	01442683          	lw	x13,20(x8)
    b180:	00d52a23          	sw	x13,20(x10)
    b184:	bf9ff06f          	jal	x0,ad7c <_realloc_r+0x118>
    b188:	00040593          	addi	x11,x8,0
    b18c:	00048513          	addi	x10,x9,0
    b190:	db9fb0ef          	jal	x1,6f48 <memmove>
    b194:	db5ff06f          	jal	x0,af48 <_realloc_r+0x2e4>
    b198:	00842783          	lw	x15,8(x8)
    b19c:	00fba823          	sw	x15,16(x23)
    b1a0:	00c42783          	lw	x15,12(x8)
    b1a4:	00fbaa23          	sw	x15,20(x23)
    b1a8:	00d60863          	beq	x12,x13,b1b8 <_realloc_r+0x554>
    b1ac:	01040413          	addi	x8,x8,16
    b1b0:	018b8793          	addi	x15,x23,24
    b1b4:	d7dff06f          	jal	x0,af30 <_realloc_r+0x2cc>
    b1b8:	01042703          	lw	x14,16(x8)
    b1bc:	020b8793          	addi	x15,x23,32
    b1c0:	01840413          	addi	x8,x8,24
    b1c4:	00ebac23          	sw	x14,24(x23)
    b1c8:	ffc42703          	lw	x14,-4(x8)
    b1cc:	00ebae23          	sw	x14,28(x23)
    b1d0:	d61ff06f          	jal	x0,af30 <_realloc_r+0x2cc>

0000b1d4 <_wctomb_r>:
    b1d4:	e181a783          	lw	x15,-488(x3) # 12f58 <__global_locale+0xe0>
    b1d8:	00078067          	jalr	x0,0(x15)

0000b1dc <__ascii_wctomb>:
    b1dc:	02058463          	beq	x11,x0,b204 <__ascii_wctomb+0x28>
    b1e0:	0ff00793          	addi	x15,x0,255
    b1e4:	00c7e863          	bltu	x15,x12,b1f4 <__ascii_wctomb+0x18>
    b1e8:	00c58023          	sb	x12,0(x11)
    b1ec:	00100513          	addi	x10,x0,1
    b1f0:	00008067          	jalr	x0,0(x1)
    b1f4:	08a00793          	addi	x15,x0,138
    b1f8:	00f52023          	sw	x15,0(x10)
    b1fc:	fff00513          	addi	x10,x0,-1
    b200:	00008067          	jalr	x0,0(x1)
    b204:	00000513          	addi	x10,x0,0
    b208:	00008067          	jalr	x0,0(x1)

0000b20c <_wcrtomb_r>:
    b20c:	fe010113          	addi	x2,x2,-32
    b210:	00812c23          	sw	x8,24(x2)
    b214:	00912a23          	sw	x9,20(x2)
    b218:	00112e23          	sw	x1,28(x2)
    b21c:	e181a783          	lw	x15,-488(x3) # 12f58 <__global_locale+0xe0>
    b220:	00050413          	addi	x8,x10,0
    b224:	00068493          	addi	x9,x13,0
    b228:	02058263          	beq	x11,x0,b24c <_wcrtomb_r+0x40>
    b22c:	000780e7          	jalr	x1,0(x15)
    b230:	fff00793          	addi	x15,x0,-1
    b234:	02f50663          	beq	x10,x15,b260 <_wcrtomb_r+0x54>
    b238:	01c12083          	lw	x1,28(x2)
    b23c:	01812403          	lw	x8,24(x2)
    b240:	01412483          	lw	x9,20(x2)
    b244:	02010113          	addi	x2,x2,32
    b248:	00008067          	jalr	x0,0(x1)
    b24c:	00000613          	addi	x12,x0,0
    b250:	00410593          	addi	x11,x2,4
    b254:	000780e7          	jalr	x1,0(x15)
    b258:	fff00793          	addi	x15,x0,-1
    b25c:	fcf51ee3          	bne	x10,x15,b238 <_wcrtomb_r+0x2c>
    b260:	0004a023          	sw	x0,0(x9)
    b264:	08a00793          	addi	x15,x0,138
    b268:	01c12083          	lw	x1,28(x2)
    b26c:	00f42023          	sw	x15,0(x8)
    b270:	01812403          	lw	x8,24(x2)
    b274:	01412483          	lw	x9,20(x2)
    b278:	02010113          	addi	x2,x2,32
    b27c:	00008067          	jalr	x0,0(x1)

0000b280 <wcrtomb>:
    b280:	fe010113          	addi	x2,x2,-32
    b284:	00812c23          	sw	x8,24(x2)
    b288:	00912a23          	sw	x9,20(x2)
    b28c:	00112e23          	sw	x1,28(x2)
    b290:	f0c1a483          	lw	x9,-244(x3) # 1304c <_impure_ptr>
    b294:	e181a783          	lw	x15,-488(x3) # 12f58 <__global_locale+0xe0>
    b298:	00060413          	addi	x8,x12,0
    b29c:	02050a63          	beq	x10,x0,b2d0 <wcrtomb+0x50>
    b2a0:	00058613          	addi	x12,x11,0
    b2a4:	00040693          	addi	x13,x8,0
    b2a8:	00050593          	addi	x11,x10,0
    b2ac:	00048513          	addi	x10,x9,0
    b2b0:	000780e7          	jalr	x1,0(x15)
    b2b4:	fff00793          	addi	x15,x0,-1
    b2b8:	02f50a63          	beq	x10,x15,b2ec <wcrtomb+0x6c>
    b2bc:	01c12083          	lw	x1,28(x2)
    b2c0:	01812403          	lw	x8,24(x2)
    b2c4:	01412483          	lw	x9,20(x2)
    b2c8:	02010113          	addi	x2,x2,32
    b2cc:	00008067          	jalr	x0,0(x1)
    b2d0:	00060693          	addi	x13,x12,0
    b2d4:	00410593          	addi	x11,x2,4
    b2d8:	00000613          	addi	x12,x0,0
    b2dc:	00048513          	addi	x10,x9,0
    b2e0:	000780e7          	jalr	x1,0(x15)
    b2e4:	fff00793          	addi	x15,x0,-1
    b2e8:	fcf51ae3          	bne	x10,x15,b2bc <wcrtomb+0x3c>
    b2ec:	00042023          	sw	x0,0(x8)
    b2f0:	01c12083          	lw	x1,28(x2)
    b2f4:	01812403          	lw	x8,24(x2)
    b2f8:	08a00793          	addi	x15,x0,138
    b2fc:	00f4a023          	sw	x15,0(x9)
    b300:	01412483          	lw	x9,20(x2)
    b304:	02010113          	addi	x2,x2,32
    b308:	00008067          	jalr	x0,0(x1)

0000b30c <__smakebuf_r>:
    b30c:	00c59783          	lh	x15,12(x11)
    b310:	f8010113          	addi	x2,x2,-128
    b314:	06812c23          	sw	x8,120(x2)
    b318:	06112e23          	sw	x1,124(x2)
    b31c:	0027f713          	andi	x14,x15,2
    b320:	00058413          	addi	x8,x11,0
    b324:	02070463          	beq	x14,x0,b34c <__smakebuf_r+0x40>
    b328:	04358793          	addi	x15,x11,67
    b32c:	00f5a023          	sw	x15,0(x11)
    b330:	00f5a823          	sw	x15,16(x11)
    b334:	00100793          	addi	x15,x0,1
    b338:	00f5aa23          	sw	x15,20(x11)
    b33c:	07c12083          	lw	x1,124(x2)
    b340:	07812403          	lw	x8,120(x2)
    b344:	08010113          	addi	x2,x2,128
    b348:	00008067          	jalr	x0,0(x1)
    b34c:	00e59583          	lh	x11,14(x11)
    b350:	06912a23          	sw	x9,116(x2)
    b354:	07212823          	sw	x18,112(x2)
    b358:	07312623          	sw	x19,108(x2)
    b35c:	07412423          	sw	x20,104(x2)
    b360:	00050493          	addi	x9,x10,0
    b364:	0805c663          	blt	x11,x0,b3f0 <__smakebuf_r+0xe4>
    b368:	00810613          	addi	x12,x2,8
    b36c:	210000ef          	jal	x1,b57c <_fstat_r>
    b370:	06054e63          	blt	x10,x0,b3ec <__smakebuf_r+0xe0>
    b374:	00c12783          	lw	x15,12(x2)
    b378:	0000f937          	lui	x18,0xf
    b37c:	000019b7          	lui	x19,0x1
    b380:	00f97933          	and	x18,x18,x15
    b384:	ffffe7b7          	lui	x15,0xffffe
    b388:	00f90933          	add	x18,x18,x15
    b38c:	00193913          	sltiu	x18,x18,1
    b390:	40000a13          	addi	x20,x0,1024
    b394:	80098993          	addi	x19,x19,-2048 # 800 <__sfp+0xbc>
    b398:	000a0593          	addi	x11,x20,0
    b39c:	00048513          	addi	x10,x9,0
    b3a0:	b80f60ef          	jal	x1,1720 <_malloc_r>
    b3a4:	00c41783          	lh	x15,12(x8)
    b3a8:	06050863          	beq	x10,x0,b418 <__smakebuf_r+0x10c>
    b3ac:	0807e793          	ori	x15,x15,128
    b3b0:	00a42023          	sw	x10,0(x8)
    b3b4:	00a42823          	sw	x10,16(x8)
    b3b8:	00f41623          	sh	x15,12(x8)
    b3bc:	01442a23          	sw	x20,20(x8)
    b3c0:	0a091063          	bne	x18,x0,b460 <__smakebuf_r+0x154>
    b3c4:	0137e7b3          	or	x15,x15,x19
    b3c8:	07c12083          	lw	x1,124(x2)
    b3cc:	00f41623          	sh	x15,12(x8)
    b3d0:	07812403          	lw	x8,120(x2)
    b3d4:	07412483          	lw	x9,116(x2)
    b3d8:	07012903          	lw	x18,112(x2)
    b3dc:	06c12983          	lw	x19,108(x2)
    b3e0:	06812a03          	lw	x20,104(x2)
    b3e4:	08010113          	addi	x2,x2,128
    b3e8:	00008067          	jalr	x0,0(x1)
    b3ec:	00c41783          	lh	x15,12(x8)
    b3f0:	0807f793          	andi	x15,x15,128
    b3f4:	00000913          	addi	x18,x0,0
    b3f8:	04078e63          	beq	x15,x0,b454 <__smakebuf_r+0x148>
    b3fc:	04000a13          	addi	x20,x0,64
    b400:	000a0593          	addi	x11,x20,0
    b404:	00048513          	addi	x10,x9,0
    b408:	b18f60ef          	jal	x1,1720 <_malloc_r>
    b40c:	00c41783          	lh	x15,12(x8)
    b410:	00000993          	addi	x19,x0,0
    b414:	f8051ce3          	bne	x10,x0,b3ac <__smakebuf_r+0xa0>
    b418:	2007f713          	andi	x14,x15,512
    b41c:	04071e63          	bne	x14,x0,b478 <__smakebuf_r+0x16c>
    b420:	ffc7f793          	andi	x15,x15,-4
    b424:	0027e793          	ori	x15,x15,2
    b428:	04340713          	addi	x14,x8,67
    b42c:	00f41623          	sh	x15,12(x8)
    b430:	00100793          	addi	x15,x0,1
    b434:	07412483          	lw	x9,116(x2)
    b438:	07012903          	lw	x18,112(x2)
    b43c:	06c12983          	lw	x19,108(x2)
    b440:	06812a03          	lw	x20,104(x2)
    b444:	00e42023          	sw	x14,0(x8)
    b448:	00e42823          	sw	x14,16(x8)
    b44c:	00f42a23          	sw	x15,20(x8)
    b450:	eedff06f          	jal	x0,b33c <__smakebuf_r+0x30>
    b454:	40000a13          	addi	x20,x0,1024
    b458:	00000993          	addi	x19,x0,0
    b45c:	f3dff06f          	jal	x0,b398 <__smakebuf_r+0x8c>
    b460:	00e41583          	lh	x11,14(x8)
    b464:	00048513          	addi	x10,x9,0
    b468:	178000ef          	jal	x1,b5e0 <_isatty_r>
    b46c:	02051063          	bne	x10,x0,b48c <__smakebuf_r+0x180>
    b470:	00c41783          	lh	x15,12(x8)
    b474:	f51ff06f          	jal	x0,b3c4 <__smakebuf_r+0xb8>
    b478:	07412483          	lw	x9,116(x2)
    b47c:	07012903          	lw	x18,112(x2)
    b480:	06c12983          	lw	x19,108(x2)
    b484:	06812a03          	lw	x20,104(x2)
    b488:	eb5ff06f          	jal	x0,b33c <__smakebuf_r+0x30>
    b48c:	00c45783          	lhu	x15,12(x8)
    b490:	ffc7f793          	andi	x15,x15,-4
    b494:	0017e793          	ori	x15,x15,1
    b498:	01079793          	slli	x15,x15,0x10
    b49c:	4107d793          	srai	x15,x15,0x10
    b4a0:	f25ff06f          	jal	x0,b3c4 <__smakebuf_r+0xb8>

0000b4a4 <__swhatbuf_r>:
    b4a4:	f9010113          	addi	x2,x2,-112
    b4a8:	06812423          	sw	x8,104(x2)
    b4ac:	00058413          	addi	x8,x11,0
    b4b0:	00e59583          	lh	x11,14(x11)
    b4b4:	06912223          	sw	x9,100(x2)
    b4b8:	07212023          	sw	x18,96(x2)
    b4bc:	06112623          	sw	x1,108(x2)
    b4c0:	00060493          	addi	x9,x12,0
    b4c4:	00068913          	addi	x18,x13,0
    b4c8:	0405ca63          	blt	x11,x0,b51c <__swhatbuf_r+0x78>
    b4cc:	00810613          	addi	x12,x2,8
    b4d0:	0ac000ef          	jal	x1,b57c <_fstat_r>
    b4d4:	04054463          	blt	x10,x0,b51c <__swhatbuf_r+0x78>
    b4d8:	00c12703          	lw	x14,12(x2)
    b4dc:	0000f7b7          	lui	x15,0xf
    b4e0:	06c12083          	lw	x1,108(x2)
    b4e4:	00e7f7b3          	and	x15,x15,x14
    b4e8:	ffffe737          	lui	x14,0xffffe
    b4ec:	00e787b3          	add	x15,x15,x14
    b4f0:	06812403          	lw	x8,104(x2)
    b4f4:	0017b793          	sltiu	x15,x15,1
    b4f8:	00f92023          	sw	x15,0(x18) # f000 <__multf3+0x25c>
    b4fc:	40000713          	addi	x14,x0,1024
    b500:	00e4a023          	sw	x14,0(x9)
    b504:	00001537          	lui	x10,0x1
    b508:	06412483          	lw	x9,100(x2)
    b50c:	06012903          	lw	x18,96(x2)
    b510:	80050513          	addi	x10,x10,-2048 # 800 <__sfp+0xbc>
    b514:	07010113          	addi	x2,x2,112
    b518:	00008067          	jalr	x0,0(x1)
    b51c:	00c45783          	lhu	x15,12(x8)
    b520:	0807f793          	andi	x15,x15,128
    b524:	02078863          	beq	x15,x0,b554 <__swhatbuf_r+0xb0>
    b528:	06c12083          	lw	x1,108(x2)
    b52c:	06812403          	lw	x8,104(x2)
    b530:	00000793          	addi	x15,x0,0
    b534:	00f92023          	sw	x15,0(x18)
    b538:	04000713          	addi	x14,x0,64
    b53c:	00e4a023          	sw	x14,0(x9)
    b540:	06012903          	lw	x18,96(x2)
    b544:	06412483          	lw	x9,100(x2)
    b548:	00000513          	addi	x10,x0,0
    b54c:	07010113          	addi	x2,x2,112
    b550:	00008067          	jalr	x0,0(x1)
    b554:	06c12083          	lw	x1,108(x2)
    b558:	06812403          	lw	x8,104(x2)
    b55c:	00f92023          	sw	x15,0(x18)
    b560:	40000713          	addi	x14,x0,1024
    b564:	00e4a023          	sw	x14,0(x9)
    b568:	06012903          	lw	x18,96(x2)
    b56c:	06412483          	lw	x9,100(x2)
    b570:	00000513          	addi	x10,x0,0
    b574:	07010113          	addi	x2,x2,112
    b578:	00008067          	jalr	x0,0(x1)

0000b57c <_fstat_r>:
    b57c:	ff010113          	addi	x2,x2,-16
    b580:	00058713          	addi	x14,x11,0
    b584:	00812423          	sw	x8,8(x2)
    b588:	00912223          	sw	x9,4(x2)
    b58c:	00050413          	addi	x8,x10,0
    b590:	00060593          	addi	x11,x12,0
    b594:	00070513          	addi	x10,x14,0 # ffffe000 <__heap_end+0xffbfe000>
    b598:	00112623          	sw	x1,12(x2)
    b59c:	f001ae23          	sw	x0,-228(x3) # 1305c <errno>
    b5a0:	dd3f40ef          	jal	x1,372 <_fstat>
    b5a4:	fff00793          	addi	x15,x0,-1
    b5a8:	00f50c63          	beq	x10,x15,b5c0 <_fstat_r+0x44>
    b5ac:	00c12083          	lw	x1,12(x2)
    b5b0:	00812403          	lw	x8,8(x2)
    b5b4:	00412483          	lw	x9,4(x2)
    b5b8:	01010113          	addi	x2,x2,16
    b5bc:	00008067          	jalr	x0,0(x1)
    b5c0:	f1c1a783          	lw	x15,-228(x3) # 1305c <errno>
    b5c4:	fe0784e3          	beq	x15,x0,b5ac <_fstat_r+0x30>
    b5c8:	00c12083          	lw	x1,12(x2)
    b5cc:	00f42023          	sw	x15,0(x8)
    b5d0:	00812403          	lw	x8,8(x2)
    b5d4:	00412483          	lw	x9,4(x2)
    b5d8:	01010113          	addi	x2,x2,16
    b5dc:	00008067          	jalr	x0,0(x1)

0000b5e0 <_isatty_r>:
    b5e0:	ff010113          	addi	x2,x2,-16
    b5e4:	00812423          	sw	x8,8(x2)
    b5e8:	00912223          	sw	x9,4(x2)
    b5ec:	00050413          	addi	x8,x10,0
    b5f0:	00058513          	addi	x10,x11,0
    b5f4:	00112623          	sw	x1,12(x2)
    b5f8:	f001ae23          	sw	x0,-228(x3) # 1305c <errno>
    b5fc:	db3f40ef          	jal	x1,3ae <_isatty>
    b600:	fff00793          	addi	x15,x0,-1
    b604:	00f50c63          	beq	x10,x15,b61c <_isatty_r+0x3c>
    b608:	00c12083          	lw	x1,12(x2)
    b60c:	00812403          	lw	x8,8(x2)
    b610:	00412483          	lw	x9,4(x2)
    b614:	01010113          	addi	x2,x2,16
    b618:	00008067          	jalr	x0,0(x1)
    b61c:	f1c1a783          	lw	x15,-228(x3) # 1305c <errno>
    b620:	fe0784e3          	beq	x15,x0,b608 <_isatty_r+0x28>
    b624:	00c12083          	lw	x1,12(x2)
    b628:	00f42023          	sw	x15,0(x8)
    b62c:	00812403          	lw	x8,8(x2)
    b630:	00412483          	lw	x9,4(x2)
    b634:	01010113          	addi	x2,x2,16
    b638:	00008067          	jalr	x0,0(x1)

0000b63c <__assert_func>:
    b63c:	f0c1a703          	lw	x14,-244(x3) # 1304c <_impure_ptr>
    b640:	ff010113          	addi	x2,x2,-16
    b644:	00068793          	addi	x15,x13,0
    b648:	00060813          	addi	x16,x12,0
    b64c:	00112623          	sw	x1,12(x2)
    b650:	00c72883          	lw	x17,12(x14)
    b654:	00050693          	addi	x13,x10,0
    b658:	00058713          	addi	x14,x11,0
    b65c:	00078613          	addi	x12,x15,0 # f000 <__multf3+0x25c>
    b660:	02080063          	beq	x16,x0,b680 <__assert_func+0x44>
    b664:	000127b7          	lui	x15,0x12
    b668:	f9c78793          	addi	x15,x15,-100 # 11f9c <__clzsi2+0x3ac>
    b66c:	000125b7          	lui	x11,0x12
    b670:	fac58593          	addi	x11,x11,-84 # 11fac <__clzsi2+0x3bc>
    b674:	00088513          	addi	x10,x17,0
    b678:	220000ef          	jal	x1,b898 <fiprintf>
    b67c:	270000ef          	jal	x1,b8ec <abort>
    b680:	00012837          	lui	x16,0x12
    b684:	d2c80793          	addi	x15,x16,-724 # 11d2c <__clzsi2+0x13c>
    b688:	d2c80813          	addi	x16,x16,-724
    b68c:	fe1ff06f          	jal	x0,b66c <__assert_func+0x30>

0000b690 <__assert>:
    b690:	ff010113          	addi	x2,x2,-16
    b694:	00060693          	addi	x13,x12,0
    b698:	00000613          	addi	x12,x0,0
    b69c:	00112623          	sw	x1,12(x2)
    b6a0:	f9dff0ef          	jal	x1,b63c <__assert_func>

0000b6a4 <_calloc_r>:
    b6a4:	fe010113          	addi	x2,x2,-32
    b6a8:	00812c23          	sw	x8,24(x2)
    b6ac:	00112e23          	sw	x1,28(x2)
    b6b0:	0105d693          	srli	x13,x11,0x10
    b6b4:	00058793          	addi	x15,x11,0
    b6b8:	00050413          	addi	x8,x10,0
    b6bc:	01065713          	srli	x14,x12,0x10
    b6c0:	0c069063          	bne	x13,x0,b780 <_calloc_r+0xdc>
    b6c4:	14071a63          	bne	x14,x0,b818 <_calloc_r+0x174>
    b6c8:	01061593          	slli	x11,x12,0x10
    b6cc:	01079513          	slli	x10,x15,0x10
    b6d0:	0105d593          	srli	x11,x11,0x10
    b6d4:	01055513          	srli	x10,x10,0x10
    b6d8:	440060ef          	jal	x1,11b18 <__mulsi3>
    b6dc:	00050593          	addi	x11,x10,0
    b6e0:	00040513          	addi	x10,x8,0
    b6e4:	83cf60ef          	jal	x1,1720 <_malloc_r>
    b6e8:	00050413          	addi	x8,x10,0
    b6ec:	10050a63          	beq	x10,x0,b800 <_calloc_r+0x15c>
    b6f0:	ffc52603          	lw	x12,-4(x10)
    b6f4:	02400713          	addi	x14,x0,36
    b6f8:	ffc67613          	andi	x12,x12,-4
    b6fc:	ffc60613          	addi	x12,x12,-4
    b700:	04c76863          	bltu	x14,x12,b750 <_calloc_r+0xac>
    b704:	01300693          	addi	x13,x0,19
    b708:	00050793          	addi	x15,x10,0
    b70c:	02c6f263          	bgeu	x13,x12,b730 <_calloc_r+0x8c>
    b710:	00052023          	sw	x0,0(x10)
    b714:	00052223          	sw	x0,4(x10)
    b718:	01b00793          	addi	x15,x0,27
    b71c:	04c7f863          	bgeu	x15,x12,b76c <_calloc_r+0xc8>
    b720:	00052423          	sw	x0,8(x10)
    b724:	00052623          	sw	x0,12(x10)
    b728:	01050793          	addi	x15,x10,16
    b72c:	10e60263          	beq	x12,x14,b830 <_calloc_r+0x18c>
    b730:	0007a023          	sw	x0,0(x15)
    b734:	0007a223          	sw	x0,4(x15)
    b738:	0007a423          	sw	x0,8(x15)
    b73c:	01c12083          	lw	x1,28(x2)
    b740:	00040513          	addi	x10,x8,0
    b744:	01812403          	lw	x8,24(x2)
    b748:	02010113          	addi	x2,x2,32
    b74c:	00008067          	jalr	x0,0(x1)
    b750:	00000593          	addi	x11,x0,0
    b754:	85df50ef          	jal	x1,fb0 <memset>
    b758:	01c12083          	lw	x1,28(x2)
    b75c:	00040513          	addi	x10,x8,0
    b760:	01812403          	lw	x8,24(x2)
    b764:	02010113          	addi	x2,x2,32
    b768:	00008067          	jalr	x0,0(x1)
    b76c:	00850793          	addi	x15,x10,8
    b770:	0007a023          	sw	x0,0(x15)
    b774:	0007a223          	sw	x0,4(x15)
    b778:	0007a423          	sw	x0,8(x15)
    b77c:	fc1ff06f          	jal	x0,b73c <_calloc_r+0x98>
    b780:	0c071663          	bne	x14,x0,b84c <_calloc_r+0x1a8>
    b784:	01212823          	sw	x18,16(x2)
    b788:	01312623          	sw	x19,12(x2)
    b78c:	00912a23          	sw	x9,20(x2)
    b790:	00068913          	addi	x18,x13,0
    b794:	00060993          	addi	x19,x12,0
    b798:	01079513          	slli	x10,x15,0x10
    b79c:	01061593          	slli	x11,x12,0x10
    b7a0:	0105d593          	srli	x11,x11,0x10
    b7a4:	01055513          	srli	x10,x10,0x10
    b7a8:	370060ef          	jal	x1,11b18 <__mulsi3>
    b7ac:	00050493          	addi	x9,x10,0
    b7b0:	01091593          	slli	x11,x18,0x10
    b7b4:	01099513          	slli	x10,x19,0x10
    b7b8:	0105d593          	srli	x11,x11,0x10
    b7bc:	01055513          	srli	x10,x10,0x10
    b7c0:	358060ef          	jal	x1,11b18 <__mulsi3>
    b7c4:	0104d793          	srli	x15,x9,0x10
    b7c8:	00f505b3          	add	x11,x10,x15
    b7cc:	0105d793          	srli	x15,x11,0x10
    b7d0:	06079863          	bne	x15,x0,b840 <_calloc_r+0x19c>
    b7d4:	01049493          	slli	x9,x9,0x10
    b7d8:	0104d493          	srli	x9,x9,0x10
    b7dc:	01059593          	slli	x11,x11,0x10
    b7e0:	0095e5b3          	or	x11,x11,x9
    b7e4:	00040513          	addi	x10,x8,0
    b7e8:	01412483          	lw	x9,20(x2)
    b7ec:	01012903          	lw	x18,16(x2)
    b7f0:	00c12983          	lw	x19,12(x2)
    b7f4:	f2df50ef          	jal	x1,1720 <_malloc_r>
    b7f8:	00050413          	addi	x8,x10,0
    b7fc:	ee051ae3          	bne	x10,x0,b6f0 <_calloc_r+0x4c>
    b800:	00000413          	addi	x8,x0,0
    b804:	01c12083          	lw	x1,28(x2)
    b808:	00040513          	addi	x10,x8,0
    b80c:	01812403          	lw	x8,24(x2)
    b810:	02010113          	addi	x2,x2,32
    b814:	00008067          	jalr	x0,0(x1)
    b818:	01212823          	sw	x18,16(x2)
    b81c:	01312623          	sw	x19,12(x2)
    b820:	00912a23          	sw	x9,20(x2)
    b824:	00070913          	addi	x18,x14,0
    b828:	00058993          	addi	x19,x11,0
    b82c:	f6dff06f          	jal	x0,b798 <_calloc_r+0xf4>
    b830:	00052823          	sw	x0,16(x10)
    b834:	01850793          	addi	x15,x10,24
    b838:	00052a23          	sw	x0,20(x10)
    b83c:	ef5ff06f          	jal	x0,b730 <_calloc_r+0x8c>
    b840:	01412483          	lw	x9,20(x2)
    b844:	01012903          	lw	x18,16(x2)
    b848:	00c12983          	lw	x19,12(x2)
    b84c:	098000ef          	jal	x1,b8e4 <__errno>
    b850:	00c00793          	addi	x15,x0,12
    b854:	00f52023          	sw	x15,0(x10)
    b858:	00000413          	addi	x8,x0,0
    b85c:	fa9ff06f          	jal	x0,b804 <_calloc_r+0x160>

0000b860 <_fiprintf_r>:
    b860:	fc010113          	addi	x2,x2,-64
    b864:	02c10313          	addi	x6,x2,44
    b868:	02d12623          	sw	x13,44(x2)
    b86c:	00030693          	addi	x13,x6,0
    b870:	00112e23          	sw	x1,28(x2)
    b874:	02e12823          	sw	x14,48(x2)
    b878:	02f12a23          	sw	x15,52(x2)
    b87c:	03012c23          	sw	x16,56(x2)
    b880:	03112e23          	sw	x17,60(x2)
    b884:	00612623          	sw	x6,12(x2)
    b888:	904f90ef          	jal	x1,498c <_vfiprintf_r>
    b88c:	01c12083          	lw	x1,28(x2)
    b890:	04010113          	addi	x2,x2,64
    b894:	00008067          	jalr	x0,0(x1)

0000b898 <fiprintf>:
    b898:	00050e13          	addi	x28,x10,0
    b89c:	fc010113          	addi	x2,x2,-64
    b8a0:	f0c1a503          	lw	x10,-244(x3) # 1304c <_impure_ptr>
    b8a4:	02810313          	addi	x6,x2,40
    b8a8:	02c12423          	sw	x12,40(x2)
    b8ac:	02d12623          	sw	x13,44(x2)
    b8b0:	00058613          	addi	x12,x11,0
    b8b4:	00030693          	addi	x13,x6,0
    b8b8:	000e0593          	addi	x11,x28,0
    b8bc:	00112e23          	sw	x1,28(x2)
    b8c0:	02e12823          	sw	x14,48(x2)
    b8c4:	02f12a23          	sw	x15,52(x2)
    b8c8:	03012c23          	sw	x16,56(x2)
    b8cc:	03112e23          	sw	x17,60(x2)
    b8d0:	00612623          	sw	x6,12(x2)
    b8d4:	8b8f90ef          	jal	x1,498c <_vfiprintf_r>
    b8d8:	01c12083          	lw	x1,28(x2)
    b8dc:	04010113          	addi	x2,x2,64
    b8e0:	00008067          	jalr	x0,0(x1)

0000b8e4 <__errno>:
    b8e4:	f0c1a503          	lw	x10,-244(x3) # 1304c <_impure_ptr>
    b8e8:	00008067          	jalr	x0,0(x1)

0000b8ec <abort>:
    b8ec:	ff010113          	addi	x2,x2,-16
    b8f0:	00600513          	addi	x10,x0,6
    b8f4:	00112623          	sw	x1,12(x2)
    b8f8:	2a8000ef          	jal	x1,bba0 <raise>
    b8fc:	00100513          	addi	x10,x0,1
    b900:	a51f40ef          	jal	x1,350 <_exit>

0000b904 <_init_signal_r>:
    b904:	11852783          	lw	x15,280(x10)
    b908:	00078663          	beq	x15,x0,b914 <_init_signal_r+0x10>
    b90c:	00000513          	addi	x10,x0,0
    b910:	00008067          	jalr	x0,0(x1)
    b914:	ff010113          	addi	x2,x2,-16
    b918:	08000593          	addi	x11,x0,128
    b91c:	00812423          	sw	x8,8(x2)
    b920:	00112623          	sw	x1,12(x2)
    b924:	00050413          	addi	x8,x10,0
    b928:	df9f50ef          	jal	x1,1720 <_malloc_r>
    b92c:	10a42c23          	sw	x10,280(x8)
    b930:	02050463          	beq	x10,x0,b958 <_init_signal_r+0x54>
    b934:	08050793          	addi	x15,x10,128
    b938:	00052023          	sw	x0,0(x10)
    b93c:	00450513          	addi	x10,x10,4
    b940:	fef51ce3          	bne	x10,x15,b938 <_init_signal_r+0x34>
    b944:	00000513          	addi	x10,x0,0
    b948:	00c12083          	lw	x1,12(x2)
    b94c:	00812403          	lw	x8,8(x2)
    b950:	01010113          	addi	x2,x2,16
    b954:	00008067          	jalr	x0,0(x1)
    b958:	fff00513          	addi	x10,x0,-1
    b95c:	fedff06f          	jal	x0,b948 <_init_signal_r+0x44>

0000b960 <_signal_r>:
    b960:	fe010113          	addi	x2,x2,-32
    b964:	00912a23          	sw	x9,20(x2)
    b968:	00112e23          	sw	x1,28(x2)
    b96c:	01f00793          	addi	x15,x0,31
    b970:	00050493          	addi	x9,x10,0
    b974:	02b7ec63          	bltu	x15,x11,b9ac <_signal_r+0x4c>
    b978:	11852783          	lw	x15,280(x10)
    b97c:	00812c23          	sw	x8,24(x2)
    b980:	00058413          	addi	x8,x11,0
    b984:	02078c63          	beq	x15,x0,b9bc <_signal_r+0x5c>
    b988:	00241413          	slli	x8,x8,0x2
    b98c:	008787b3          	add	x15,x15,x8
    b990:	01812403          	lw	x8,24(x2)
    b994:	0007a503          	lw	x10,0(x15)
    b998:	00c7a023          	sw	x12,0(x15)
    b99c:	01c12083          	lw	x1,28(x2)
    b9a0:	01412483          	lw	x9,20(x2)
    b9a4:	02010113          	addi	x2,x2,32
    b9a8:	00008067          	jalr	x0,0(x1)
    b9ac:	01600793          	addi	x15,x0,22
    b9b0:	00f52023          	sw	x15,0(x10)
    b9b4:	fff00513          	addi	x10,x0,-1
    b9b8:	fe5ff06f          	jal	x0,b99c <_signal_r+0x3c>
    b9bc:	08000593          	addi	x11,x0,128
    b9c0:	00c12623          	sw	x12,12(x2)
    b9c4:	d5df50ef          	jal	x1,1720 <_malloc_r>
    b9c8:	10a4ac23          	sw	x10,280(x9)
    b9cc:	00c12603          	lw	x12,12(x2)
    b9d0:	00050793          	addi	x15,x10,0
    b9d4:	00050713          	addi	x14,x10,0
    b9d8:	08050693          	addi	x13,x10,128
    b9dc:	00050a63          	beq	x10,x0,b9f0 <_signal_r+0x90>
    b9e0:	00072023          	sw	x0,0(x14)
    b9e4:	00470713          	addi	x14,x14,4
    b9e8:	fed71ce3          	bne	x14,x13,b9e0 <_signal_r+0x80>
    b9ec:	f9dff06f          	jal	x0,b988 <_signal_r+0x28>
    b9f0:	01812403          	lw	x8,24(x2)
    b9f4:	fff00513          	addi	x10,x0,-1
    b9f8:	fa5ff06f          	jal	x0,b99c <_signal_r+0x3c>

0000b9fc <_raise_r>:
    b9fc:	ff010113          	addi	x2,x2,-16
    ba00:	00912223          	sw	x9,4(x2)
    ba04:	00112623          	sw	x1,12(x2)
    ba08:	01f00793          	addi	x15,x0,31
    ba0c:	00050493          	addi	x9,x10,0
    ba10:	0ab7e063          	bltu	x15,x11,bab0 <_raise_r+0xb4>
    ba14:	11852783          	lw	x15,280(x10)
    ba18:	00812423          	sw	x8,8(x2)
    ba1c:	00058413          	addi	x8,x11,0
    ba20:	04078463          	beq	x15,x0,ba68 <_raise_r+0x6c>
    ba24:	00259713          	slli	x14,x11,0x2
    ba28:	00e787b3          	add	x15,x15,x14
    ba2c:	0007a703          	lw	x14,0(x15)
    ba30:	02070c63          	beq	x14,x0,ba68 <_raise_r+0x6c>
    ba34:	00100693          	addi	x13,x0,1
    ba38:	00d70c63          	beq	x14,x13,ba50 <_raise_r+0x54>
    ba3c:	fff00693          	addi	x13,x0,-1
    ba40:	04d70863          	beq	x14,x13,ba90 <_raise_r+0x94>
    ba44:	0007a023          	sw	x0,0(x15)
    ba48:	00058513          	addi	x10,x11,0
    ba4c:	000700e7          	jalr	x1,0(x14)
    ba50:	00812403          	lw	x8,8(x2)
    ba54:	00000513          	addi	x10,x0,0
    ba58:	00c12083          	lw	x1,12(x2)
    ba5c:	00412483          	lw	x9,4(x2)
    ba60:	01010113          	addi	x2,x2,16
    ba64:	00008067          	jalr	x0,0(x1)
    ba68:	00048513          	addi	x10,x9,0
    ba6c:	43c000ef          	jal	x1,bea8 <_getpid_r>
    ba70:	00040613          	addi	x12,x8,0
    ba74:	00812403          	lw	x8,8(x2)
    ba78:	00c12083          	lw	x1,12(x2)
    ba7c:	00050593          	addi	x11,x10,0
    ba80:	00048513          	addi	x10,x9,0
    ba84:	00412483          	lw	x9,4(x2)
    ba88:	01010113          	addi	x2,x2,16
    ba8c:	3b80006f          	jal	x0,be44 <_kill_r>
    ba90:	00812403          	lw	x8,8(x2)
    ba94:	00c12083          	lw	x1,12(x2)
    ba98:	01600793          	addi	x15,x0,22
    ba9c:	00f52023          	sw	x15,0(x10)
    baa0:	00412483          	lw	x9,4(x2)
    baa4:	00100513          	addi	x10,x0,1
    baa8:	01010113          	addi	x2,x2,16
    baac:	00008067          	jalr	x0,0(x1)
    bab0:	01600793          	addi	x15,x0,22
    bab4:	00f52023          	sw	x15,0(x10)
    bab8:	fff00513          	addi	x10,x0,-1
    babc:	f9dff06f          	jal	x0,ba58 <_raise_r+0x5c>

0000bac0 <__sigtramp_r>:
    bac0:	01f00793          	addi	x15,x0,31
    bac4:	0cb7ea63          	bltu	x15,x11,bb98 <__sigtramp_r+0xd8>
    bac8:	11852783          	lw	x15,280(x10)
    bacc:	ff010113          	addi	x2,x2,-16
    bad0:	00812423          	sw	x8,8(x2)
    bad4:	00912223          	sw	x9,4(x2)
    bad8:	00112623          	sw	x1,12(x2)
    badc:	00058413          	addi	x8,x11,0
    bae0:	00050493          	addi	x9,x10,0
    bae4:	08078063          	beq	x15,x0,bb64 <__sigtramp_r+0xa4>
    bae8:	00241713          	slli	x14,x8,0x2
    baec:	00e787b3          	add	x15,x15,x14
    baf0:	0007a703          	lw	x14,0(x15)
    baf4:	02070c63          	beq	x14,x0,bb2c <__sigtramp_r+0x6c>
    baf8:	fff00693          	addi	x13,x0,-1
    bafc:	06d70063          	beq	x14,x13,bb5c <__sigtramp_r+0x9c>
    bb00:	00100693          	addi	x13,x0,1
    bb04:	04d70063          	beq	x14,x13,bb44 <__sigtramp_r+0x84>
    bb08:	00040513          	addi	x10,x8,0
    bb0c:	0007a023          	sw	x0,0(x15)
    bb10:	000700e7          	jalr	x1,0(x14)
    bb14:	00000513          	addi	x10,x0,0
    bb18:	00c12083          	lw	x1,12(x2)
    bb1c:	00812403          	lw	x8,8(x2)
    bb20:	00412483          	lw	x9,4(x2)
    bb24:	01010113          	addi	x2,x2,16
    bb28:	00008067          	jalr	x0,0(x1)
    bb2c:	00c12083          	lw	x1,12(x2)
    bb30:	00812403          	lw	x8,8(x2)
    bb34:	00412483          	lw	x9,4(x2)
    bb38:	00100513          	addi	x10,x0,1
    bb3c:	01010113          	addi	x2,x2,16
    bb40:	00008067          	jalr	x0,0(x1)
    bb44:	00c12083          	lw	x1,12(x2)
    bb48:	00812403          	lw	x8,8(x2)
    bb4c:	00412483          	lw	x9,4(x2)
    bb50:	00300513          	addi	x10,x0,3
    bb54:	01010113          	addi	x2,x2,16
    bb58:	00008067          	jalr	x0,0(x1)
    bb5c:	00200513          	addi	x10,x0,2
    bb60:	fb9ff06f          	jal	x0,bb18 <__sigtramp_r+0x58>
    bb64:	08000593          	addi	x11,x0,128
    bb68:	bb9f50ef          	jal	x1,1720 <_malloc_r>
    bb6c:	10a4ac23          	sw	x10,280(x9)
    bb70:	00050793          	addi	x15,x10,0
    bb74:	00050e63          	beq	x10,x0,bb90 <__sigtramp_r+0xd0>
    bb78:	00050713          	addi	x14,x10,0
    bb7c:	08050693          	addi	x13,x10,128
    bb80:	00072023          	sw	x0,0(x14)
    bb84:	00470713          	addi	x14,x14,4
    bb88:	fed71ce3          	bne	x14,x13,bb80 <__sigtramp_r+0xc0>
    bb8c:	f5dff06f          	jal	x0,bae8 <__sigtramp_r+0x28>
    bb90:	fff00513          	addi	x10,x0,-1
    bb94:	f85ff06f          	jal	x0,bb18 <__sigtramp_r+0x58>
    bb98:	fff00513          	addi	x10,x0,-1
    bb9c:	00008067          	jalr	x0,0(x1)

0000bba0 <raise>:
    bba0:	ff010113          	addi	x2,x2,-16
    bba4:	00912223          	sw	x9,4(x2)
    bba8:	00112623          	sw	x1,12(x2)
    bbac:	01f00793          	addi	x15,x0,31
    bbb0:	f0c1a483          	lw	x9,-244(x3) # 1304c <_impure_ptr>
    bbb4:	08a7ee63          	bltu	x15,x10,bc50 <raise+0xb0>
    bbb8:	1184a783          	lw	x15,280(x9)
    bbbc:	00812423          	sw	x8,8(x2)
    bbc0:	00050413          	addi	x8,x10,0
    bbc4:	04078263          	beq	x15,x0,bc08 <raise+0x68>
    bbc8:	00251713          	slli	x14,x10,0x2
    bbcc:	00e787b3          	add	x15,x15,x14
    bbd0:	0007a703          	lw	x14,0(x15)
    bbd4:	02070a63          	beq	x14,x0,bc08 <raise+0x68>
    bbd8:	00100693          	addi	x13,x0,1
    bbdc:	00d70a63          	beq	x14,x13,bbf0 <raise+0x50>
    bbe0:	fff00693          	addi	x13,x0,-1
    bbe4:	04d70663          	beq	x14,x13,bc30 <raise+0x90>
    bbe8:	0007a023          	sw	x0,0(x15)
    bbec:	000700e7          	jalr	x1,0(x14)
    bbf0:	00812403          	lw	x8,8(x2)
    bbf4:	00000513          	addi	x10,x0,0
    bbf8:	00c12083          	lw	x1,12(x2)
    bbfc:	00412483          	lw	x9,4(x2)
    bc00:	01010113          	addi	x2,x2,16
    bc04:	00008067          	jalr	x0,0(x1)
    bc08:	00048513          	addi	x10,x9,0
    bc0c:	29c000ef          	jal	x1,bea8 <_getpid_r>
    bc10:	00040613          	addi	x12,x8,0
    bc14:	00812403          	lw	x8,8(x2)
    bc18:	00c12083          	lw	x1,12(x2)
    bc1c:	00050593          	addi	x11,x10,0
    bc20:	00048513          	addi	x10,x9,0
    bc24:	00412483          	lw	x9,4(x2)
    bc28:	01010113          	addi	x2,x2,16
    bc2c:	2180006f          	jal	x0,be44 <_kill_r>
    bc30:	00812403          	lw	x8,8(x2)
    bc34:	00c12083          	lw	x1,12(x2)
    bc38:	01600793          	addi	x15,x0,22
    bc3c:	00f4a023          	sw	x15,0(x9)
    bc40:	00100513          	addi	x10,x0,1
    bc44:	00412483          	lw	x9,4(x2)
    bc48:	01010113          	addi	x2,x2,16
    bc4c:	00008067          	jalr	x0,0(x1)
    bc50:	01600793          	addi	x15,x0,22
    bc54:	00f4a023          	sw	x15,0(x9)
    bc58:	fff00513          	addi	x10,x0,-1
    bc5c:	f9dff06f          	jal	x0,bbf8 <raise+0x58>

0000bc60 <signal>:
    bc60:	ff010113          	addi	x2,x2,-16
    bc64:	01212023          	sw	x18,0(x2)
    bc68:	00112623          	sw	x1,12(x2)
    bc6c:	01f00793          	addi	x15,x0,31
    bc70:	f0c1a903          	lw	x18,-244(x3) # 1304c <_impure_ptr>
    bc74:	04a7e263          	bltu	x15,x10,bcb8 <signal+0x58>
    bc78:	00812423          	sw	x8,8(x2)
    bc7c:	00050413          	addi	x8,x10,0
    bc80:	11892503          	lw	x10,280(x18)
    bc84:	00912223          	sw	x9,4(x2)
    bc88:	00058493          	addi	x9,x11,0
    bc8c:	02050e63          	beq	x10,x0,bcc8 <signal+0x68>
    bc90:	00241413          	slli	x8,x8,0x2
    bc94:	008507b3          	add	x15,x10,x8
    bc98:	0007a503          	lw	x10,0(x15)
    bc9c:	00812403          	lw	x8,8(x2)
    bca0:	0097a023          	sw	x9,0(x15)
    bca4:	00412483          	lw	x9,4(x2)
    bca8:	00c12083          	lw	x1,12(x2)
    bcac:	00012903          	lw	x18,0(x2)
    bcb0:	01010113          	addi	x2,x2,16
    bcb4:	00008067          	jalr	x0,0(x1)
    bcb8:	01600793          	addi	x15,x0,22
    bcbc:	00f92023          	sw	x15,0(x18)
    bcc0:	fff00513          	addi	x10,x0,-1
    bcc4:	fe5ff06f          	jal	x0,bca8 <signal+0x48>
    bcc8:	08000593          	addi	x11,x0,128
    bccc:	00090513          	addi	x10,x18,0
    bcd0:	a51f50ef          	jal	x1,1720 <_malloc_r>
    bcd4:	10a92c23          	sw	x10,280(x18)
    bcd8:	00050793          	addi	x15,x10,0
    bcdc:	08050713          	addi	x14,x10,128
    bce0:	00050a63          	beq	x10,x0,bcf4 <signal+0x94>
    bce4:	0007a023          	sw	x0,0(x15)
    bce8:	00478793          	addi	x15,x15,4
    bcec:	fef71ce3          	bne	x14,x15,bce4 <signal+0x84>
    bcf0:	fa1ff06f          	jal	x0,bc90 <signal+0x30>
    bcf4:	00812403          	lw	x8,8(x2)
    bcf8:	00412483          	lw	x9,4(x2)
    bcfc:	fff00513          	addi	x10,x0,-1
    bd00:	fa9ff06f          	jal	x0,bca8 <signal+0x48>

0000bd04 <_init_signal>:
    bd04:	ff010113          	addi	x2,x2,-16
    bd08:	00812423          	sw	x8,8(x2)
    bd0c:	f0c1a403          	lw	x8,-244(x3) # 1304c <_impure_ptr>
    bd10:	00112623          	sw	x1,12(x2)
    bd14:	11842783          	lw	x15,280(x8)
    bd18:	00078c63          	beq	x15,x0,bd30 <_init_signal+0x2c>
    bd1c:	00000513          	addi	x10,x0,0
    bd20:	00c12083          	lw	x1,12(x2)
    bd24:	00812403          	lw	x8,8(x2)
    bd28:	01010113          	addi	x2,x2,16
    bd2c:	00008067          	jalr	x0,0(x1)
    bd30:	08000593          	addi	x11,x0,128
    bd34:	00040513          	addi	x10,x8,0
    bd38:	9e9f50ef          	jal	x1,1720 <_malloc_r>
    bd3c:	10a42c23          	sw	x10,280(x8)
    bd40:	00050c63          	beq	x10,x0,bd58 <_init_signal+0x54>
    bd44:	08050793          	addi	x15,x10,128
    bd48:	00052023          	sw	x0,0(x10)
    bd4c:	00450513          	addi	x10,x10,4
    bd50:	fef51ce3          	bne	x10,x15,bd48 <_init_signal+0x44>
    bd54:	fc9ff06f          	jal	x0,bd1c <_init_signal+0x18>
    bd58:	fff00513          	addi	x10,x0,-1
    bd5c:	fc5ff06f          	jal	x0,bd20 <_init_signal+0x1c>

0000bd60 <__sigtramp>:
    bd60:	ff010113          	addi	x2,x2,-16
    bd64:	00912223          	sw	x9,4(x2)
    bd68:	00112623          	sw	x1,12(x2)
    bd6c:	01f00793          	addi	x15,x0,31
    bd70:	f0c1a483          	lw	x9,-244(x3) # 1304c <_impure_ptr>
    bd74:	0ca7e463          	bltu	x15,x10,be3c <__sigtramp+0xdc>
    bd78:	1184a783          	lw	x15,280(x9)
    bd7c:	00812423          	sw	x8,8(x2)
    bd80:	00050413          	addi	x8,x10,0
    bd84:	08078263          	beq	x15,x0,be08 <__sigtramp+0xa8>
    bd88:	00241713          	slli	x14,x8,0x2
    bd8c:	00e787b3          	add	x15,x15,x14
    bd90:	0007a703          	lw	x14,0(x15)
    bd94:	02070c63          	beq	x14,x0,bdcc <__sigtramp+0x6c>
    bd98:	fff00693          	addi	x13,x0,-1
    bd9c:	06d70063          	beq	x14,x13,bdfc <__sigtramp+0x9c>
    bda0:	00100693          	addi	x13,x0,1
    bda4:	04d70063          	beq	x14,x13,bde4 <__sigtramp+0x84>
    bda8:	00040513          	addi	x10,x8,0
    bdac:	0007a023          	sw	x0,0(x15)
    bdb0:	000700e7          	jalr	x1,0(x14)
    bdb4:	00812403          	lw	x8,8(x2)
    bdb8:	00000513          	addi	x10,x0,0
    bdbc:	00c12083          	lw	x1,12(x2)
    bdc0:	00412483          	lw	x9,4(x2)
    bdc4:	01010113          	addi	x2,x2,16
    bdc8:	00008067          	jalr	x0,0(x1)
    bdcc:	00812403          	lw	x8,8(x2)
    bdd0:	00c12083          	lw	x1,12(x2)
    bdd4:	00412483          	lw	x9,4(x2)
    bdd8:	00100513          	addi	x10,x0,1
    bddc:	01010113          	addi	x2,x2,16
    bde0:	00008067          	jalr	x0,0(x1)
    bde4:	00812403          	lw	x8,8(x2)
    bde8:	00c12083          	lw	x1,12(x2)
    bdec:	00412483          	lw	x9,4(x2)
    bdf0:	00300513          	addi	x10,x0,3
    bdf4:	01010113          	addi	x2,x2,16
    bdf8:	00008067          	jalr	x0,0(x1)
    bdfc:	00812403          	lw	x8,8(x2)
    be00:	00200513          	addi	x10,x0,2
    be04:	fb9ff06f          	jal	x0,bdbc <__sigtramp+0x5c>
    be08:	08000593          	addi	x11,x0,128
    be0c:	00048513          	addi	x10,x9,0
    be10:	911f50ef          	jal	x1,1720 <_malloc_r>
    be14:	10a4ac23          	sw	x10,280(x9)
    be18:	00050793          	addi	x15,x10,0
    be1c:	00050e63          	beq	x10,x0,be38 <__sigtramp+0xd8>
    be20:	00050713          	addi	x14,x10,0
    be24:	08050693          	addi	x13,x10,128
    be28:	00072023          	sw	x0,0(x14)
    be2c:	00470713          	addi	x14,x14,4
    be30:	fee69ce3          	bne	x13,x14,be28 <__sigtramp+0xc8>
    be34:	f55ff06f          	jal	x0,bd88 <__sigtramp+0x28>
    be38:	00812403          	lw	x8,8(x2)
    be3c:	fff00513          	addi	x10,x0,-1
    be40:	f7dff06f          	jal	x0,bdbc <__sigtramp+0x5c>

0000be44 <_kill_r>:
    be44:	ff010113          	addi	x2,x2,-16
    be48:	00058713          	addi	x14,x11,0
    be4c:	00812423          	sw	x8,8(x2)
    be50:	00912223          	sw	x9,4(x2)
    be54:	00050413          	addi	x8,x10,0
    be58:	00060593          	addi	x11,x12,0
    be5c:	00070513          	addi	x10,x14,0
    be60:	00112623          	sw	x1,12(x2)
    be64:	f001ae23          	sw	x0,-228(x3) # 1305c <errno>
    be68:	d4ef40ef          	jal	x1,3b6 <_kill>
    be6c:	fff00793          	addi	x15,x0,-1
    be70:	00f50c63          	beq	x10,x15,be88 <_kill_r+0x44>
    be74:	00c12083          	lw	x1,12(x2)
    be78:	00812403          	lw	x8,8(x2)
    be7c:	00412483          	lw	x9,4(x2)
    be80:	01010113          	addi	x2,x2,16
    be84:	00008067          	jalr	x0,0(x1)
    be88:	f1c1a783          	lw	x15,-228(x3) # 1305c <errno>
    be8c:	fe0784e3          	beq	x15,x0,be74 <_kill_r+0x30>
    be90:	00c12083          	lw	x1,12(x2)
    be94:	00f42023          	sw	x15,0(x8)
    be98:	00812403          	lw	x8,8(x2)
    be9c:	00412483          	lw	x9,4(x2)
    bea0:	01010113          	addi	x2,x2,16
    bea4:	00008067          	jalr	x0,0(x1)

0000bea8 <_getpid_r>:
    bea8:	cf6f406f          	jal	x0,39e <_getpid>

0000beac <__udivdi3>:
    beac:	fd010113          	addi	x2,x2,-48
    beb0:	01412c23          	sw	x20,24(x2)
    beb4:	02112623          	sw	x1,44(x2)
    beb8:	02812423          	sw	x8,40(x2)
    bebc:	02912223          	sw	x9,36(x2)
    bec0:	03212023          	sw	x18,32(x2)
    bec4:	01312e23          	sw	x19,28(x2)
    bec8:	01512a23          	sw	x21,20(x2)
    becc:	01612823          	sw	x22,16(x2)
    bed0:	01712623          	sw	x23,12(x2)
    bed4:	01812423          	sw	x24,8(x2)
    bed8:	01912223          	sw	x25,4(x2)
    bedc:	00050a13          	addi	x20,x10,0
    bee0:	38069463          	bne	x13,x0,c268 <__udivdi3+0x3bc>
    bee4:	000127b7          	lui	x15,0x12
    bee8:	00060993          	addi	x19,x12,0
    beec:	00050493          	addi	x9,x10,0
    bef0:	78878793          	addi	x15,x15,1928 # 12788 <__clz_tab>
    bef4:	12c5f863          	bgeu	x11,x12,c024 <__udivdi3+0x178>
    bef8:	00010737          	lui	x14,0x10
    befc:	00058913          	addi	x18,x11,0
    bf00:	10e67863          	bgeu	x12,x14,c010 <__udivdi3+0x164>
    bf04:	10063713          	sltiu	x14,x12,256
    bf08:	00173713          	sltiu	x14,x14,1
    bf0c:	00371713          	slli	x14,x14,0x3
    bf10:	00e656b3          	srl	x13,x12,x14
    bf14:	00d787b3          	add	x15,x15,x13
    bf18:	0007c783          	lbu	x15,0(x15)
    bf1c:	02000693          	addi	x13,x0,32
    bf20:	00e787b3          	add	x15,x15,x14
    bf24:	40f68733          	sub	x14,x13,x15
    bf28:	00f68c63          	beq	x13,x15,bf40 <__udivdi3+0x94>
    bf2c:	00e59933          	sll	x18,x11,x14
    bf30:	00fa57b3          	srl	x15,x20,x15
    bf34:	00e619b3          	sll	x19,x12,x14
    bf38:	0127e933          	or	x18,x15,x18
    bf3c:	00ea14b3          	sll	x9,x20,x14
    bf40:	0109da93          	srli	x21,x19,0x10
    bf44:	000a8593          	addi	x11,x21,0
    bf48:	00090513          	addi	x10,x18,0
    bf4c:	01099b13          	slli	x22,x19,0x10
    bf50:	3f5050ef          	jal	x1,11b44 <__hidden___udivsi3>
    bf54:	010b5b13          	srli	x22,x22,0x10
    bf58:	00050593          	addi	x11,x10,0
    bf5c:	00050a13          	addi	x20,x10,0
    bf60:	000b0513          	addi	x10,x22,0
    bf64:	3b5050ef          	jal	x1,11b18 <__mulsi3>
    bf68:	00050413          	addi	x8,x10,0
    bf6c:	000a8593          	addi	x11,x21,0
    bf70:	00090513          	addi	x10,x18,0
    bf74:	419050ef          	jal	x1,11b8c <__umodsi3>
    bf78:	01051513          	slli	x10,x10,0x10
    bf7c:	0104d713          	srli	x14,x9,0x10
    bf80:	00a76733          	or	x14,x14,x10
    bf84:	000a0913          	addi	x18,x20,0
    bf88:	00877e63          	bgeu	x14,x8,bfa4 <__udivdi3+0xf8>
    bf8c:	00e98733          	add	x14,x19,x14
    bf90:	fffa0913          	addi	x18,x20,-1
    bf94:	01376863          	bltu	x14,x19,bfa4 <__udivdi3+0xf8>
    bf98:	00877663          	bgeu	x14,x8,bfa4 <__udivdi3+0xf8>
    bf9c:	ffea0913          	addi	x18,x20,-2
    bfa0:	01370733          	add	x14,x14,x19
    bfa4:	40870433          	sub	x8,x14,x8
    bfa8:	000a8593          	addi	x11,x21,0
    bfac:	00040513          	addi	x10,x8,0
    bfb0:	395050ef          	jal	x1,11b44 <__hidden___udivsi3>
    bfb4:	00050593          	addi	x11,x10,0
    bfb8:	00050a13          	addi	x20,x10,0
    bfbc:	000b0513          	addi	x10,x22,0
    bfc0:	359050ef          	jal	x1,11b18 <__mulsi3>
    bfc4:	00050b13          	addi	x22,x10,0
    bfc8:	000a8593          	addi	x11,x21,0
    bfcc:	00040513          	addi	x10,x8,0
    bfd0:	3bd050ef          	jal	x1,11b8c <__umodsi3>
    bfd4:	01049493          	slli	x9,x9,0x10
    bfd8:	01051513          	slli	x10,x10,0x10
    bfdc:	0104d493          	srli	x9,x9,0x10
    bfe0:	00a4e4b3          	or	x9,x9,x10
    bfe4:	000a0713          	addi	x14,x20,0
    bfe8:	0164fc63          	bgeu	x9,x22,c000 <__udivdi3+0x154>
    bfec:	009984b3          	add	x9,x19,x9
    bff0:	fffa0713          	addi	x14,x20,-1
    bff4:	0134e663          	bltu	x9,x19,c000 <__udivdi3+0x154>
    bff8:	0164f463          	bgeu	x9,x22,c000 <__udivdi3+0x154>
    bffc:	ffea0713          	addi	x14,x20,-2
    c000:	01091793          	slli	x15,x18,0x10
    c004:	00e7e7b3          	or	x15,x15,x14
    c008:	00000913          	addi	x18,x0,0
    c00c:	1200006f          	jal	x0,c12c <__udivdi3+0x280>
    c010:	010006b7          	lui	x13,0x1000
    c014:	01800713          	addi	x14,x0,24
    c018:	eed67ce3          	bgeu	x12,x13,bf10 <__udivdi3+0x64>
    c01c:	01000713          	addi	x14,x0,16
    c020:	ef1ff06f          	jal	x0,bf10 <__udivdi3+0x64>
    c024:	00000713          	addi	x14,x0,0
    c028:	00060c63          	beq	x12,x0,c040 <__udivdi3+0x194>
    c02c:	00010737          	lui	x14,0x10
    c030:	12e67c63          	bgeu	x12,x14,c168 <__udivdi3+0x2bc>
    c034:	10063713          	sltiu	x14,x12,256
    c038:	00173713          	sltiu	x14,x14,1
    c03c:	00371713          	slli	x14,x14,0x3
    c040:	00e656b3          	srl	x13,x12,x14
    c044:	00d787b3          	add	x15,x15,x13
    c048:	0007c783          	lbu	x15,0(x15)
    c04c:	02000693          	addi	x13,x0,32
    c050:	00e787b3          	add	x15,x15,x14
    c054:	40f68733          	sub	x14,x13,x15
    c058:	12f69263          	bne	x13,x15,c17c <__udivdi3+0x2d0>
    c05c:	40c58a33          	sub	x20,x11,x12
    c060:	00100913          	addi	x18,x0,1
    c064:	0109db13          	srli	x22,x19,0x10
    c068:	000b0593          	addi	x11,x22,0
    c06c:	000a0513          	addi	x10,x20,0
    c070:	01099b93          	slli	x23,x19,0x10
    c074:	2d1050ef          	jal	x1,11b44 <__hidden___udivsi3>
    c078:	010bdb93          	srli	x23,x23,0x10
    c07c:	00050593          	addi	x11,x10,0
    c080:	00050c13          	addi	x24,x10,0
    c084:	000b8513          	addi	x10,x23,0
    c088:	291050ef          	jal	x1,11b18 <__mulsi3>
    c08c:	00050a93          	addi	x21,x10,0
    c090:	000b0593          	addi	x11,x22,0
    c094:	000a0513          	addi	x10,x20,0
    c098:	2f5050ef          	jal	x1,11b8c <__umodsi3>
    c09c:	01051513          	slli	x10,x10,0x10
    c0a0:	0104d713          	srli	x14,x9,0x10
    c0a4:	00a76733          	or	x14,x14,x10
    c0a8:	000c0a13          	addi	x20,x24,0
    c0ac:	01577e63          	bgeu	x14,x21,c0c8 <__udivdi3+0x21c>
    c0b0:	00e98733          	add	x14,x19,x14
    c0b4:	fffc0a13          	addi	x20,x24,-1
    c0b8:	01376863          	bltu	x14,x19,c0c8 <__udivdi3+0x21c>
    c0bc:	01577663          	bgeu	x14,x21,c0c8 <__udivdi3+0x21c>
    c0c0:	ffec0a13          	addi	x20,x24,-2
    c0c4:	01370733          	add	x14,x14,x19
    c0c8:	41570433          	sub	x8,x14,x21
    c0cc:	000b0593          	addi	x11,x22,0
    c0d0:	00040513          	addi	x10,x8,0
    c0d4:	271050ef          	jal	x1,11b44 <__hidden___udivsi3>
    c0d8:	00050593          	addi	x11,x10,0
    c0dc:	00050a93          	addi	x21,x10,0
    c0e0:	000b8513          	addi	x10,x23,0
    c0e4:	235050ef          	jal	x1,11b18 <__mulsi3>
    c0e8:	00050b93          	addi	x23,x10,0
    c0ec:	000b0593          	addi	x11,x22,0
    c0f0:	00040513          	addi	x10,x8,0
    c0f4:	299050ef          	jal	x1,11b8c <__umodsi3>
    c0f8:	01049493          	slli	x9,x9,0x10
    c0fc:	01051513          	slli	x10,x10,0x10
    c100:	0104d493          	srli	x9,x9,0x10
    c104:	00a4e4b3          	or	x9,x9,x10
    c108:	000a8713          	addi	x14,x21,0
    c10c:	0174fc63          	bgeu	x9,x23,c124 <__udivdi3+0x278>
    c110:	009984b3          	add	x9,x19,x9
    c114:	fffa8713          	addi	x14,x21,-1
    c118:	0134e663          	bltu	x9,x19,c124 <__udivdi3+0x278>
    c11c:	0174f463          	bgeu	x9,x23,c124 <__udivdi3+0x278>
    c120:	ffea8713          	addi	x14,x21,-2
    c124:	010a1793          	slli	x15,x20,0x10
    c128:	00e7e7b3          	or	x15,x15,x14
    c12c:	02c12083          	lw	x1,44(x2)
    c130:	02812403          	lw	x8,40(x2)
    c134:	02412483          	lw	x9,36(x2)
    c138:	01c12983          	lw	x19,28(x2)
    c13c:	01812a03          	lw	x20,24(x2)
    c140:	01412a83          	lw	x21,20(x2)
    c144:	01012b03          	lw	x22,16(x2)
    c148:	00c12b83          	lw	x23,12(x2)
    c14c:	00812c03          	lw	x24,8(x2)
    c150:	00412c83          	lw	x25,4(x2)
    c154:	00090593          	addi	x11,x18,0
    c158:	00078513          	addi	x10,x15,0
    c15c:	02012903          	lw	x18,32(x2)
    c160:	03010113          	addi	x2,x2,48
    c164:	00008067          	jalr	x0,0(x1)
    c168:	010006b7          	lui	x13,0x1000
    c16c:	01800713          	addi	x14,x0,24
    c170:	ecd678e3          	bgeu	x12,x13,c040 <__udivdi3+0x194>
    c174:	01000713          	addi	x14,x0,16
    c178:	ec9ff06f          	jal	x0,c040 <__udivdi3+0x194>
    c17c:	00e619b3          	sll	x19,x12,x14
    c180:	00f5d933          	srl	x18,x11,x15
    c184:	0109db93          	srli	x23,x19,0x10
    c188:	00e595b3          	sll	x11,x11,x14
    c18c:	00fa57b3          	srl	x15,x20,x15
    c190:	00b7eab3          	or	x21,x15,x11
    c194:	00ea14b3          	sll	x9,x20,x14
    c198:	000b8593          	addi	x11,x23,0
    c19c:	00090513          	addi	x10,x18,0
    c1a0:	01099a13          	slli	x20,x19,0x10
    c1a4:	1a1050ef          	jal	x1,11b44 <__hidden___udivsi3>
    c1a8:	010a5a13          	srli	x20,x20,0x10
    c1ac:	00050593          	addi	x11,x10,0
    c1b0:	00050b13          	addi	x22,x10,0
    c1b4:	000a0513          	addi	x10,x20,0
    c1b8:	161050ef          	jal	x1,11b18 <__mulsi3>
    c1bc:	00050413          	addi	x8,x10,0
    c1c0:	000b8593          	addi	x11,x23,0
    c1c4:	00090513          	addi	x10,x18,0
    c1c8:	1c5050ef          	jal	x1,11b8c <__umodsi3>
    c1cc:	01051513          	slli	x10,x10,0x10
    c1d0:	010ad713          	srli	x14,x21,0x10
    c1d4:	00a76733          	or	x14,x14,x10
    c1d8:	000b0913          	addi	x18,x22,0
    c1dc:	00877e63          	bgeu	x14,x8,c1f8 <__udivdi3+0x34c>
    c1e0:	00e98733          	add	x14,x19,x14
    c1e4:	fffb0913          	addi	x18,x22,-1
    c1e8:	01376863          	bltu	x14,x19,c1f8 <__udivdi3+0x34c>
    c1ec:	00877663          	bgeu	x14,x8,c1f8 <__udivdi3+0x34c>
    c1f0:	ffeb0913          	addi	x18,x22,-2
    c1f4:	01370733          	add	x14,x14,x19
    c1f8:	40870433          	sub	x8,x14,x8
    c1fc:	000b8593          	addi	x11,x23,0
    c200:	00040513          	addi	x10,x8,0
    c204:	141050ef          	jal	x1,11b44 <__hidden___udivsi3>
    c208:	00050593          	addi	x11,x10,0
    c20c:	00050b13          	addi	x22,x10,0
    c210:	000a0513          	addi	x10,x20,0
    c214:	105050ef          	jal	x1,11b18 <__mulsi3>
    c218:	00050a13          	addi	x20,x10,0
    c21c:	000b8593          	addi	x11,x23,0
    c220:	00040513          	addi	x10,x8,0
    c224:	169050ef          	jal	x1,11b8c <__umodsi3>
    c228:	010a9793          	slli	x15,x21,0x10
    c22c:	01051513          	slli	x10,x10,0x10
    c230:	0107d793          	srli	x15,x15,0x10
    c234:	00a7e7b3          	or	x15,x15,x10
    c238:	000b0713          	addi	x14,x22,0
    c23c:	0147fe63          	bgeu	x15,x20,c258 <__udivdi3+0x3ac>
    c240:	00f987b3          	add	x15,x19,x15
    c244:	fffb0713          	addi	x14,x22,-1
    c248:	0137e863          	bltu	x15,x19,c258 <__udivdi3+0x3ac>
    c24c:	0147f663          	bgeu	x15,x20,c258 <__udivdi3+0x3ac>
    c250:	ffeb0713          	addi	x14,x22,-2
    c254:	013787b3          	add	x15,x15,x19
    c258:	01091913          	slli	x18,x18,0x10
    c25c:	41478a33          	sub	x20,x15,x20
    c260:	00e96933          	or	x18,x18,x14
    c264:	e01ff06f          	jal	x0,c064 <__udivdi3+0x1b8>
    c268:	1ed5ee63          	bltu	x11,x13,c464 <__udivdi3+0x5b8>
    c26c:	000107b7          	lui	x15,0x10
    c270:	04f6f463          	bgeu	x13,x15,c2b8 <__udivdi3+0x40c>
    c274:	1006b713          	sltiu	x14,x13,256
    c278:	00173713          	sltiu	x14,x14,1
    c27c:	00371713          	slli	x14,x14,0x3
    c280:	000127b7          	lui	x15,0x12
    c284:	00e6d533          	srl	x10,x13,x14
    c288:	78878793          	addi	x15,x15,1928 # 12788 <__clz_tab>
    c28c:	00a787b3          	add	x15,x15,x10
    c290:	0007c803          	lbu	x16,0(x15)
    c294:	02000793          	addi	x15,x0,32
    c298:	00e80833          	add	x16,x16,x14
    c29c:	41078933          	sub	x18,x15,x16
    c2a0:	03079663          	bne	x15,x16,c2cc <__udivdi3+0x420>
    c2a4:	00100793          	addi	x15,x0,1
    c2a8:	e8b6e2e3          	bltu	x13,x11,c12c <__udivdi3+0x280>
    c2ac:	00ca37b3          	sltu	x15,x20,x12
    c2b0:	0017b793          	sltiu	x15,x15,1
    c2b4:	e79ff06f          	jal	x0,c12c <__udivdi3+0x280>
    c2b8:	010007b7          	lui	x15,0x1000
    c2bc:	01800713          	addi	x14,x0,24
    c2c0:	fcf6f0e3          	bgeu	x13,x15,c280 <__udivdi3+0x3d4>
    c2c4:	01000713          	addi	x14,x0,16
    c2c8:	fb9ff06f          	jal	x0,c280 <__udivdi3+0x3d4>
    c2cc:	012696b3          	sll	x13,x13,x18
    c2d0:	01065b33          	srl	x22,x12,x16
    c2d4:	00db6b33          	or	x22,x22,x13
    c2d8:	0105d4b3          	srl	x9,x11,x16
    c2dc:	010b5c13          	srli	x24,x22,0x10
    c2e0:	010a5833          	srl	x16,x20,x16
    c2e4:	012595b3          	sll	x11,x11,x18
    c2e8:	00b869b3          	or	x19,x16,x11
    c2ec:	00048513          	addi	x10,x9,0
    c2f0:	000c0593          	addi	x11,x24,0
    c2f4:	010b1b93          	slli	x23,x22,0x10
    c2f8:	01261433          	sll	x8,x12,x18
    c2fc:	010bdb93          	srli	x23,x23,0x10
    c300:	045050ef          	jal	x1,11b44 <__hidden___udivsi3>
    c304:	00050593          	addi	x11,x10,0
    c308:	00050c93          	addi	x25,x10,0
    c30c:	000b8513          	addi	x10,x23,0
    c310:	009050ef          	jal	x1,11b18 <__mulsi3>
    c314:	00050a93          	addi	x21,x10,0
    c318:	000c0593          	addi	x11,x24,0
    c31c:	00048513          	addi	x10,x9,0
    c320:	06d050ef          	jal	x1,11b8c <__umodsi3>
    c324:	01051513          	slli	x10,x10,0x10
    c328:	0109d693          	srli	x13,x19,0x10
    c32c:	00a6e6b3          	or	x13,x13,x10
    c330:	000c8493          	addi	x9,x25,0
    c334:	0156fe63          	bgeu	x13,x21,c350 <__udivdi3+0x4a4>
    c338:	00db06b3          	add	x13,x22,x13
    c33c:	fffc8493          	addi	x9,x25,-1
    c340:	0166e863          	bltu	x13,x22,c350 <__udivdi3+0x4a4>
    c344:	0156f663          	bgeu	x13,x21,c350 <__udivdi3+0x4a4>
    c348:	ffec8493          	addi	x9,x25,-2
    c34c:	016686b3          	add	x13,x13,x22
    c350:	41568ab3          	sub	x21,x13,x21
    c354:	000c0593          	addi	x11,x24,0
    c358:	000a8513          	addi	x10,x21,0
    c35c:	7e8050ef          	jal	x1,11b44 <__hidden___udivsi3>
    c360:	00050593          	addi	x11,x10,0
    c364:	00050c93          	addi	x25,x10,0
    c368:	000b8513          	addi	x10,x23,0
    c36c:	7ac050ef          	jal	x1,11b18 <__mulsi3>
    c370:	00050b93          	addi	x23,x10,0
    c374:	000c0593          	addi	x11,x24,0
    c378:	000a8513          	addi	x10,x21,0
    c37c:	011050ef          	jal	x1,11b8c <__umodsi3>
    c380:	01099713          	slli	x14,x19,0x10
    c384:	01051513          	slli	x10,x10,0x10
    c388:	01075713          	srli	x14,x14,0x10
    c38c:	00a76733          	or	x14,x14,x10
    c390:	000c8693          	addi	x13,x25,0
    c394:	01777e63          	bgeu	x14,x23,c3b0 <__udivdi3+0x504>
    c398:	00eb0733          	add	x14,x22,x14
    c39c:	fffc8693          	addi	x13,x25,-1
    c3a0:	01676863          	bltu	x14,x22,c3b0 <__udivdi3+0x504>
    c3a4:	01777663          	bgeu	x14,x23,c3b0 <__udivdi3+0x504>
    c3a8:	ffec8693          	addi	x13,x25,-2
    c3ac:	01670733          	add	x14,x14,x22
    c3b0:	01049793          	slli	x15,x9,0x10
    c3b4:	00010e37          	lui	x28,0x10
    c3b8:	00d7e7b3          	or	x15,x15,x13
    c3bc:	fffe0313          	addi	x6,x28,-1 # ffff <__multf3+0x125b>
    c3c0:	0067f8b3          	and	x17,x15,x6
    c3c4:	00647333          	and	x6,x8,x6
    c3c8:	41770733          	sub	x14,x14,x23
    c3cc:	0107de93          	srli	x29,x15,0x10
    c3d0:	01045413          	srli	x8,x8,0x10
    c3d4:	00088513          	addi	x10,x17,0
    c3d8:	00030593          	addi	x11,x6,0
    c3dc:	73c050ef          	jal	x1,11b18 <__mulsi3>
    c3e0:	00050813          	addi	x16,x10,0
    c3e4:	00040593          	addi	x11,x8,0
    c3e8:	00088513          	addi	x10,x17,0
    c3ec:	72c050ef          	jal	x1,11b18 <__mulsi3>
    c3f0:	00050893          	addi	x17,x10,0
    c3f4:	00030593          	addi	x11,x6,0
    c3f8:	000e8513          	addi	x10,x29,0
    c3fc:	71c050ef          	jal	x1,11b18 <__mulsi3>
    c400:	00050313          	addi	x6,x10,0
    c404:	00040593          	addi	x11,x8,0
    c408:	000e8513          	addi	x10,x29,0
    c40c:	70c050ef          	jal	x1,11b18 <__mulsi3>
    c410:	01085693          	srli	x13,x16,0x10
    c414:	006888b3          	add	x17,x17,x6
    c418:	011686b3          	add	x13,x13,x17
    c41c:	00050613          	addi	x12,x10,0
    c420:	0066f463          	bgeu	x13,x6,c428 <__udivdi3+0x57c>
    c424:	01c50633          	add	x12,x10,x28
    c428:	0106d593          	srli	x11,x13,0x10
    c42c:	00c58633          	add	x12,x11,x12
    c430:	02c76663          	bltu	x14,x12,c45c <__udivdi3+0x5b0>
    c434:	bcc71ae3          	bne	x14,x12,c008 <__udivdi3+0x15c>
    c438:	00010637          	lui	x12,0x10
    c43c:	fff60613          	addi	x12,x12,-1 # ffff <__multf3+0x125b>
    c440:	00c6f6b3          	and	x13,x13,x12
    c444:	01069693          	slli	x13,x13,0x10
    c448:	00c87833          	and	x16,x16,x12
    c44c:	012a1733          	sll	x14,x20,x18
    c450:	010686b3          	add	x13,x13,x16
    c454:	00000913          	addi	x18,x0,0
    c458:	ccd77ae3          	bgeu	x14,x13,c12c <__udivdi3+0x280>
    c45c:	fff78793          	addi	x15,x15,-1 # ffffff <__heap_end+0xbfffff>
    c460:	ba9ff06f          	jal	x0,c008 <__udivdi3+0x15c>
    c464:	00000913          	addi	x18,x0,0
    c468:	00000793          	addi	x15,x0,0
    c46c:	cc1ff06f          	jal	x0,c12c <__udivdi3+0x280>

0000c470 <__umoddi3>:
    c470:	fd010113          	addi	x2,x2,-48
    c474:	02812423          	sw	x8,40(x2)
    c478:	02912223          	sw	x9,36(x2)
    c47c:	02112623          	sw	x1,44(x2)
    c480:	03212023          	sw	x18,32(x2)
    c484:	01312e23          	sw	x19,28(x2)
    c488:	01412c23          	sw	x20,24(x2)
    c48c:	01512a23          	sw	x21,20(x2)
    c490:	01612823          	sw	x22,16(x2)
    c494:	01712623          	sw	x23,12(x2)
    c498:	01812423          	sw	x24,8(x2)
    c49c:	01912223          	sw	x25,4(x2)
    c4a0:	01a12023          	sw	x26,0(x2)
    c4a4:	00050413          	addi	x8,x10,0
    c4a8:	00058493          	addi	x9,x11,0
    c4ac:	24069c63          	bne	x13,x0,c704 <__umoddi3+0x294>
    c4b0:	000127b7          	lui	x15,0x12
    c4b4:	00060993          	addi	x19,x12,0
    c4b8:	78878793          	addi	x15,x15,1928 # 12788 <__clz_tab>
    c4bc:	12c5fe63          	bgeu	x11,x12,c5f8 <__umoddi3+0x188>
    c4c0:	00010737          	lui	x14,0x10
    c4c4:	12e67063          	bgeu	x12,x14,c5e4 <__umoddi3+0x174>
    c4c8:	10063713          	sltiu	x14,x12,256
    c4cc:	00173713          	sltiu	x14,x14,1
    c4d0:	00371713          	slli	x14,x14,0x3
    c4d4:	00e656b3          	srl	x13,x12,x14
    c4d8:	00d787b3          	add	x15,x15,x13
    c4dc:	0007c783          	lbu	x15,0(x15)
    c4e0:	00e787b3          	add	x15,x15,x14
    c4e4:	02000713          	addi	x14,x0,32
    c4e8:	40f70933          	sub	x18,x14,x15
    c4ec:	00f70c63          	beq	x14,x15,c504 <__umoddi3+0x94>
    c4f0:	012594b3          	sll	x9,x11,x18
    c4f4:	00f557b3          	srl	x15,x10,x15
    c4f8:	012619b3          	sll	x19,x12,x18
    c4fc:	0097e4b3          	or	x9,x15,x9
    c500:	01251433          	sll	x8,x10,x18
    c504:	0109da93          	srli	x21,x19,0x10
    c508:	000a8593          	addi	x11,x21,0
    c50c:	01099b13          	slli	x22,x19,0x10
    c510:	00048513          	addi	x10,x9,0
    c514:	630050ef          	jal	x1,11b44 <__hidden___udivsi3>
    c518:	010b5b13          	srli	x22,x22,0x10
    c51c:	000b0593          	addi	x11,x22,0
    c520:	5f8050ef          	jal	x1,11b18 <__mulsi3>
    c524:	00050a13          	addi	x20,x10,0
    c528:	000a8593          	addi	x11,x21,0
    c52c:	00048513          	addi	x10,x9,0
    c530:	65c050ef          	jal	x1,11b8c <__umodsi3>
    c534:	01051513          	slli	x10,x10,0x10
    c538:	01045793          	srli	x15,x8,0x10
    c53c:	00a7e7b3          	or	x15,x15,x10
    c540:	0147fa63          	bgeu	x15,x20,c554 <__umoddi3+0xe4>
    c544:	00f987b3          	add	x15,x19,x15
    c548:	0137e663          	bltu	x15,x19,c554 <__umoddi3+0xe4>
    c54c:	0147f463          	bgeu	x15,x20,c554 <__umoddi3+0xe4>
    c550:	013787b3          	add	x15,x15,x19
    c554:	414784b3          	sub	x9,x15,x20
    c558:	000a8593          	addi	x11,x21,0
    c55c:	00048513          	addi	x10,x9,0
    c560:	5e4050ef          	jal	x1,11b44 <__hidden___udivsi3>
    c564:	000b0593          	addi	x11,x22,0
    c568:	5b0050ef          	jal	x1,11b18 <__mulsi3>
    c56c:	00050a13          	addi	x20,x10,0
    c570:	000a8593          	addi	x11,x21,0
    c574:	00048513          	addi	x10,x9,0
    c578:	614050ef          	jal	x1,11b8c <__umodsi3>
    c57c:	01041413          	slli	x8,x8,0x10
    c580:	01051513          	slli	x10,x10,0x10
    c584:	01045413          	srli	x8,x8,0x10
    c588:	00a46433          	or	x8,x8,x10
    c58c:	01447a63          	bgeu	x8,x20,c5a0 <__umoddi3+0x130>
    c590:	00898433          	add	x8,x19,x8
    c594:	01346663          	bltu	x8,x19,c5a0 <__umoddi3+0x130>
    c598:	01447463          	bgeu	x8,x20,c5a0 <__umoddi3+0x130>
    c59c:	01340433          	add	x8,x8,x19
    c5a0:	41440433          	sub	x8,x8,x20
    c5a4:	01245533          	srl	x10,x8,x18
    c5a8:	00000593          	addi	x11,x0,0
    c5ac:	02c12083          	lw	x1,44(x2)
    c5b0:	02812403          	lw	x8,40(x2)
    c5b4:	02412483          	lw	x9,36(x2)
    c5b8:	02012903          	lw	x18,32(x2)
    c5bc:	01c12983          	lw	x19,28(x2)
    c5c0:	01812a03          	lw	x20,24(x2)
    c5c4:	01412a83          	lw	x21,20(x2)
    c5c8:	01012b03          	lw	x22,16(x2)
    c5cc:	00c12b83          	lw	x23,12(x2)
    c5d0:	00812c03          	lw	x24,8(x2)
    c5d4:	00412c83          	lw	x25,4(x2)
    c5d8:	00012d03          	lw	x26,0(x2)
    c5dc:	03010113          	addi	x2,x2,48
    c5e0:	00008067          	jalr	x0,0(x1)
    c5e4:	010006b7          	lui	x13,0x1000
    c5e8:	01800713          	addi	x14,x0,24
    c5ec:	eed674e3          	bgeu	x12,x13,c4d4 <__umoddi3+0x64>
    c5f0:	01000713          	addi	x14,x0,16
    c5f4:	ee1ff06f          	jal	x0,c4d4 <__umoddi3+0x64>
    c5f8:	00000713          	addi	x14,x0,0
    c5fc:	00060c63          	beq	x12,x0,c614 <__umoddi3+0x1a4>
    c600:	00010737          	lui	x14,0x10
    c604:	0ee67663          	bgeu	x12,x14,c6f0 <__umoddi3+0x280>
    c608:	10063713          	sltiu	x14,x12,256
    c60c:	00173713          	sltiu	x14,x14,1
    c610:	00371713          	slli	x14,x14,0x3
    c614:	00e656b3          	srl	x13,x12,x14
    c618:	00d787b3          	add	x15,x15,x13
    c61c:	0007c783          	lbu	x15,0(x15)
    c620:	40c584b3          	sub	x9,x11,x12
    c624:	00e787b3          	add	x15,x15,x14
    c628:	02000713          	addi	x14,x0,32
    c62c:	40f70933          	sub	x18,x14,x15
    c630:	ecf70ae3          	beq	x14,x15,c504 <__umoddi3+0x94>
    c634:	012619b3          	sll	x19,x12,x18
    c638:	00f5dbb3          	srl	x23,x11,x15
    c63c:	0109db13          	srli	x22,x19,0x10
    c640:	00f557b3          	srl	x15,x10,x15
    c644:	012595b3          	sll	x11,x11,x18
    c648:	00b7ea33          	or	x20,x15,x11
    c64c:	01251433          	sll	x8,x10,x18
    c650:	000b0593          	addi	x11,x22,0
    c654:	01099a93          	slli	x21,x19,0x10
    c658:	000b8513          	addi	x10,x23,0
    c65c:	4e8050ef          	jal	x1,11b44 <__hidden___udivsi3>
    c660:	010ada93          	srli	x21,x21,0x10
    c664:	000a8593          	addi	x11,x21,0
    c668:	4b0050ef          	jal	x1,11b18 <__mulsi3>
    c66c:	00050493          	addi	x9,x10,0
    c670:	000b0593          	addi	x11,x22,0
    c674:	000b8513          	addi	x10,x23,0
    c678:	514050ef          	jal	x1,11b8c <__umodsi3>
    c67c:	01051513          	slli	x10,x10,0x10
    c680:	010a5713          	srli	x14,x20,0x10
    c684:	00a76733          	or	x14,x14,x10
    c688:	00977a63          	bgeu	x14,x9,c69c <__umoddi3+0x22c>
    c68c:	00e98733          	add	x14,x19,x14
    c690:	01376663          	bltu	x14,x19,c69c <__umoddi3+0x22c>
    c694:	00977463          	bgeu	x14,x9,c69c <__umoddi3+0x22c>
    c698:	01370733          	add	x14,x14,x19
    c69c:	409704b3          	sub	x9,x14,x9
    c6a0:	000b0593          	addi	x11,x22,0
    c6a4:	00048513          	addi	x10,x9,0
    c6a8:	49c050ef          	jal	x1,11b44 <__hidden___udivsi3>
    c6ac:	000a8593          	addi	x11,x21,0
    c6b0:	468050ef          	jal	x1,11b18 <__mulsi3>
    c6b4:	00050a93          	addi	x21,x10,0
    c6b8:	000b0593          	addi	x11,x22,0
    c6bc:	00048513          	addi	x10,x9,0
    c6c0:	4cc050ef          	jal	x1,11b8c <__umodsi3>
    c6c4:	010a1793          	slli	x15,x20,0x10
    c6c8:	01051513          	slli	x10,x10,0x10
    c6cc:	0107d793          	srli	x15,x15,0x10
    c6d0:	00a7e7b3          	or	x15,x15,x10
    c6d4:	0157fa63          	bgeu	x15,x21,c6e8 <__umoddi3+0x278>
    c6d8:	00f987b3          	add	x15,x19,x15
    c6dc:	0137e663          	bltu	x15,x19,c6e8 <__umoddi3+0x278>
    c6e0:	0157f463          	bgeu	x15,x21,c6e8 <__umoddi3+0x278>
    c6e4:	013787b3          	add	x15,x15,x19
    c6e8:	415784b3          	sub	x9,x15,x21
    c6ec:	e19ff06f          	jal	x0,c504 <__umoddi3+0x94>
    c6f0:	010006b7          	lui	x13,0x1000
    c6f4:	01800713          	addi	x14,x0,24
    c6f8:	f0d67ee3          	bgeu	x12,x13,c614 <__umoddi3+0x1a4>
    c6fc:	01000713          	addi	x14,x0,16
    c700:	f15ff06f          	jal	x0,c614 <__umoddi3+0x1a4>
    c704:	ead5e4e3          	bltu	x11,x13,c5ac <__umoddi3+0x13c>
    c708:	000107b7          	lui	x15,0x10
    c70c:	04f6fe63          	bgeu	x13,x15,c768 <__umoddi3+0x2f8>
    c710:	1006b793          	sltiu	x15,x13,256
    c714:	0017b793          	sltiu	x15,x15,1
    c718:	00379793          	slli	x15,x15,0x3
    c71c:	00012737          	lui	x14,0x12
    c720:	00f6d833          	srl	x16,x13,x15
    c724:	78870713          	addi	x14,x14,1928 # 12788 <__clz_tab>
    c728:	01070733          	add	x14,x14,x16
    c72c:	00074a83          	lbu	x21,0(x14)
    c730:	00fa8ab3          	add	x21,x21,x15
    c734:	02000793          	addi	x15,x0,32
    c738:	41578a33          	sub	x20,x15,x21
    c73c:	05579063          	bne	x15,x21,c77c <__umoddi3+0x30c>
    c740:	00b6e463          	bltu	x13,x11,c748 <__umoddi3+0x2d8>
    c744:	00c56c63          	bltu	x10,x12,c75c <__umoddi3+0x2ec>
    c748:	40c50933          	sub	x18,x10,x12
    c74c:	40d586b3          	sub	x13,x11,x13
    c750:	012534b3          	sltu	x9,x10,x18
    c754:	00090413          	addi	x8,x18,0
    c758:	409684b3          	sub	x9,x13,x9
    c75c:	00040513          	addi	x10,x8,0
    c760:	00048593          	addi	x11,x9,0
    c764:	e49ff06f          	jal	x0,c5ac <__umoddi3+0x13c>
    c768:	01000737          	lui	x14,0x1000
    c76c:	01800793          	addi	x15,x0,24
    c770:	fae6f6e3          	bgeu	x13,x14,c71c <__umoddi3+0x2ac>
    c774:	01000793          	addi	x15,x0,16
    c778:	fa5ff06f          	jal	x0,c71c <__umoddi3+0x2ac>
    c77c:	014696b3          	sll	x13,x13,x20
    c780:	01565bb3          	srl	x23,x12,x21
    c784:	00dbebb3          	or	x23,x23,x13
    c788:	0155d9b3          	srl	x19,x11,x21
    c78c:	01555433          	srl	x8,x10,x21
    c790:	014595b3          	sll	x11,x11,x20
    c794:	010bd493          	srli	x9,x23,0x10
    c798:	00b46433          	or	x8,x8,x11
    c79c:	01451b33          	sll	x22,x10,x20
    c7a0:	00048593          	addi	x11,x9,0
    c7a4:	00098513          	addi	x10,x19,0
    c7a8:	010b9c13          	slli	x24,x23,0x10
    c7ac:	01461933          	sll	x18,x12,x20
    c7b0:	010c5c13          	srli	x24,x24,0x10
    c7b4:	390050ef          	jal	x1,11b44 <__hidden___udivsi3>
    c7b8:	00050593          	addi	x11,x10,0
    c7bc:	00050d13          	addi	x26,x10,0
    c7c0:	000c0513          	addi	x10,x24,0
    c7c4:	354050ef          	jal	x1,11b18 <__mulsi3>
    c7c8:	00050c93          	addi	x25,x10,0
    c7cc:	00048593          	addi	x11,x9,0
    c7d0:	00098513          	addi	x10,x19,0
    c7d4:	3b8050ef          	jal	x1,11b8c <__umodsi3>
    c7d8:	01051513          	slli	x10,x10,0x10
    c7dc:	01045793          	srli	x15,x8,0x10
    c7e0:	00a7e7b3          	or	x15,x15,x10
    c7e4:	000d0993          	addi	x19,x26,0
    c7e8:	0197fe63          	bgeu	x15,x25,c804 <__umoddi3+0x394>
    c7ec:	00fb87b3          	add	x15,x23,x15
    c7f0:	fffd0993          	addi	x19,x26,-1
    c7f4:	0177e863          	bltu	x15,x23,c804 <__umoddi3+0x394>
    c7f8:	0197f663          	bgeu	x15,x25,c804 <__umoddi3+0x394>
    c7fc:	ffed0993          	addi	x19,x26,-2
    c800:	017787b3          	add	x15,x15,x23
    c804:	41978cb3          	sub	x25,x15,x25
    c808:	00048593          	addi	x11,x9,0
    c80c:	000c8513          	addi	x10,x25,0
    c810:	334050ef          	jal	x1,11b44 <__hidden___udivsi3>
    c814:	00050593          	addi	x11,x10,0
    c818:	00050d13          	addi	x26,x10,0
    c81c:	000c0513          	addi	x10,x24,0
    c820:	2f8050ef          	jal	x1,11b18 <__mulsi3>
    c824:	00048593          	addi	x11,x9,0
    c828:	00050c13          	addi	x24,x10,0
    c82c:	000c8513          	addi	x10,x25,0
    c830:	35c050ef          	jal	x1,11b8c <__umodsi3>
    c834:	01041593          	slli	x11,x8,0x10
    c838:	01051513          	slli	x10,x10,0x10
    c83c:	0105d593          	srli	x11,x11,0x10
    c840:	00a5e5b3          	or	x11,x11,x10
    c844:	000d0793          	addi	x15,x26,0
    c848:	0185fe63          	bgeu	x11,x24,c864 <__umoddi3+0x3f4>
    c84c:	00bb85b3          	add	x11,x23,x11
    c850:	fffd0793          	addi	x15,x26,-1
    c854:	0175e863          	bltu	x11,x23,c864 <__umoddi3+0x3f4>
    c858:	0185f663          	bgeu	x11,x24,c864 <__umoddi3+0x3f4>
    c85c:	ffed0793          	addi	x15,x26,-2
    c860:	017585b3          	add	x11,x11,x23
    c864:	00010e37          	lui	x28,0x10
    c868:	01099993          	slli	x19,x19,0x10
    c86c:	00f9e9b3          	or	x19,x19,x15
    c870:	fffe0793          	addi	x15,x28,-1 # ffff <__multf3+0x125b>
    c874:	00f9f733          	and	x14,x19,x15
    c878:	00f977b3          	and	x15,x18,x15
    c87c:	418584b3          	sub	x9,x11,x24
    c880:	0109d993          	srli	x19,x19,0x10
    c884:	01095313          	srli	x6,x18,0x10
    c888:	00070513          	addi	x10,x14,0 # 1000000 <__heap_end+0xc00000>
    c88c:	00078593          	addi	x11,x15,0 # 10000 <__multf3+0x125c>
    c890:	288050ef          	jal	x1,11b18 <__mulsi3>
    c894:	00050813          	addi	x16,x10,0
    c898:	00030593          	addi	x11,x6,0
    c89c:	00070513          	addi	x10,x14,0
    c8a0:	278050ef          	jal	x1,11b18 <__mulsi3>
    c8a4:	00050713          	addi	x14,x10,0
    c8a8:	00078593          	addi	x11,x15,0
    c8ac:	00098513          	addi	x10,x19,0
    c8b0:	268050ef          	jal	x1,11b18 <__mulsi3>
    c8b4:	00050893          	addi	x17,x10,0
    c8b8:	00030593          	addi	x11,x6,0
    c8bc:	00098513          	addi	x10,x19,0
    c8c0:	258050ef          	jal	x1,11b18 <__mulsi3>
    c8c4:	01085793          	srli	x15,x16,0x10
    c8c8:	01170733          	add	x14,x14,x17
    c8cc:	00e787b3          	add	x15,x15,x14
    c8d0:	00050693          	addi	x13,x10,0
    c8d4:	0117f463          	bgeu	x15,x17,c8dc <__umoddi3+0x46c>
    c8d8:	01c506b3          	add	x13,x10,x28
    c8dc:	0107d713          	srli	x14,x15,0x10
    c8e0:	00d70733          	add	x14,x14,x13
    c8e4:	000106b7          	lui	x13,0x10
    c8e8:	fff68693          	addi	x13,x13,-1 # ffff <__multf3+0x125b>
    c8ec:	00d7f7b3          	and	x15,x15,x13
    c8f0:	01079793          	slli	x15,x15,0x10
    c8f4:	00d87833          	and	x16,x16,x13
    c8f8:	010787b3          	add	x15,x15,x16
    c8fc:	00e4e663          	bltu	x9,x14,c908 <__umoddi3+0x498>
    c900:	00e49e63          	bne	x9,x14,c91c <__umoddi3+0x4ac>
    c904:	00fb7c63          	bgeu	x22,x15,c91c <__umoddi3+0x4ac>
    c908:	41278933          	sub	x18,x15,x18
    c90c:	0127b6b3          	sltu	x13,x15,x18
    c910:	017686b3          	add	x13,x13,x23
    c914:	00090793          	addi	x15,x18,0
    c918:	40d70733          	sub	x14,x14,x13
    c91c:	40fb07b3          	sub	x15,x22,x15
    c920:	00fb3b33          	sltu	x22,x22,x15
    c924:	40e485b3          	sub	x11,x9,x14
    c928:	416585b3          	sub	x11,x11,x22
    c92c:	01559ab3          	sll	x21,x11,x21
    c930:	0147d7b3          	srl	x15,x15,x20
    c934:	00fae533          	or	x10,x21,x15
    c938:	0145d5b3          	srl	x11,x11,x20
    c93c:	c71ff06f          	jal	x0,c5ac <__umoddi3+0x13c>

0000c940 <__adddf3>:
    c940:	00100837          	lui	x16,0x100
    c944:	fff80813          	addi	x16,x16,-1 # fffff <__heap_start+0xecc8f>
    c948:	fe010113          	addi	x2,x2,-32
    c94c:	00b878b3          	and	x17,x16,x11
    c950:	0145d713          	srli	x14,x11,0x14
    c954:	01d55793          	srli	x15,x10,0x1d
    c958:	00d87833          	and	x16,x16,x13
    c95c:	00912a23          	sw	x9,20(x2)
    c960:	7ff77493          	andi	x9,x14,2047
    c964:	00389713          	slli	x14,x17,0x3
    c968:	0146d893          	srli	x17,x13,0x14
    c96c:	00381813          	slli	x16,x16,0x3
    c970:	01212823          	sw	x18,16(x2)
    c974:	00e7e7b3          	or	x15,x15,x14
    c978:	7ff8f893          	andi	x17,x17,2047
    c97c:	01d65713          	srli	x14,x12,0x1d
    c980:	00112e23          	sw	x1,28(x2)
    c984:	00812c23          	sw	x8,24(x2)
    c988:	01312623          	sw	x19,12(x2)
    c98c:	01f5d913          	srli	x18,x11,0x1f
    c990:	01f6d693          	srli	x13,x13,0x1f
    c994:	01076733          	or	x14,x14,x16
    c998:	00351513          	slli	x10,x10,0x3
    c99c:	00361613          	slli	x12,x12,0x3
    c9a0:	41148833          	sub	x16,x9,x17
    c9a4:	2ad91a63          	bne	x18,x13,cc58 <__adddf3+0x318>
    c9a8:	11005c63          	bge	x0,x16,cac0 <__adddf3+0x180>
    c9ac:	04089063          	bne	x17,x0,c9ec <__adddf3+0xac>
    c9b0:	00c766b3          	or	x13,x14,x12
    c9b4:	66068063          	beq	x13,x0,d014 <__adddf3+0x6d4>
    c9b8:	fff80593          	addi	x11,x16,-1
    c9bc:	02059063          	bne	x11,x0,c9dc <__adddf3+0x9c>
    c9c0:	00c50633          	add	x12,x10,x12
    c9c4:	00a636b3          	sltu	x13,x12,x10
    c9c8:	00e78733          	add	x14,x15,x14
    c9cc:	00060513          	addi	x10,x12,0
    c9d0:	00d707b3          	add	x15,x14,x13
    c9d4:	00100493          	addi	x9,x0,1
    c9d8:	06c0006f          	jal	x0,ca44 <__adddf3+0x104>
    c9dc:	7ff00693          	addi	x13,x0,2047
    c9e0:	02d81063          	bne	x16,x13,ca00 <__adddf3+0xc0>
    c9e4:	7ff00493          	addi	x9,x0,2047
    c9e8:	1f80006f          	jal	x0,cbe0 <__adddf3+0x2a0>
    c9ec:	7ff00693          	addi	x13,x0,2047
    c9f0:	1ed48863          	beq	x9,x13,cbe0 <__adddf3+0x2a0>
    c9f4:	008006b7          	lui	x13,0x800
    c9f8:	00d76733          	or	x14,x14,x13
    c9fc:	00080593          	addi	x11,x16,0
    ca00:	03800693          	addi	x13,x0,56
    ca04:	0ab6c863          	blt	x13,x11,cab4 <__adddf3+0x174>
    ca08:	01f00693          	addi	x13,x0,31
    ca0c:	06b6ca63          	blt	x13,x11,ca80 <__adddf3+0x140>
    ca10:	02000813          	addi	x16,x0,32
    ca14:	40b80833          	sub	x16,x16,x11
    ca18:	010716b3          	sll	x13,x14,x16
    ca1c:	00b658b3          	srl	x17,x12,x11
    ca20:	01061833          	sll	x16,x12,x16
    ca24:	0116e6b3          	or	x13,x13,x17
    ca28:	01003833          	sltu	x16,x0,x16
    ca2c:	0106e6b3          	or	x13,x13,x16
    ca30:	00b755b3          	srl	x11,x14,x11
    ca34:	00a68533          	add	x10,x13,x10
    ca38:	00f585b3          	add	x11,x11,x15
    ca3c:	00d536b3          	sltu	x13,x10,x13
    ca40:	00d587b3          	add	x15,x11,x13
    ca44:	00879713          	slli	x14,x15,0x8
    ca48:	18075c63          	bge	x14,x0,cbe0 <__adddf3+0x2a0>
    ca4c:	00148493          	addi	x9,x9,1
    ca50:	7ff00713          	addi	x14,x0,2047
    ca54:	5ae48a63          	beq	x9,x14,d008 <__adddf3+0x6c8>
    ca58:	ff800737          	lui	x14,0xff800
    ca5c:	fff70713          	addi	x14,x14,-1 # ff7fffff <__heap_end+0xff3fffff>
    ca60:	00e7f733          	and	x14,x15,x14
    ca64:	00155793          	srli	x15,x10,0x1
    ca68:	00157513          	andi	x10,x10,1
    ca6c:	00a7e7b3          	or	x15,x15,x10
    ca70:	01f71513          	slli	x10,x14,0x1f
    ca74:	00f56533          	or	x10,x10,x15
    ca78:	00175793          	srli	x15,x14,0x1
    ca7c:	1640006f          	jal	x0,cbe0 <__adddf3+0x2a0>
    ca80:	fe058693          	addi	x13,x11,-32
    ca84:	02000893          	addi	x17,x0,32
    ca88:	00d756b3          	srl	x13,x14,x13
    ca8c:	00000813          	addi	x16,x0,0
    ca90:	01158863          	beq	x11,x17,caa0 <__adddf3+0x160>
    ca94:	04000813          	addi	x16,x0,64
    ca98:	40b80833          	sub	x16,x16,x11
    ca9c:	01071833          	sll	x16,x14,x16
    caa0:	00c86833          	or	x16,x16,x12
    caa4:	01003833          	sltu	x16,x0,x16
    caa8:	0106e6b3          	or	x13,x13,x16
    caac:	00000593          	addi	x11,x0,0
    cab0:	f85ff06f          	jal	x0,ca34 <__adddf3+0xf4>
    cab4:	00c766b3          	or	x13,x14,x12
    cab8:	00d036b3          	sltu	x13,x0,x13
    cabc:	ff1ff06f          	jal	x0,caac <__adddf3+0x16c>
    cac0:	0c080a63          	beq	x16,x0,cb94 <__adddf3+0x254>
    cac4:	409886b3          	sub	x13,x17,x9
    cac8:	02049463          	bne	x9,x0,caf0 <__adddf3+0x1b0>
    cacc:	00a7e5b3          	or	x11,x15,x10
    cad0:	50058e63          	beq	x11,x0,cfec <__adddf3+0x6ac>
    cad4:	fff68593          	addi	x11,x13,-1 # 7fffff <__heap_end+0x3fffff>
    cad8:	ee0584e3          	beq	x11,x0,c9c0 <__adddf3+0x80>
    cadc:	7ff00813          	addi	x16,x0,2047
    cae0:	03069263          	bne	x13,x16,cb04 <__adddf3+0x1c4>
    cae4:	00070793          	addi	x15,x14,0
    cae8:	00060513          	addi	x10,x12,0
    caec:	ef9ff06f          	jal	x0,c9e4 <__adddf3+0xa4>
    caf0:	7ff00593          	addi	x11,x0,2047
    caf4:	feb888e3          	beq	x17,x11,cae4 <__adddf3+0x1a4>
    caf8:	008005b7          	lui	x11,0x800
    cafc:	00b7e7b3          	or	x15,x15,x11
    cb00:	00068593          	addi	x11,x13,0
    cb04:	03800693          	addi	x13,x0,56
    cb08:	08b6c063          	blt	x13,x11,cb88 <__adddf3+0x248>
    cb0c:	01f00693          	addi	x13,x0,31
    cb10:	04b6c263          	blt	x13,x11,cb54 <__adddf3+0x214>
    cb14:	02000813          	addi	x16,x0,32
    cb18:	40b80833          	sub	x16,x16,x11
    cb1c:	010796b3          	sll	x13,x15,x16
    cb20:	00b55333          	srl	x6,x10,x11
    cb24:	01051833          	sll	x16,x10,x16
    cb28:	0066e6b3          	or	x13,x13,x6
    cb2c:	01003833          	sltu	x16,x0,x16
    cb30:	0106e6b3          	or	x13,x13,x16
    cb34:	00b7d5b3          	srl	x11,x15,x11
    cb38:	00c68633          	add	x12,x13,x12
    cb3c:	00e585b3          	add	x11,x11,x14
    cb40:	00d636b3          	sltu	x13,x12,x13
    cb44:	00060513          	addi	x10,x12,0
    cb48:	00d587b3          	add	x15,x11,x13
    cb4c:	00088493          	addi	x9,x17,0
    cb50:	ef5ff06f          	jal	x0,ca44 <__adddf3+0x104>
    cb54:	fe058693          	addi	x13,x11,-32 # 7fffe0 <__heap_end+0x3fffe0>
    cb58:	02000313          	addi	x6,x0,32
    cb5c:	00d7d6b3          	srl	x13,x15,x13
    cb60:	00000813          	addi	x16,x0,0
    cb64:	00658863          	beq	x11,x6,cb74 <__adddf3+0x234>
    cb68:	04000813          	addi	x16,x0,64
    cb6c:	40b80833          	sub	x16,x16,x11
    cb70:	01079833          	sll	x16,x15,x16
    cb74:	00a86833          	or	x16,x16,x10
    cb78:	01003833          	sltu	x16,x0,x16
    cb7c:	0106e6b3          	or	x13,x13,x16
    cb80:	00000593          	addi	x11,x0,0
    cb84:	fb5ff06f          	jal	x0,cb38 <__adddf3+0x1f8>
    cb88:	00a7e6b3          	or	x13,x15,x10
    cb8c:	00d036b3          	sltu	x13,x0,x13
    cb90:	ff1ff06f          	jal	x0,cb80 <__adddf3+0x240>
    cb94:	00148693          	addi	x13,x9,1
    cb98:	7fe6f593          	andi	x11,x13,2046
    cb9c:	08059663          	bne	x11,x0,cc28 <__adddf3+0x2e8>
    cba0:	00a7e6b3          	or	x13,x15,x10
    cba4:	06049263          	bne	x9,x0,cc08 <__adddf3+0x2c8>
    cba8:	44068863          	beq	x13,x0,cff8 <__adddf3+0x6b8>
    cbac:	00c766b3          	or	x13,x14,x12
    cbb0:	02068863          	beq	x13,x0,cbe0 <__adddf3+0x2a0>
    cbb4:	00c50633          	add	x12,x10,x12
    cbb8:	00a636b3          	sltu	x13,x12,x10
    cbbc:	00e78733          	add	x14,x15,x14
    cbc0:	00d707b3          	add	x15,x14,x13
    cbc4:	00879713          	slli	x14,x15,0x8
    cbc8:	00060513          	addi	x10,x12,0
    cbcc:	00075a63          	bge	x14,x0,cbe0 <__adddf3+0x2a0>
    cbd0:	ff800737          	lui	x14,0xff800
    cbd4:	fff70713          	addi	x14,x14,-1 # ff7fffff <__heap_end+0xff3fffff>
    cbd8:	00e7f7b3          	and	x15,x15,x14
    cbdc:	00100493          	addi	x9,x0,1
    cbe0:	00757713          	andi	x14,x10,7
    cbe4:	44070863          	beq	x14,x0,d034 <__adddf3+0x6f4>
    cbe8:	00f57713          	andi	x14,x10,15
    cbec:	00400693          	addi	x13,x0,4
    cbf0:	44d70263          	beq	x14,x13,d034 <__adddf3+0x6f4>
    cbf4:	00450713          	addi	x14,x10,4
    cbf8:	00a736b3          	sltu	x13,x14,x10
    cbfc:	00d787b3          	add	x15,x15,x13
    cc00:	00070513          	addi	x10,x14,0
    cc04:	4300006f          	jal	x0,d034 <__adddf3+0x6f4>
    cc08:	ec068ee3          	beq	x13,x0,cae4 <__adddf3+0x1a4>
    cc0c:	00c76633          	or	x12,x14,x12
    cc10:	dc060ae3          	beq	x12,x0,c9e4 <__adddf3+0xa4>
    cc14:	00000913          	addi	x18,x0,0
    cc18:	004007b7          	lui	x15,0x400
    cc1c:	00000513          	addi	x10,x0,0
    cc20:	7ff00493          	addi	x9,x0,2047
    cc24:	4100006f          	jal	x0,d034 <__adddf3+0x6f4>
    cc28:	7ff00593          	addi	x11,x0,2047
    cc2c:	3cb68c63          	beq	x13,x11,d004 <__adddf3+0x6c4>
    cc30:	00c50633          	add	x12,x10,x12
    cc34:	00a63533          	sltu	x10,x12,x10
    cc38:	00e78733          	add	x14,x15,x14
    cc3c:	00a70733          	add	x14,x14,x10
    cc40:	01f71513          	slli	x10,x14,0x1f
    cc44:	00165613          	srli	x12,x12,0x1
    cc48:	00c56533          	or	x10,x10,x12
    cc4c:	00175793          	srli	x15,x14,0x1
    cc50:	00068493          	addi	x9,x13,0
    cc54:	f8dff06f          	jal	x0,cbe0 <__adddf3+0x2a0>
    cc58:	0f005c63          	bge	x0,x16,cd50 <__adddf3+0x410>
    cc5c:	08089e63          	bne	x17,x0,ccf8 <__adddf3+0x3b8>
    cc60:	00c766b3          	or	x13,x14,x12
    cc64:	3a068863          	beq	x13,x0,d014 <__adddf3+0x6d4>
    cc68:	fff80693          	addi	x13,x16,-1
    cc6c:	02069063          	bne	x13,x0,cc8c <__adddf3+0x34c>
    cc70:	40c50633          	sub	x12,x10,x12
    cc74:	00c536b3          	sltu	x13,x10,x12
    cc78:	40e78733          	sub	x14,x15,x14
    cc7c:	00060513          	addi	x10,x12,0
    cc80:	40d707b3          	sub	x15,x14,x13
    cc84:	00100493          	addi	x9,x0,1
    cc88:	0540006f          	jal	x0,ccdc <__adddf3+0x39c>
    cc8c:	7ff00593          	addi	x11,x0,2047
    cc90:	d4b80ae3          	beq	x16,x11,c9e4 <__adddf3+0xa4>
    cc94:	03800593          	addi	x11,x0,56
    cc98:	0ad5c663          	blt	x11,x13,cd44 <__adddf3+0x404>
    cc9c:	01f00593          	addi	x11,x0,31
    cca0:	06d5c863          	blt	x11,x13,cd10 <__adddf3+0x3d0>
    cca4:	02000813          	addi	x16,x0,32
    cca8:	40d80833          	sub	x16,x16,x13
    ccac:	00d658b3          	srl	x17,x12,x13
    ccb0:	010715b3          	sll	x11,x14,x16
    ccb4:	01061833          	sll	x16,x12,x16
    ccb8:	0115e5b3          	or	x11,x11,x17
    ccbc:	01003833          	sltu	x16,x0,x16
    ccc0:	0105e633          	or	x12,x11,x16
    ccc4:	00d756b3          	srl	x13,x14,x13
    ccc8:	40c50633          	sub	x12,x10,x12
    cccc:	00c53733          	sltu	x14,x10,x12
    ccd0:	40d786b3          	sub	x13,x15,x13
    ccd4:	00060513          	addi	x10,x12,0
    ccd8:	40e687b3          	sub	x15,x13,x14
    ccdc:	00879713          	slli	x14,x15,0x8
    cce0:	f00750e3          	bge	x14,x0,cbe0 <__adddf3+0x2a0>
    cce4:	00800437          	lui	x8,0x800
    cce8:	fff40413          	addi	x8,x8,-1 # 7fffff <__heap_end+0x3fffff>
    ccec:	0087f433          	and	x8,x15,x8
    ccf0:	00050993          	addi	x19,x10,0
    ccf4:	2100006f          	jal	x0,cf04 <__adddf3+0x5c4>
    ccf8:	7ff00693          	addi	x13,x0,2047
    ccfc:	eed482e3          	beq	x9,x13,cbe0 <__adddf3+0x2a0>
    cd00:	008006b7          	lui	x13,0x800
    cd04:	00d76733          	or	x14,x14,x13
    cd08:	00080693          	addi	x13,x16,0
    cd0c:	f89ff06f          	jal	x0,cc94 <__adddf3+0x354>
    cd10:	fe068593          	addi	x11,x13,-32 # 7fffe0 <__heap_end+0x3fffe0>
    cd14:	02000893          	addi	x17,x0,32
    cd18:	00b755b3          	srl	x11,x14,x11
    cd1c:	00000813          	addi	x16,x0,0
    cd20:	01168863          	beq	x13,x17,cd30 <__adddf3+0x3f0>
    cd24:	04000813          	addi	x16,x0,64
    cd28:	40d80833          	sub	x16,x16,x13
    cd2c:	01071833          	sll	x16,x14,x16
    cd30:	00c86833          	or	x16,x16,x12
    cd34:	01003833          	sltu	x16,x0,x16
    cd38:	0105e633          	or	x12,x11,x16
    cd3c:	00000693          	addi	x13,x0,0
    cd40:	f89ff06f          	jal	x0,ccc8 <__adddf3+0x388>
    cd44:	00c76633          	or	x12,x14,x12
    cd48:	00c03633          	sltu	x12,x0,x12
    cd4c:	ff1ff06f          	jal	x0,cd3c <__adddf3+0x3fc>
    cd50:	0e080863          	beq	x16,x0,ce40 <__adddf3+0x500>
    cd54:	40988833          	sub	x16,x17,x9
    cd58:	04049263          	bne	x9,x0,cd9c <__adddf3+0x45c>
    cd5c:	00a7e5b3          	or	x11,x15,x10
    cd60:	2a058e63          	beq	x11,x0,d01c <__adddf3+0x6dc>
    cd64:	fff80593          	addi	x11,x16,-1
    cd68:	00059e63          	bne	x11,x0,cd84 <__adddf3+0x444>
    cd6c:	40a60533          	sub	x10,x12,x10
    cd70:	40f70733          	sub	x14,x14,x15
    cd74:	00a63633          	sltu	x12,x12,x10
    cd78:	40c707b3          	sub	x15,x14,x12
    cd7c:	00068913          	addi	x18,x13,0
    cd80:	f05ff06f          	jal	x0,cc84 <__adddf3+0x344>
    cd84:	7ff00313          	addi	x6,x0,2047
    cd88:	02681463          	bne	x16,x6,cdb0 <__adddf3+0x470>
    cd8c:	00070793          	addi	x15,x14,0
    cd90:	00060513          	addi	x10,x12,0
    cd94:	7ff00493          	addi	x9,x0,2047
    cd98:	0d00006f          	jal	x0,ce68 <__adddf3+0x528>
    cd9c:	7ff00593          	addi	x11,x0,2047
    cda0:	feb886e3          	beq	x17,x11,cd8c <__adddf3+0x44c>
    cda4:	008005b7          	lui	x11,0x800
    cda8:	00b7e7b3          	or	x15,x15,x11
    cdac:	00080593          	addi	x11,x16,0
    cdb0:	03800813          	addi	x16,x0,56
    cdb4:	08b84063          	blt	x16,x11,ce34 <__adddf3+0x4f4>
    cdb8:	01f00813          	addi	x16,x0,31
    cdbc:	04b84263          	blt	x16,x11,ce00 <__adddf3+0x4c0>
    cdc0:	02000313          	addi	x6,x0,32
    cdc4:	40b30333          	sub	x6,x6,x11
    cdc8:	00b55e33          	srl	x28,x10,x11
    cdcc:	00679833          	sll	x16,x15,x6
    cdd0:	00651333          	sll	x6,x10,x6
    cdd4:	01c86833          	or	x16,x16,x28
    cdd8:	00603333          	sltu	x6,x0,x6
    cddc:	00686533          	or	x10,x16,x6
    cde0:	00b7d5b3          	srl	x11,x15,x11
    cde4:	40a60533          	sub	x10,x12,x10
    cde8:	40b705b3          	sub	x11,x14,x11
    cdec:	00a63633          	sltu	x12,x12,x10
    cdf0:	40c587b3          	sub	x15,x11,x12
    cdf4:	00088493          	addi	x9,x17,0
    cdf8:	00068913          	addi	x18,x13,0
    cdfc:	ee1ff06f          	jal	x0,ccdc <__adddf3+0x39c>
    ce00:	fe058813          	addi	x16,x11,-32 # 7fffe0 <__heap_end+0x3fffe0>
    ce04:	02000e13          	addi	x28,x0,32
    ce08:	0107d833          	srl	x16,x15,x16
    ce0c:	00000313          	addi	x6,x0,0
    ce10:	01c58863          	beq	x11,x28,ce20 <__adddf3+0x4e0>
    ce14:	04000313          	addi	x6,x0,64
    ce18:	40b30333          	sub	x6,x6,x11
    ce1c:	00679333          	sll	x6,x15,x6
    ce20:	00a36333          	or	x6,x6,x10
    ce24:	00603333          	sltu	x6,x0,x6
    ce28:	00686533          	or	x10,x16,x6
    ce2c:	00000593          	addi	x11,x0,0
    ce30:	fb5ff06f          	jal	x0,cde4 <__adddf3+0x4a4>
    ce34:	00a7e533          	or	x10,x15,x10
    ce38:	00a03533          	sltu	x10,x0,x10
    ce3c:	ff1ff06f          	jal	x0,ce2c <__adddf3+0x4ec>
    ce40:	00148593          	addi	x11,x9,1
    ce44:	7fe5f593          	andi	x11,x11,2046
    ce48:	08059663          	bne	x11,x0,ced4 <__adddf3+0x594>
    ce4c:	00a7e833          	or	x16,x15,x10
    ce50:	00c765b3          	or	x11,x14,x12
    ce54:	06049063          	bne	x9,x0,ceb4 <__adddf3+0x574>
    ce58:	00081c63          	bne	x16,x0,ce70 <__adddf3+0x530>
    ce5c:	10058e63          	beq	x11,x0,cf78 <__adddf3+0x638>
    ce60:	00070793          	addi	x15,x14,0
    ce64:	00060513          	addi	x10,x12,0
    ce68:	00068913          	addi	x18,x13,0
    ce6c:	d75ff06f          	jal	x0,cbe0 <__adddf3+0x2a0>
    ce70:	d60588e3          	beq	x11,x0,cbe0 <__adddf3+0x2a0>
    ce74:	40c50833          	sub	x16,x10,x12
    ce78:	010538b3          	sltu	x17,x10,x16
    ce7c:	40e785b3          	sub	x11,x15,x14
    ce80:	411585b3          	sub	x11,x11,x17
    ce84:	00859893          	slli	x17,x11,0x8
    ce88:	0008dc63          	bge	x17,x0,cea0 <__adddf3+0x560>
    ce8c:	40a60533          	sub	x10,x12,x10
    ce90:	40f70733          	sub	x14,x14,x15
    ce94:	00a63633          	sltu	x12,x12,x10
    ce98:	40c707b3          	sub	x15,x14,x12
    ce9c:	fcdff06f          	jal	x0,ce68 <__adddf3+0x528>
    cea0:	00b86533          	or	x10,x16,x11
    cea4:	18050463          	beq	x10,x0,d02c <__adddf3+0x6ec>
    cea8:	00058793          	addi	x15,x11,0
    ceac:	00080513          	addi	x10,x16,0
    ceb0:	d31ff06f          	jal	x0,cbe0 <__adddf3+0x2a0>
    ceb4:	00081c63          	bne	x16,x0,cecc <__adddf3+0x58c>
    ceb8:	d4058ee3          	beq	x11,x0,cc14 <__adddf3+0x2d4>
    cebc:	00070793          	addi	x15,x14,0
    cec0:	00060513          	addi	x10,x12,0
    cec4:	00068913          	addi	x18,x13,0
    cec8:	b1dff06f          	jal	x0,c9e4 <__adddf3+0xa4>
    cecc:	b0058ce3          	beq	x11,x0,c9e4 <__adddf3+0xa4>
    ced0:	d45ff06f          	jal	x0,cc14 <__adddf3+0x2d4>
    ced4:	40c505b3          	sub	x11,x10,x12
    ced8:	00b53833          	sltu	x16,x10,x11
    cedc:	40e78433          	sub	x8,x15,x14
    cee0:	41040433          	sub	x8,x8,x16
    cee4:	00841813          	slli	x16,x8,0x8
    cee8:	00058993          	addi	x19,x11,0
    ceec:	08085063          	bge	x16,x0,cf6c <__adddf3+0x62c>
    cef0:	40a609b3          	sub	x19,x12,x10
    cef4:	40f70433          	sub	x8,x14,x15
    cef8:	01363633          	sltu	x12,x12,x19
    cefc:	40c40433          	sub	x8,x8,x12
    cf00:	00068913          	addi	x18,x13,0
    cf04:	06040e63          	beq	x8,x0,cf80 <__adddf3+0x640>
    cf08:	00040513          	addi	x10,x8,0
    cf0c:	4e5040ef          	jal	x1,11bf0 <__clzsi2>
    cf10:	ff850693          	addi	x13,x10,-8
    cf14:	02000793          	addi	x15,x0,32
    cf18:	40d787b3          	sub	x15,x15,x13
    cf1c:	00d41433          	sll	x8,x8,x13
    cf20:	00f9d7b3          	srl	x15,x19,x15
    cf24:	0087e7b3          	or	x15,x15,x8
    cf28:	00d99433          	sll	x8,x19,x13
    cf2c:	0a96c463          	blt	x13,x9,cfd4 <__adddf3+0x694>
    cf30:	409686b3          	sub	x13,x13,x9
    cf34:	00168613          	addi	x12,x13,1
    cf38:	01f00713          	addi	x14,x0,31
    cf3c:	06c74263          	blt	x14,x12,cfa0 <__adddf3+0x660>
    cf40:	02000713          	addi	x14,x0,32
    cf44:	40c70733          	sub	x14,x14,x12
    cf48:	00e79533          	sll	x10,x15,x14
    cf4c:	00c456b3          	srl	x13,x8,x12
    cf50:	00e41733          	sll	x14,x8,x14
    cf54:	00d56533          	or	x10,x10,x13
    cf58:	00e03733          	sltu	x14,x0,x14
    cf5c:	00e56533          	or	x10,x10,x14
    cf60:	00c7d7b3          	srl	x15,x15,x12
    cf64:	00000493          	addi	x9,x0,0
    cf68:	c79ff06f          	jal	x0,cbe0 <__adddf3+0x2a0>
    cf6c:	0085e5b3          	or	x11,x11,x8
    cf70:	f8059ae3          	bne	x11,x0,cf04 <__adddf3+0x5c4>
    cf74:	00000493          	addi	x9,x0,0
    cf78:	00000913          	addi	x18,x0,0
    cf7c:	08c0006f          	jal	x0,d008 <__adddf3+0x6c8>
    cf80:	00098513          	addi	x10,x19,0
    cf84:	46d040ef          	jal	x1,11bf0 <__clzsi2>
    cf88:	01850693          	addi	x13,x10,24
    cf8c:	01f00793          	addi	x15,x0,31
    cf90:	f8d7d2e3          	bge	x15,x13,cf14 <__adddf3+0x5d4>
    cf94:	ff850793          	addi	x15,x10,-8
    cf98:	00f997b3          	sll	x15,x19,x15
    cf9c:	f91ff06f          	jal	x0,cf2c <__adddf3+0x5ec>
    cfa0:	fe168693          	addi	x13,x13,-31
    cfa4:	00d7d533          	srl	x10,x15,x13
    cfa8:	02000693          	addi	x13,x0,32
    cfac:	00000713          	addi	x14,x0,0
    cfb0:	00d60863          	beq	x12,x13,cfc0 <__adddf3+0x680>
    cfb4:	04000713          	addi	x14,x0,64
    cfb8:	40c70733          	sub	x14,x14,x12
    cfbc:	00e79733          	sll	x14,x15,x14
    cfc0:	00e46733          	or	x14,x8,x14
    cfc4:	00e03733          	sltu	x14,x0,x14
    cfc8:	00e56533          	or	x10,x10,x14
    cfcc:	00000793          	addi	x15,x0,0
    cfd0:	f95ff06f          	jal	x0,cf64 <__adddf3+0x624>
    cfd4:	ff800737          	lui	x14,0xff800
    cfd8:	fff70713          	addi	x14,x14,-1 # ff7fffff <__heap_end+0xff3fffff>
    cfdc:	40d484b3          	sub	x9,x9,x13
    cfe0:	00e7f7b3          	and	x15,x15,x14
    cfe4:	00040513          	addi	x10,x8,0
    cfe8:	bf9ff06f          	jal	x0,cbe0 <__adddf3+0x2a0>
    cfec:	00070793          	addi	x15,x14,0
    cff0:	00060513          	addi	x10,x12,0
    cff4:	c5dff06f          	jal	x0,cc50 <__adddf3+0x310>
    cff8:	00070793          	addi	x15,x14,0
    cffc:	00060513          	addi	x10,x12,0
    d000:	be1ff06f          	jal	x0,cbe0 <__adddf3+0x2a0>
    d004:	7ff00493          	addi	x9,x0,2047
    d008:	00000793          	addi	x15,x0,0
    d00c:	00000513          	addi	x10,x0,0
    d010:	0240006f          	jal	x0,d034 <__adddf3+0x6f4>
    d014:	00080493          	addi	x9,x16,0
    d018:	bc9ff06f          	jal	x0,cbe0 <__adddf3+0x2a0>
    d01c:	00070793          	addi	x15,x14,0
    d020:	00060513          	addi	x10,x12,0
    d024:	00080493          	addi	x9,x16,0
    d028:	e41ff06f          	jal	x0,ce68 <__adddf3+0x528>
    d02c:	00000793          	addi	x15,x0,0
    d030:	00000913          	addi	x18,x0,0
    d034:	00879713          	slli	x14,x15,0x8
    d038:	00075e63          	bge	x14,x0,d054 <__adddf3+0x714>
    d03c:	00148493          	addi	x9,x9,1
    d040:	7ff00713          	addi	x14,x0,2047
    d044:	08e48263          	beq	x9,x14,d0c8 <__adddf3+0x788>
    d048:	ff800737          	lui	x14,0xff800
    d04c:	fff70713          	addi	x14,x14,-1 # ff7fffff <__heap_end+0xff3fffff>
    d050:	00e7f7b3          	and	x15,x15,x14
    d054:	01d79693          	slli	x13,x15,0x1d
    d058:	00355513          	srli	x10,x10,0x3
    d05c:	7ff00713          	addi	x14,x0,2047
    d060:	00a6e6b3          	or	x13,x13,x10
    d064:	0037d793          	srli	x15,x15,0x3
    d068:	00e49e63          	bne	x9,x14,d084 <__adddf3+0x744>
    d06c:	00f6e6b3          	or	x13,x13,x15
    d070:	00000793          	addi	x15,x0,0
    d074:	00068863          	beq	x13,x0,d084 <__adddf3+0x744>
    d078:	000807b7          	lui	x15,0x80
    d07c:	00000693          	addi	x13,x0,0
    d080:	00000913          	addi	x18,x0,0
    d084:	01449713          	slli	x14,x9,0x14
    d088:	7ff00637          	lui	x12,0x7ff00
    d08c:	00c79793          	slli	x15,x15,0xc
    d090:	00c77733          	and	x14,x14,x12
    d094:	01c12083          	lw	x1,28(x2)
    d098:	01812403          	lw	x8,24(x2)
    d09c:	00c7d793          	srli	x15,x15,0xc
    d0a0:	00f767b3          	or	x15,x14,x15
    d0a4:	01f91713          	slli	x14,x18,0x1f
    d0a8:	00e7e633          	or	x12,x15,x14
    d0ac:	01412483          	lw	x9,20(x2)
    d0b0:	01012903          	lw	x18,16(x2)
    d0b4:	00c12983          	lw	x19,12(x2)
    d0b8:	00068513          	addi	x10,x13,0
    d0bc:	00060593          	addi	x11,x12,0 # 7ff00000 <__heap_end+0x7fb00000>
    d0c0:	02010113          	addi	x2,x2,32
    d0c4:	00008067          	jalr	x0,0(x1)
    d0c8:	00000793          	addi	x15,x0,0
    d0cc:	00000513          	addi	x10,x0,0
    d0d0:	f85ff06f          	jal	x0,d054 <__adddf3+0x714>

0000d0d4 <__divdf3>:
    d0d4:	fb010113          	addi	x2,x2,-80
    d0d8:	05212023          	sw	x18,64(x2)
    d0dc:	0145d913          	srli	x18,x11,0x14
    d0e0:	04912223          	sw	x9,68(x2)
    d0e4:	03312e23          	sw	x19,60(x2)
    d0e8:	03412c23          	sw	x20,56(x2)
    d0ec:	03512a23          	sw	x21,52(x2)
    d0f0:	03712623          	sw	x23,44(x2)
    d0f4:	00c59493          	slli	x9,x11,0xc
    d0f8:	04112623          	sw	x1,76(x2)
    d0fc:	04812423          	sw	x8,72(x2)
    d100:	03612823          	sw	x22,48(x2)
    d104:	03812423          	sw	x24,40(x2)
    d108:	03912223          	sw	x25,36(x2)
    d10c:	03a12023          	sw	x26,32(x2)
    d110:	01b12e23          	sw	x27,28(x2)
    d114:	7ff97913          	andi	x18,x18,2047
    d118:	00050993          	addi	x19,x10,0
    d11c:	00060b93          	addi	x23,x12,0
    d120:	00068a13          	addi	x20,x13,0
    d124:	00c4d493          	srli	x9,x9,0xc
    d128:	01f5da93          	srli	x21,x11,0x1f
    d12c:	0a090063          	beq	x18,x0,d1cc <__divdf3+0xf8>
    d130:	7ff00793          	addi	x15,x0,2047
    d134:	10f90063          	beq	x18,x15,d234 <__divdf3+0x160>
    d138:	01d55d13          	srli	x26,x10,0x1d
    d13c:	00349493          	slli	x9,x9,0x3
    d140:	009d6d33          	or	x26,x26,x9
    d144:	008007b7          	lui	x15,0x800
    d148:	00fd6d33          	or	x26,x26,x15
    d14c:	00351413          	slli	x8,x10,0x3
    d150:	c0190913          	addi	x18,x18,-1023
    d154:	00000b13          	addi	x22,x0,0
    d158:	014a5713          	srli	x14,x20,0x14
    d15c:	00ca1993          	slli	x19,x20,0xc
    d160:	7ff77713          	andi	x14,x14,2047
    d164:	00c9d993          	srli	x19,x19,0xc
    d168:	01fa5a13          	srli	x20,x20,0x1f
    d16c:	10070263          	beq	x14,x0,d270 <__divdf3+0x19c>
    d170:	7ff00793          	addi	x15,x0,2047
    d174:	16f70663          	beq	x14,x15,d2e0 <__divdf3+0x20c>
    d178:	00399993          	slli	x19,x19,0x3
    d17c:	01dbd793          	srli	x15,x23,0x1d
    d180:	0137e7b3          	or	x15,x15,x19
    d184:	008009b7          	lui	x19,0x800
    d188:	0137e9b3          	or	x19,x15,x19
    d18c:	003b9693          	slli	x13,x23,0x3
    d190:	c0170713          	addi	x14,x14,-1023
    d194:	00000793          	addi	x15,x0,0
    d198:	40e90933          	sub	x18,x18,x14
    d19c:	002b1713          	slli	x14,x22,0x2
    d1a0:	00f76733          	or	x14,x14,x15
    d1a4:	fff70713          	addi	x14,x14,-1
    d1a8:	00e00613          	addi	x12,x0,14
    d1ac:	014ac4b3          	xor	x9,x21,x20
    d1b0:	16e66463          	bltu	x12,x14,d318 <__divdf3+0x244>
    d1b4:	00012637          	lui	x12,0x12
    d1b8:	00271713          	slli	x14,x14,0x2
    d1bc:	74c60613          	addi	x12,x12,1868 # 1274c <_ctype_+0x104>
    d1c0:	00c70733          	add	x14,x14,x12
    d1c4:	00072703          	lw	x14,0(x14)
    d1c8:	00070067          	jalr	x0,0(x14)
    d1cc:	00a4ed33          	or	x26,x9,x10
    d1d0:	060d0e63          	beq	x26,x0,d24c <__divdf3+0x178>
    d1d4:	02048e63          	beq	x9,x0,d210 <__divdf3+0x13c>
    d1d8:	00048513          	addi	x10,x9,0
    d1dc:	215040ef          	jal	x1,11bf0 <__clzsi2>
    d1e0:	ff550793          	addi	x15,x10,-11
    d1e4:	01d00d13          	addi	x26,x0,29
    d1e8:	ff850713          	addi	x14,x10,-8
    d1ec:	40fd0d33          	sub	x26,x26,x15
    d1f0:	00e494b3          	sll	x9,x9,x14
    d1f4:	01a9dd33          	srl	x26,x19,x26
    d1f8:	009d6d33          	or	x26,x26,x9
    d1fc:	00e994b3          	sll	x9,x19,x14
    d200:	c0d00913          	addi	x18,x0,-1011
    d204:	40a90933          	sub	x18,x18,x10
    d208:	00048413          	addi	x8,x9,0
    d20c:	f49ff06f          	jal	x0,d154 <__divdf3+0x80>
    d210:	1e1040ef          	jal	x1,11bf0 <__clzsi2>
    d214:	00050d13          	addi	x26,x10,0
    d218:	015d0793          	addi	x15,x26,21
    d21c:	01c00713          	addi	x14,x0,28
    d220:	02050513          	addi	x10,x10,32
    d224:	fcf750e3          	bge	x14,x15,d1e4 <__divdf3+0x110>
    d228:	ff8d0d13          	addi	x26,x26,-8
    d22c:	01a99d33          	sll	x26,x19,x26
    d230:	fd1ff06f          	jal	x0,d200 <__divdf3+0x12c>
    d234:	00a4ed33          	or	x26,x9,x10
    d238:	020d1263          	bne	x26,x0,d25c <__divdf3+0x188>
    d23c:	00000413          	addi	x8,x0,0
    d240:	7ff00913          	addi	x18,x0,2047
    d244:	00200b13          	addi	x22,x0,2
    d248:	f11ff06f          	jal	x0,d158 <__divdf3+0x84>
    d24c:	00000413          	addi	x8,x0,0
    d250:	00000913          	addi	x18,x0,0
    d254:	00100b13          	addi	x22,x0,1
    d258:	f01ff06f          	jal	x0,d158 <__divdf3+0x84>
    d25c:	00050413          	addi	x8,x10,0
    d260:	00048d13          	addi	x26,x9,0
    d264:	7ff00913          	addi	x18,x0,2047
    d268:	00300b13          	addi	x22,x0,3
    d26c:	eedff06f          	jal	x0,d158 <__divdf3+0x84>
    d270:	0179e6b3          	or	x13,x19,x23
    d274:	08068263          	beq	x13,x0,d2f8 <__divdf3+0x224>
    d278:	04098063          	beq	x19,x0,d2b8 <__divdf3+0x1e4>
    d27c:	00098513          	addi	x10,x19,0 # 800000 <__heap_end+0x400000>
    d280:	171040ef          	jal	x1,11bf0 <__clzsi2>
    d284:	ff550713          	addi	x14,x10,-11
    d288:	01d00793          	addi	x15,x0,29
    d28c:	ff850693          	addi	x13,x10,-8
    d290:	40e787b3          	sub	x15,x15,x14
    d294:	00d999b3          	sll	x19,x19,x13
    d298:	00fbd7b3          	srl	x15,x23,x15
    d29c:	0137e7b3          	or	x15,x15,x19
    d2a0:	00db99b3          	sll	x19,x23,x13
    d2a4:	c0d00713          	addi	x14,x0,-1011
    d2a8:	00098693          	addi	x13,x19,0
    d2ac:	40a70733          	sub	x14,x14,x10
    d2b0:	00078993          	addi	x19,x15,0 # 800000 <__heap_end+0x400000>
    d2b4:	ee1ff06f          	jal	x0,d194 <__divdf3+0xc0>
    d2b8:	000b8513          	addi	x10,x23,0
    d2bc:	135040ef          	jal	x1,11bf0 <__clzsi2>
    d2c0:	00050793          	addi	x15,x10,0
    d2c4:	01578713          	addi	x14,x15,21
    d2c8:	01c00693          	addi	x13,x0,28
    d2cc:	02050513          	addi	x10,x10,32
    d2d0:	fae6dce3          	bge	x13,x14,d288 <__divdf3+0x1b4>
    d2d4:	ff878793          	addi	x15,x15,-8
    d2d8:	00fb97b3          	sll	x15,x23,x15
    d2dc:	fc9ff06f          	jal	x0,d2a4 <__divdf3+0x1d0>
    d2e0:	0179e6b3          	or	x13,x19,x23
    d2e4:	02069263          	bne	x13,x0,d308 <__divdf3+0x234>
    d2e8:	00000993          	addi	x19,x0,0
    d2ec:	7ff00713          	addi	x14,x0,2047
    d2f0:	00200793          	addi	x15,x0,2
    d2f4:	ea5ff06f          	jal	x0,d198 <__divdf3+0xc4>
    d2f8:	00000993          	addi	x19,x0,0
    d2fc:	00000713          	addi	x14,x0,0
    d300:	00100793          	addi	x15,x0,1
    d304:	e95ff06f          	jal	x0,d198 <__divdf3+0xc4>
    d308:	000b8693          	addi	x13,x23,0
    d30c:	7ff00713          	addi	x14,x0,2047
    d310:	00300793          	addi	x15,x0,3
    d314:	e85ff06f          	jal	x0,d198 <__divdf3+0xc4>
    d318:	01a9e663          	bltu	x19,x26,d324 <__divdf3+0x250>
    d31c:	453d1663          	bne	x26,x19,d768 <__divdf3+0x694>
    d320:	44d46463          	bltu	x8,x13,d768 <__divdf3+0x694>
    d324:	01fd1713          	slli	x14,x26,0x1f
    d328:	00145793          	srli	x15,x8,0x1
    d32c:	01f41d93          	slli	x27,x8,0x1f
    d330:	001d5d13          	srli	x26,x26,0x1
    d334:	00f76433          	or	x8,x14,x15
    d338:	0186dc13          	srli	x24,x13,0x18
    d33c:	00899b13          	slli	x22,x19,0x8
    d340:	016c6c33          	or	x24,x24,x22
    d344:	010b5b13          	srli	x22,x22,0x10
    d348:	000b0593          	addi	x11,x22,0
    d34c:	010c1b93          	slli	x23,x24,0x10
    d350:	000d0513          	addi	x10,x26,0
    d354:	00869c93          	slli	x25,x13,0x8
    d358:	010bdb93          	srli	x23,x23,0x10
    d35c:	7e8040ef          	jal	x1,11b44 <__hidden___udivsi3>
    d360:	00050593          	addi	x11,x10,0
    d364:	00050a93          	addi	x21,x10,0
    d368:	000b8513          	addi	x10,x23,0
    d36c:	7ac040ef          	jal	x1,11b18 <__mulsi3>
    d370:	00050993          	addi	x19,x10,0
    d374:	000b0593          	addi	x11,x22,0
    d378:	000d0513          	addi	x10,x26,0
    d37c:	011040ef          	jal	x1,11b8c <__umodsi3>
    d380:	01051513          	slli	x10,x10,0x10
    d384:	01045793          	srli	x15,x8,0x10
    d388:	00a7e7b3          	or	x15,x15,x10
    d38c:	000a8a13          	addi	x20,x21,0
    d390:	0137fe63          	bgeu	x15,x19,d3ac <__divdf3+0x2d8>
    d394:	00fc07b3          	add	x15,x24,x15
    d398:	fffa8a13          	addi	x20,x21,-1
    d39c:	0187e863          	bltu	x15,x24,d3ac <__divdf3+0x2d8>
    d3a0:	0137f663          	bgeu	x15,x19,d3ac <__divdf3+0x2d8>
    d3a4:	ffea8a13          	addi	x20,x21,-2
    d3a8:	018787b3          	add	x15,x15,x24
    d3ac:	413789b3          	sub	x19,x15,x19
    d3b0:	000b0593          	addi	x11,x22,0
    d3b4:	00098513          	addi	x10,x19,0
    d3b8:	78c040ef          	jal	x1,11b44 <__hidden___udivsi3>
    d3bc:	00050593          	addi	x11,x10,0
    d3c0:	00050d13          	addi	x26,x10,0
    d3c4:	000b8513          	addi	x10,x23,0
    d3c8:	750040ef          	jal	x1,11b18 <__mulsi3>
    d3cc:	00050a93          	addi	x21,x10,0
    d3d0:	000b0593          	addi	x11,x22,0
    d3d4:	00098513          	addi	x10,x19,0
    d3d8:	7b4040ef          	jal	x1,11b8c <__umodsi3>
    d3dc:	01041793          	slli	x15,x8,0x10
    d3e0:	01051513          	slli	x10,x10,0x10
    d3e4:	0107d793          	srli	x15,x15,0x10
    d3e8:	00a7e7b3          	or	x15,x15,x10
    d3ec:	000d0713          	addi	x14,x26,0
    d3f0:	0157fe63          	bgeu	x15,x21,d40c <__divdf3+0x338>
    d3f4:	00fc07b3          	add	x15,x24,x15
    d3f8:	fffd0713          	addi	x14,x26,-1
    d3fc:	0187e863          	bltu	x15,x24,d40c <__divdf3+0x338>
    d400:	0157f663          	bgeu	x15,x21,d40c <__divdf3+0x338>
    d404:	ffed0713          	addi	x14,x26,-2
    d408:	018787b3          	add	x15,x15,x24
    d40c:	010a1813          	slli	x16,x20,0x10
    d410:	00010eb7          	lui	x29,0x10
    d414:	00e86833          	or	x16,x16,x14
    d418:	fffe8a13          	addi	x20,x29,-1 # ffff <__multf3+0x125b>
    d41c:	014878b3          	and	x17,x16,x20
    d420:	010cd693          	srli	x13,x25,0x10
    d424:	014cfa33          	and	x20,x25,x20
    d428:	415787b3          	sub	x15,x15,x21
    d42c:	01085713          	srli	x14,x16,0x10
    d430:	00d12623          	sw	x13,12(x2)
    d434:	00088513          	addi	x10,x17,0
    d438:	000a0593          	addi	x11,x20,0
    d43c:	6dc040ef          	jal	x1,11b18 <__mulsi3>
    d440:	00050313          	addi	x6,x10,0
    d444:	010cd593          	srli	x11,x25,0x10
    d448:	00088513          	addi	x10,x17,0
    d44c:	6cc040ef          	jal	x1,11b18 <__mulsi3>
    d450:	00050893          	addi	x17,x10,0
    d454:	000a0593          	addi	x11,x20,0
    d458:	00070513          	addi	x10,x14,0
    d45c:	6bc040ef          	jal	x1,11b18 <__mulsi3>
    d460:	00050e13          	addi	x28,x10,0
    d464:	010cd593          	srli	x11,x25,0x10
    d468:	00070513          	addi	x10,x14,0
    d46c:	6ac040ef          	jal	x1,11b18 <__mulsi3>
    d470:	01035713          	srli	x14,x6,0x10
    d474:	01c888b3          	add	x17,x17,x28
    d478:	01170733          	add	x14,x14,x17
    d47c:	00050613          	addi	x12,x10,0
    d480:	01c77463          	bgeu	x14,x28,d488 <__divdf3+0x3b4>
    d484:	01d50633          	add	x12,x10,x29
    d488:	01075693          	srli	x13,x14,0x10
    d48c:	00c686b3          	add	x13,x13,x12
    d490:	00010637          	lui	x12,0x10
    d494:	fff60613          	addi	x12,x12,-1 # ffff <__multf3+0x125b>
    d498:	00c77733          	and	x14,x14,x12
    d49c:	01071713          	slli	x14,x14,0x10
    d4a0:	00c37333          	and	x6,x6,x12
    d4a4:	00670733          	add	x14,x14,x6
    d4a8:	00d7e863          	bltu	x15,x13,d4b8 <__divdf3+0x3e4>
    d4ac:	00080993          	addi	x19,x16,0
    d4b0:	04d79863          	bne	x15,x13,d500 <__divdf3+0x42c>
    d4b4:	04edf663          	bgeu	x27,x14,d500 <__divdf3+0x42c>
    d4b8:	019d8633          	add	x12,x27,x25
    d4bc:	01b635b3          	sltu	x11,x12,x27
    d4c0:	01858533          	add	x10,x11,x24
    d4c4:	00a787b3          	add	x15,x15,x10
    d4c8:	fff80993          	addi	x19,x16,-1
    d4cc:	00060d93          	addi	x27,x12,0
    d4d0:	00fc6663          	bltu	x24,x15,d4dc <__divdf3+0x408>
    d4d4:	02fc1663          	bne	x24,x15,d500 <__divdf3+0x42c>
    d4d8:	02059463          	bne	x11,x0,d500 <__divdf3+0x42c>
    d4dc:	00d7e663          	bltu	x15,x13,d4e8 <__divdf3+0x414>
    d4e0:	02f69063          	bne	x13,x15,d500 <__divdf3+0x42c>
    d4e4:	00e67e63          	bgeu	x12,x14,d500 <__divdf3+0x42c>
    d4e8:	00cc8633          	add	x12,x25,x12
    d4ec:	00060d93          	addi	x27,x12,0
    d4f0:	01963633          	sltu	x12,x12,x25
    d4f4:	01860633          	add	x12,x12,x24
    d4f8:	ffe80993          	addi	x19,x16,-2
    d4fc:	00c787b3          	add	x15,x15,x12
    d500:	40ed8d33          	sub	x26,x27,x14
    d504:	40d787b3          	sub	x15,x15,x13
    d508:	01adbdb3          	sltu	x27,x27,x26
    d50c:	41b78433          	sub	x8,x15,x27
    d510:	fff00693          	addi	x13,x0,-1
    d514:	188c0e63          	beq	x24,x8,d6b0 <__divdf3+0x5dc>
    d518:	000b0593          	addi	x11,x22,0
    d51c:	00040513          	addi	x10,x8,0
    d520:	624040ef          	jal	x1,11b44 <__hidden___udivsi3>
    d524:	00050593          	addi	x11,x10,0
    d528:	00050a93          	addi	x21,x10,0
    d52c:	000b8513          	addi	x10,x23,0
    d530:	5e8040ef          	jal	x1,11b18 <__mulsi3>
    d534:	00050d93          	addi	x27,x10,0
    d538:	000b0593          	addi	x11,x22,0
    d53c:	00040513          	addi	x10,x8,0
    d540:	64c040ef          	jal	x1,11b8c <__umodsi3>
    d544:	01051513          	slli	x10,x10,0x10
    d548:	010d5693          	srli	x13,x26,0x10
    d54c:	00a6e6b3          	or	x13,x13,x10
    d550:	000a8413          	addi	x8,x21,0
    d554:	01b6fe63          	bgeu	x13,x27,d570 <__divdf3+0x49c>
    d558:	00dc06b3          	add	x13,x24,x13
    d55c:	fffa8413          	addi	x8,x21,-1
    d560:	0186e863          	bltu	x13,x24,d570 <__divdf3+0x49c>
    d564:	01b6f663          	bgeu	x13,x27,d570 <__divdf3+0x49c>
    d568:	ffea8413          	addi	x8,x21,-2
    d56c:	018686b3          	add	x13,x13,x24
    d570:	41b68ab3          	sub	x21,x13,x27
    d574:	000b0593          	addi	x11,x22,0
    d578:	000a8513          	addi	x10,x21,0
    d57c:	5c8040ef          	jal	x1,11b44 <__hidden___udivsi3>
    d580:	00050593          	addi	x11,x10,0
    d584:	00050d93          	addi	x27,x10,0
    d588:	000b8513          	addi	x10,x23,0
    d58c:	58c040ef          	jal	x1,11b18 <__mulsi3>
    d590:	00050b93          	addi	x23,x10,0
    d594:	000b0593          	addi	x11,x22,0
    d598:	000a8513          	addi	x10,x21,0
    d59c:	5f0040ef          	jal	x1,11b8c <__umodsi3>
    d5a0:	010d1793          	slli	x15,x26,0x10
    d5a4:	01051513          	slli	x10,x10,0x10
    d5a8:	0107d793          	srli	x15,x15,0x10
    d5ac:	00a7e7b3          	or	x15,x15,x10
    d5b0:	000d8713          	addi	x14,x27,0
    d5b4:	0177fe63          	bgeu	x15,x23,d5d0 <__divdf3+0x4fc>
    d5b8:	00fc07b3          	add	x15,x24,x15
    d5bc:	fffd8713          	addi	x14,x27,-1
    d5c0:	0187e863          	bltu	x15,x24,d5d0 <__divdf3+0x4fc>
    d5c4:	0177f663          	bgeu	x15,x23,d5d0 <__divdf3+0x4fc>
    d5c8:	ffed8713          	addi	x14,x27,-2
    d5cc:	018787b3          	add	x15,x15,x24
    d5d0:	01041813          	slli	x16,x8,0x10
    d5d4:	00e86833          	or	x16,x16,x14
    d5d8:	01081893          	slli	x17,x16,0x10
    d5dc:	0108d893          	srli	x17,x17,0x10
    d5e0:	417787b3          	sub	x15,x15,x23
    d5e4:	01085713          	srli	x14,x16,0x10
    d5e8:	00088513          	addi	x10,x17,0
    d5ec:	000a0593          	addi	x11,x20,0
    d5f0:	528040ef          	jal	x1,11b18 <__mulsi3>
    d5f4:	00050313          	addi	x6,x10,0
    d5f8:	010cd593          	srli	x11,x25,0x10
    d5fc:	00088513          	addi	x10,x17,0
    d600:	518040ef          	jal	x1,11b18 <__mulsi3>
    d604:	00050893          	addi	x17,x10,0
    d608:	000a0593          	addi	x11,x20,0
    d60c:	00070513          	addi	x10,x14,0
    d610:	508040ef          	jal	x1,11b18 <__mulsi3>
    d614:	00050e13          	addi	x28,x10,0
    d618:	010cd593          	srli	x11,x25,0x10
    d61c:	00070513          	addi	x10,x14,0
    d620:	4f8040ef          	jal	x1,11b18 <__mulsi3>
    d624:	01035713          	srli	x14,x6,0x10
    d628:	01c888b3          	add	x17,x17,x28
    d62c:	01170733          	add	x14,x14,x17
    d630:	00050693          	addi	x13,x10,0
    d634:	01c77663          	bgeu	x14,x28,d640 <__divdf3+0x56c>
    d638:	00010637          	lui	x12,0x10
    d63c:	00c506b3          	add	x13,x10,x12
    d640:	01075613          	srli	x12,x14,0x10
    d644:	00d60633          	add	x12,x12,x13
    d648:	000106b7          	lui	x13,0x10
    d64c:	fff68693          	addi	x13,x13,-1 # ffff <__multf3+0x125b>
    d650:	00d77733          	and	x14,x14,x13
    d654:	01071713          	slli	x14,x14,0x10
    d658:	00d37333          	and	x6,x6,x13
    d65c:	00670733          	add	x14,x14,x6
    d660:	00c7e863          	bltu	x15,x12,d670 <__divdf3+0x59c>
    d664:	24c79463          	bne	x15,x12,d8ac <__divdf3+0x7d8>
    d668:	00080693          	addi	x13,x16,0
    d66c:	04070263          	beq	x14,x0,d6b0 <__divdf3+0x5dc>
    d670:	00fc07b3          	add	x15,x24,x15
    d674:	fff80693          	addi	x13,x16,-1
    d678:	00078593          	addi	x11,x15,0
    d67c:	0387e463          	bltu	x15,x24,d6a4 <__divdf3+0x5d0>
    d680:	00c7e663          	bltu	x15,x12,d68c <__divdf3+0x5b8>
    d684:	22c79263          	bne	x15,x12,d8a8 <__divdf3+0x7d4>
    d688:	02ecf063          	bgeu	x25,x14,d6a8 <__divdf3+0x5d4>
    d68c:	001c9513          	slli	x10,x25,0x1
    d690:	019535b3          	sltu	x11,x10,x25
    d694:	018585b3          	add	x11,x11,x24
    d698:	ffe80693          	addi	x13,x16,-2
    d69c:	00b785b3          	add	x11,x15,x11
    d6a0:	00050c93          	addi	x25,x10,0
    d6a4:	00c59463          	bne	x11,x12,d6ac <__divdf3+0x5d8>
    d6a8:	01970463          	beq	x14,x25,d6b0 <__divdf3+0x5dc>
    d6ac:	0016e693          	ori	x13,x13,1
    d6b0:	3ff90713          	addi	x14,x18,1023
    d6b4:	10e05a63          	bge	x0,x14,d7c8 <__divdf3+0x6f4>
    d6b8:	0076f793          	andi	x15,x13,7
    d6bc:	02078063          	beq	x15,x0,d6dc <__divdf3+0x608>
    d6c0:	00f6f793          	andi	x15,x13,15
    d6c4:	00400613          	addi	x12,x0,4
    d6c8:	00c78a63          	beq	x15,x12,d6dc <__divdf3+0x608>
    d6cc:	00468793          	addi	x15,x13,4
    d6d0:	00d7b633          	sltu	x12,x15,x13
    d6d4:	00c989b3          	add	x19,x19,x12
    d6d8:	00078693          	addi	x13,x15,0
    d6dc:	00799793          	slli	x15,x19,0x7
    d6e0:	0007da63          	bge	x15,x0,d6f4 <__divdf3+0x620>
    d6e4:	ff0007b7          	lui	x15,0xff000
    d6e8:	fff78793          	addi	x15,x15,-1 # feffffff <__heap_end+0xfebfffff>
    d6ec:	00f9f9b3          	and	x19,x19,x15
    d6f0:	40090713          	addi	x14,x18,1024
    d6f4:	7fe00793          	addi	x15,x0,2046
    d6f8:	0ae7c263          	blt	x15,x14,d79c <__divdf3+0x6c8>
    d6fc:	0036d693          	srli	x13,x13,0x3
    d700:	01d99793          	slli	x15,x19,0x1d
    d704:	00d7e6b3          	or	x13,x15,x13
    d708:	0039d593          	srli	x11,x19,0x3
    d70c:	00c59593          	slli	x11,x11,0xc
    d710:	04c12083          	lw	x1,76(x2)
    d714:	04812403          	lw	x8,72(x2)
    d718:	00c5d593          	srli	x11,x11,0xc
    d71c:	01471713          	slli	x14,x14,0x14
    d720:	00b76733          	or	x14,x14,x11
    d724:	01f49493          	slli	x9,x9,0x1f
    d728:	009767b3          	or	x15,x14,x9
    d72c:	04012903          	lw	x18,64(x2)
    d730:	04412483          	lw	x9,68(x2)
    d734:	03c12983          	lw	x19,60(x2)
    d738:	03812a03          	lw	x20,56(x2)
    d73c:	03412a83          	lw	x21,52(x2)
    d740:	03012b03          	lw	x22,48(x2)
    d744:	02c12b83          	lw	x23,44(x2)
    d748:	02812c03          	lw	x24,40(x2)
    d74c:	02412c83          	lw	x25,36(x2)
    d750:	02012d03          	lw	x26,32(x2)
    d754:	01c12d83          	lw	x27,28(x2)
    d758:	00068513          	addi	x10,x13,0
    d75c:	00078593          	addi	x11,x15,0
    d760:	05010113          	addi	x2,x2,80
    d764:	00008067          	jalr	x0,0(x1)
    d768:	fff90913          	addi	x18,x18,-1
    d76c:	00000d93          	addi	x27,x0,0
    d770:	bc9ff06f          	jal	x0,d338 <__divdf3+0x264>
    d774:	000a8493          	addi	x9,x21,0
    d778:	000d0993          	addi	x19,x26,0
    d77c:	00040693          	addi	x13,x8,0
    d780:	000b0793          	addi	x15,x22,0
    d784:	00300713          	addi	x14,x0,3
    d788:	0ee78863          	beq	x15,x14,d878 <__divdf3+0x7a4>
    d78c:	00100713          	addi	x14,x0,1
    d790:	0ee78e63          	beq	x15,x14,d88c <__divdf3+0x7b8>
    d794:	00200713          	addi	x14,x0,2
    d798:	f0e79ce3          	bne	x15,x14,d6b0 <__divdf3+0x5dc>
    d79c:	00000593          	addi	x11,x0,0
    d7a0:	00000693          	addi	x13,x0,0
    d7a4:	7ff00713          	addi	x14,x0,2047
    d7a8:	f65ff06f          	jal	x0,d70c <__divdf3+0x638>
    d7ac:	000a0493          	addi	x9,x20,0
    d7b0:	fd5ff06f          	jal	x0,d784 <__divdf3+0x6b0>
    d7b4:	000809b7          	lui	x19,0x80
    d7b8:	00000693          	addi	x13,x0,0
    d7bc:	00000493          	addi	x9,x0,0
    d7c0:	00300793          	addi	x15,x0,3
    d7c4:	fc1ff06f          	jal	x0,d784 <__divdf3+0x6b0>
    d7c8:	00100593          	addi	x11,x0,1
    d7cc:	40e585b3          	sub	x11,x11,x14
    d7d0:	03800793          	addi	x15,x0,56
    d7d4:	0ab7cc63          	blt	x15,x11,d88c <__divdf3+0x7b8>
    d7d8:	01f00793          	addi	x15,x0,31
    d7dc:	06b7c463          	blt	x15,x11,d844 <__divdf3+0x770>
    d7e0:	41e90913          	addi	x18,x18,1054
    d7e4:	012997b3          	sll	x15,x19,x18
    d7e8:	00b6d733          	srl	x14,x13,x11
    d7ec:	01269933          	sll	x18,x13,x18
    d7f0:	00e7e7b3          	or	x15,x15,x14
    d7f4:	01203933          	sltu	x18,x0,x18
    d7f8:	0127e7b3          	or	x15,x15,x18
    d7fc:	00b9d5b3          	srl	x11,x19,x11
    d800:	0077f713          	andi	x14,x15,7
    d804:	02070063          	beq	x14,x0,d824 <__divdf3+0x750>
    d808:	00f7f713          	andi	x14,x15,15
    d80c:	00400693          	addi	x13,x0,4
    d810:	00d70a63          	beq	x14,x13,d824 <__divdf3+0x750>
    d814:	00478713          	addi	x14,x15,4
    d818:	00f736b3          	sltu	x13,x14,x15
    d81c:	00d585b3          	add	x11,x11,x13
    d820:	00070793          	addi	x15,x14,0
    d824:	00859713          	slli	x14,x11,0x8
    d828:	06074863          	blt	x14,x0,d898 <__divdf3+0x7c4>
    d82c:	01d59693          	slli	x13,x11,0x1d
    d830:	0037d793          	srli	x15,x15,0x3
    d834:	00f6e6b3          	or	x13,x13,x15
    d838:	0035d593          	srli	x11,x11,0x3
    d83c:	00000713          	addi	x14,x0,0
    d840:	ecdff06f          	jal	x0,d70c <__divdf3+0x638>
    d844:	fe100793          	addi	x15,x0,-31
    d848:	40e787b3          	sub	x15,x15,x14
    d84c:	02000613          	addi	x12,x0,32
    d850:	00f9d7b3          	srl	x15,x19,x15
    d854:	00000713          	addi	x14,x0,0
    d858:	00c58663          	beq	x11,x12,d864 <__divdf3+0x790>
    d85c:	43e90713          	addi	x14,x18,1086
    d860:	00e99733          	sll	x14,x19,x14
    d864:	00d76733          	or	x14,x14,x13
    d868:	00e03733          	sltu	x14,x0,x14
    d86c:	00e7e7b3          	or	x15,x15,x14
    d870:	00000593          	addi	x11,x0,0
    d874:	f8dff06f          	jal	x0,d800 <__divdf3+0x72c>
    d878:	000805b7          	lui	x11,0x80
    d87c:	00000693          	addi	x13,x0,0
    d880:	7ff00713          	addi	x14,x0,2047
    d884:	00000493          	addi	x9,x0,0
    d888:	e85ff06f          	jal	x0,d70c <__divdf3+0x638>
    d88c:	00000593          	addi	x11,x0,0
    d890:	00000693          	addi	x13,x0,0
    d894:	fa9ff06f          	jal	x0,d83c <__divdf3+0x768>
    d898:	00000593          	addi	x11,x0,0
    d89c:	00000693          	addi	x13,x0,0
    d8a0:	00100713          	addi	x14,x0,1
    d8a4:	e69ff06f          	jal	x0,d70c <__divdf3+0x638>
    d8a8:	00068813          	addi	x16,x13,0
    d8ac:	00080693          	addi	x13,x16,0
    d8b0:	dfdff06f          	jal	x0,d6ac <__divdf3+0x5d8>

0000d8b4 <__eqdf2>:
    d8b4:	0145d713          	srli	x14,x11,0x14
    d8b8:	001007b7          	lui	x15,0x100
    d8bc:	fff78793          	addi	x15,x15,-1 # fffff <__heap_start+0xecc8f>
    d8c0:	0146d813          	srli	x16,x13,0x14
    d8c4:	00050313          	addi	x6,x10,0
    d8c8:	00050e93          	addi	x29,x10,0
    d8cc:	7ff77713          	andi	x14,x14,2047
    d8d0:	7ff00513          	addi	x10,x0,2047
    d8d4:	00b7f8b3          	and	x17,x15,x11
    d8d8:	00060f13          	addi	x30,x12,0 # 10000 <__multf3+0x125c>
    d8dc:	00d7f7b3          	and	x15,x15,x13
    d8e0:	01f5d593          	srli	x11,x11,0x1f
    d8e4:	7ff87813          	andi	x16,x16,2047
    d8e8:	01f6d693          	srli	x13,x13,0x1f
    d8ec:	00a71c63          	bne	x14,x10,d904 <__eqdf2+0x50>
    d8f0:	0068ee33          	or	x28,x17,x6
    d8f4:	00100513          	addi	x10,x0,1
    d8f8:	000e1463          	bne	x28,x0,d900 <__eqdf2+0x4c>
    d8fc:	00e80663          	beq	x16,x14,d908 <__eqdf2+0x54>
    d900:	00008067          	jalr	x0,0(x1)
    d904:	00a81863          	bne	x16,x10,d914 <__eqdf2+0x60>
    d908:	00c7e633          	or	x12,x15,x12
    d90c:	00100513          	addi	x10,x0,1
    d910:	fe0618e3          	bne	x12,x0,d900 <__eqdf2+0x4c>
    d914:	00100513          	addi	x10,x0,1
    d918:	ff0714e3          	bne	x14,x16,d900 <__eqdf2+0x4c>
    d91c:	fef892e3          	bne	x17,x15,d900 <__eqdf2+0x4c>
    d920:	ffee90e3          	bne	x29,x30,d900 <__eqdf2+0x4c>
    d924:	00d58a63          	beq	x11,x13,d938 <__eqdf2+0x84>
    d928:	fc071ce3          	bne	x14,x0,d900 <__eqdf2+0x4c>
    d92c:	0068e8b3          	or	x17,x17,x6
    d930:	01103533          	sltu	x10,x0,x17
    d934:	00008067          	jalr	x0,0(x1)
    d938:	00000513          	addi	x10,x0,0
    d93c:	00008067          	jalr	x0,0(x1)

0000d940 <__gedf2>:
    d940:	0146d793          	srli	x15,x13,0x14
    d944:	0145d893          	srli	x17,x11,0x14
    d948:	00100737          	lui	x14,0x100
    d94c:	fff70713          	addi	x14,x14,-1 # fffff <__heap_start+0xecc8f>
    d950:	00050813          	addi	x16,x10,0
    d954:	00050e13          	addi	x28,x10,0
    d958:	7ff8f893          	andi	x17,x17,2047
    d95c:	7ff7f513          	andi	x10,x15,2047
    d960:	7ff00793          	addi	x15,x0,2047
    d964:	00b77333          	and	x6,x14,x11
    d968:	00060e93          	addi	x29,x12,0
    d96c:	00d77733          	and	x14,x14,x13
    d970:	01f5d593          	srli	x11,x11,0x1f
    d974:	01f6d693          	srli	x13,x13,0x1f
    d978:	00f89663          	bne	x17,x15,d984 <__gedf2+0x44>
    d97c:	010367b3          	or	x15,x6,x16
    d980:	06079c63          	bne	x15,x0,d9f8 <__gedf2+0xb8>
    d984:	7ff00793          	addi	x15,x0,2047
    d988:	00f51663          	bne	x10,x15,d994 <__gedf2+0x54>
    d98c:	00c767b3          	or	x15,x14,x12
    d990:	06079463          	bne	x15,x0,d9f8 <__gedf2+0xb8>
    d994:	00000793          	addi	x15,x0,0
    d998:	00089663          	bne	x17,x0,d9a4 <__gedf2+0x64>
    d99c:	01036833          	or	x16,x6,x16
    d9a0:	00183793          	sltiu	x15,x16,1
    d9a4:	04051e63          	bne	x10,x0,da00 <__gedf2+0xc0>
    d9a8:	00c76633          	or	x12,x14,x12
    d9ac:	00078c63          	beq	x15,x0,d9c4 <__gedf2+0x84>
    d9b0:	02060063          	beq	x12,x0,d9d0 <__gedf2+0x90>
    d9b4:	00100513          	addi	x10,x0,1
    d9b8:	00069c63          	bne	x13,x0,d9d0 <__gedf2+0x90>
    d9bc:	fff00513          	addi	x10,x0,-1
    d9c0:	00008067          	jalr	x0,0(x1)
    d9c4:	04061063          	bne	x12,x0,da04 <__gedf2+0xc4>
    d9c8:	fff00513          	addi	x10,x0,-1
    d9cc:	04058463          	beq	x11,x0,da14 <__gedf2+0xd4>
    d9d0:	00008067          	jalr	x0,0(x1)
    d9d4:	fea8c0e3          	blt	x17,x10,d9b4 <__gedf2+0x74>
    d9d8:	fe6768e3          	bltu	x14,x6,d9c8 <__gedf2+0x88>
    d9dc:	00e31863          	bne	x6,x14,d9ec <__gedf2+0xac>
    d9e0:	ffcee4e3          	bltu	x29,x28,d9c8 <__gedf2+0x88>
    d9e4:	00000513          	addi	x10,x0,0
    d9e8:	ffde74e3          	bgeu	x28,x29,d9d0 <__gedf2+0x90>
    d9ec:	00100513          	addi	x10,x0,1
    d9f0:	fe0590e3          	bne	x11,x0,d9d0 <__gedf2+0x90>
    d9f4:	fc9ff06f          	jal	x0,d9bc <__gedf2+0x7c>
    d9f8:	ffe00513          	addi	x10,x0,-2
    d9fc:	00008067          	jalr	x0,0(x1)
    da00:	fa079ae3          	bne	x15,x0,d9b4 <__gedf2+0x74>
    da04:	fcb692e3          	bne	x13,x11,d9c8 <__gedf2+0x88>
    da08:	fd1556e3          	bge	x10,x17,d9d4 <__gedf2+0x94>
    da0c:	fff00513          	addi	x10,x0,-1
    da10:	fc0690e3          	bne	x13,x0,d9d0 <__gedf2+0x90>
    da14:	00100513          	addi	x10,x0,1
    da18:	00008067          	jalr	x0,0(x1)

0000da1c <__ledf2>:
    da1c:	0146d793          	srli	x15,x13,0x14
    da20:	0145d893          	srli	x17,x11,0x14
    da24:	00100737          	lui	x14,0x100
    da28:	fff70713          	addi	x14,x14,-1 # fffff <__heap_start+0xecc8f>
    da2c:	00050813          	addi	x16,x10,0
    da30:	00050e13          	addi	x28,x10,0
    da34:	7ff8f893          	andi	x17,x17,2047
    da38:	7ff7f513          	andi	x10,x15,2047
    da3c:	7ff00793          	addi	x15,x0,2047
    da40:	00b77333          	and	x6,x14,x11
    da44:	00060e93          	addi	x29,x12,0
    da48:	00d77733          	and	x14,x14,x13
    da4c:	01f5d593          	srli	x11,x11,0x1f
    da50:	01f6d693          	srli	x13,x13,0x1f
    da54:	00f89663          	bne	x17,x15,da60 <__ledf2+0x44>
    da58:	010367b3          	or	x15,x6,x16
    da5c:	06079c63          	bne	x15,x0,dad4 <__ledf2+0xb8>
    da60:	7ff00793          	addi	x15,x0,2047
    da64:	00f51663          	bne	x10,x15,da70 <__ledf2+0x54>
    da68:	00c767b3          	or	x15,x14,x12
    da6c:	06079463          	bne	x15,x0,dad4 <__ledf2+0xb8>
    da70:	00000793          	addi	x15,x0,0
    da74:	00089663          	bne	x17,x0,da80 <__ledf2+0x64>
    da78:	01036833          	or	x16,x6,x16
    da7c:	00183793          	sltiu	x15,x16,1
    da80:	04051e63          	bne	x10,x0,dadc <__ledf2+0xc0>
    da84:	00c76633          	or	x12,x14,x12
    da88:	00078c63          	beq	x15,x0,daa0 <__ledf2+0x84>
    da8c:	02060063          	beq	x12,x0,daac <__ledf2+0x90>
    da90:	00100513          	addi	x10,x0,1
    da94:	00069c63          	bne	x13,x0,daac <__ledf2+0x90>
    da98:	fff00513          	addi	x10,x0,-1
    da9c:	00008067          	jalr	x0,0(x1)
    daa0:	04061063          	bne	x12,x0,dae0 <__ledf2+0xc4>
    daa4:	fff00513          	addi	x10,x0,-1
    daa8:	04058463          	beq	x11,x0,daf0 <__ledf2+0xd4>
    daac:	00008067          	jalr	x0,0(x1)
    dab0:	fea8c0e3          	blt	x17,x10,da90 <__ledf2+0x74>
    dab4:	fe6768e3          	bltu	x14,x6,daa4 <__ledf2+0x88>
    dab8:	00e31863          	bne	x6,x14,dac8 <__ledf2+0xac>
    dabc:	ffcee4e3          	bltu	x29,x28,daa4 <__ledf2+0x88>
    dac0:	00000513          	addi	x10,x0,0
    dac4:	ffde74e3          	bgeu	x28,x29,daac <__ledf2+0x90>
    dac8:	00100513          	addi	x10,x0,1
    dacc:	fe0590e3          	bne	x11,x0,daac <__ledf2+0x90>
    dad0:	fc9ff06f          	jal	x0,da98 <__ledf2+0x7c>
    dad4:	00200513          	addi	x10,x0,2
    dad8:	00008067          	jalr	x0,0(x1)
    dadc:	fa079ae3          	bne	x15,x0,da90 <__ledf2+0x74>
    dae0:	fcb692e3          	bne	x13,x11,daa4 <__ledf2+0x88>
    dae4:	fd1556e3          	bge	x10,x17,dab0 <__ledf2+0x94>
    dae8:	fff00513          	addi	x10,x0,-1
    daec:	fc0690e3          	bne	x13,x0,daac <__ledf2+0x90>
    daf0:	00100513          	addi	x10,x0,1
    daf4:	00008067          	jalr	x0,0(x1)

0000daf8 <__muldf3>:
    daf8:	fd010113          	addi	x2,x2,-48
    dafc:	01512a23          	sw	x21,20(x2)
    db00:	0145da93          	srli	x21,x11,0x14
    db04:	02812423          	sw	x8,40(x2)
    db08:	02912223          	sw	x9,36(x2)
    db0c:	03212023          	sw	x18,32(x2)
    db10:	01312e23          	sw	x19,28(x2)
    db14:	01612823          	sw	x22,16(x2)
    db18:	00c59493          	slli	x9,x11,0xc
    db1c:	02112623          	sw	x1,44(x2)
    db20:	01412c23          	sw	x20,24(x2)
    db24:	01712623          	sw	x23,12(x2)
    db28:	7ffafa93          	andi	x21,x21,2047
    db2c:	00050413          	addi	x8,x10,0
    db30:	00060b13          	addi	x22,x12,0
    db34:	00068913          	addi	x18,x13,0
    db38:	00c4d493          	srli	x9,x9,0xc
    db3c:	01f5d993          	srli	x19,x11,0x1f
    db40:	300a8e63          	beq	x21,x0,de5c <__muldf3+0x364>
    db44:	7ff00793          	addi	x15,x0,2047
    db48:	38fa8063          	beq	x21,x15,dec8 <__muldf3+0x3d0>
    db4c:	00349493          	slli	x9,x9,0x3
    db50:	01d55793          	srli	x15,x10,0x1d
    db54:	0097e7b3          	or	x15,x15,x9
    db58:	008004b7          	lui	x9,0x800
    db5c:	0097e4b3          	or	x9,x15,x9
    db60:	00351a13          	slli	x20,x10,0x3
    db64:	c01a8a93          	addi	x21,x21,-1023
    db68:	00000b93          	addi	x23,x0,0
    db6c:	01495713          	srli	x14,x18,0x14
    db70:	00c91413          	slli	x8,x18,0xc
    db74:	7ff77713          	andi	x14,x14,2047
    db78:	00c45413          	srli	x8,x8,0xc
    db7c:	01f95913          	srli	x18,x18,0x1f
    db80:	38070063          	beq	x14,x0,df00 <__muldf3+0x408>
    db84:	7ff00793          	addi	x15,x0,2047
    db88:	3ef70463          	beq	x14,x15,df70 <__muldf3+0x478>
    db8c:	00341413          	slli	x8,x8,0x3
    db90:	01db5793          	srli	x15,x22,0x1d
    db94:	0087e7b3          	or	x15,x15,x8
    db98:	00800437          	lui	x8,0x800
    db9c:	0087e433          	or	x8,x15,x8
    dba0:	c0170693          	addi	x13,x14,-1023
    dba4:	003b1793          	slli	x15,x22,0x3
    dba8:	00000713          	addi	x14,x0,0
    dbac:	00da8ab3          	add	x21,x21,x13
    dbb0:	002b9693          	slli	x13,x23,0x2
    dbb4:	00e6e6b3          	or	x13,x13,x14
    dbb8:	00a00613          	addi	x12,x0,10
    dbbc:	001a8893          	addi	x17,x21,1
    dbc0:	4cd64663          	blt	x12,x13,e08c <__muldf3+0x594>
    dbc4:	00200613          	addi	x12,x0,2
    dbc8:	0129c833          	xor	x16,x19,x18
    dbcc:	3cd64e63          	blt	x12,x13,dfa8 <__muldf3+0x4b0>
    dbd0:	fff68693          	addi	x13,x13,-1
    dbd4:	00100613          	addi	x12,x0,1
    dbd8:	3ed67a63          	bgeu	x12,x13,dfcc <__muldf3+0x4d4>
    dbdc:	00010937          	lui	x18,0x10
    dbe0:	fff90713          	addi	x14,x18,-1 # ffff <__multf3+0x125b>
    dbe4:	010a5293          	srli	x5,x20,0x10
    dbe8:	00e7ffb3          	and	x31,x15,x14
    dbec:	00ea7a33          	and	x20,x20,x14
    dbf0:	0107df13          	srli	x30,x15,0x10
    dbf4:	000a0513          	addi	x10,x20,0
    dbf8:	000f8593          	addi	x11,x31,0
    dbfc:	71d030ef          	jal	x1,11b18 <__mulsi3>
    dc00:	00050793          	addi	x15,x10,0
    dc04:	000f0593          	addi	x11,x30,0
    dc08:	000a0513          	addi	x10,x20,0
    dc0c:	70d030ef          	jal	x1,11b18 <__mulsi3>
    dc10:	00050e93          	addi	x29,x10,0
    dc14:	000f8593          	addi	x11,x31,0
    dc18:	00028513          	addi	x10,x5,0
    dc1c:	6fd030ef          	jal	x1,11b18 <__mulsi3>
    dc20:	00050393          	addi	x7,x10,0
    dc24:	000f0593          	addi	x11,x30,0
    dc28:	00028513          	addi	x10,x5,0
    dc2c:	6ed030ef          	jal	x1,11b18 <__mulsi3>
    dc30:	0107d313          	srli	x6,x15,0x10
    dc34:	007e8eb3          	add	x29,x29,x7
    dc38:	01d30333          	add	x6,x6,x29
    dc3c:	00050e13          	addi	x28,x10,0
    dc40:	00737463          	bgeu	x6,x7,dc48 <__muldf3+0x150>
    dc44:	01250e33          	add	x28,x10,x18
    dc48:	01035993          	srli	x19,x6,0x10
    dc4c:	00e37333          	and	x6,x6,x14
    dc50:	00e7f7b3          	and	x15,x15,x14
    dc54:	01031313          	slli	x6,x6,0x10
    dc58:	00e47733          	and	x14,x8,x14
    dc5c:	00f30333          	add	x6,x6,x15
    dc60:	01045913          	srli	x18,x8,0x10
    dc64:	000a0513          	addi	x10,x20,0
    dc68:	00070593          	addi	x11,x14,0
    dc6c:	6ad030ef          	jal	x1,11b18 <__mulsi3>
    dc70:	00050393          	addi	x7,x10,0
    dc74:	00090593          	addi	x11,x18,0
    dc78:	000a0513          	addi	x10,x20,0
    dc7c:	69d030ef          	jal	x1,11b18 <__mulsi3>
    dc80:	00050e93          	addi	x29,x10,0
    dc84:	00070593          	addi	x11,x14,0
    dc88:	00028513          	addi	x10,x5,0
    dc8c:	68d030ef          	jal	x1,11b18 <__mulsi3>
    dc90:	00050413          	addi	x8,x10,0
    dc94:	00090593          	addi	x11,x18,0
    dc98:	00028513          	addi	x10,x5,0
    dc9c:	67d030ef          	jal	x1,11b18 <__mulsi3>
    dca0:	0103d613          	srli	x12,x7,0x10
    dca4:	008e8eb3          	add	x29,x29,x8
    dca8:	01d60633          	add	x12,x12,x29
    dcac:	00050793          	addi	x15,x10,0
    dcb0:	00867663          	bgeu	x12,x8,dcbc <__muldf3+0x1c4>
    dcb4:	000106b7          	lui	x13,0x10
    dcb8:	00d507b3          	add	x15,x10,x13
    dcbc:	00010a37          	lui	x20,0x10
    dcc0:	fffa0e93          	addi	x29,x20,-1 # ffff <__multf3+0x125b>
    dcc4:	01065293          	srli	x5,x12,0x10
    dcc8:	00f282b3          	add	x5,x5,x15
    dccc:	01d677b3          	and	x15,x12,x29
    dcd0:	01d3f3b3          	and	x7,x7,x29
    dcd4:	01079793          	slli	x15,x15,0x10
    dcd8:	007787b3          	add	x15,x15,x7
    dcdc:	01d4feb3          	and	x29,x9,x29
    dce0:	00f98433          	add	x8,x19,x15
    dce4:	000e8513          	addi	x10,x29,0
    dce8:	0104d993          	srli	x19,x9,0x10
    dcec:	000f8593          	addi	x11,x31,0
    dcf0:	629030ef          	jal	x1,11b18 <__mulsi3>
    dcf4:	00050493          	addi	x9,x10,0
    dcf8:	000f0593          	addi	x11,x30,0
    dcfc:	000e8513          	addi	x10,x29,0
    dd00:	619030ef          	jal	x1,11b18 <__mulsi3>
    dd04:	00050393          	addi	x7,x10,0
    dd08:	000f8593          	addi	x11,x31,0
    dd0c:	00098513          	addi	x10,x19,0 # 80000 <__heap_start+0x6cc90>
    dd10:	609030ef          	jal	x1,11b18 <__mulsi3>
    dd14:	00050f93          	addi	x31,x10,0
    dd18:	000f0593          	addi	x11,x30,0
    dd1c:	00098513          	addi	x10,x19,0
    dd20:	5f9030ef          	jal	x1,11b18 <__mulsi3>
    dd24:	0104d613          	srli	x12,x9,0x10
    dd28:	01f383b3          	add	x7,x7,x31
    dd2c:	00760633          	add	x12,x12,x7
    dd30:	00050693          	addi	x13,x10,0
    dd34:	01f67463          	bgeu	x12,x31,dd3c <__muldf3+0x244>
    dd38:	014506b3          	add	x13,x10,x20
    dd3c:	00010a37          	lui	x20,0x10
    dd40:	fffa0393          	addi	x7,x20,-1 # ffff <__multf3+0x125b>
    dd44:	01065f93          	srli	x31,x12,0x10
    dd48:	00767633          	and	x12,x12,x7
    dd4c:	01061613          	slli	x12,x12,0x10
    dd50:	0074f4b3          	and	x9,x9,x7
    dd54:	00df8fb3          	add	x31,x31,x13
    dd58:	00960f33          	add	x30,x12,x9
    dd5c:	000e8513          	addi	x10,x29,0
    dd60:	00070593          	addi	x11,x14,0
    dd64:	5b5030ef          	jal	x1,11b18 <__mulsi3>
    dd68:	00050493          	addi	x9,x10,0
    dd6c:	00090593          	addi	x11,x18,0
    dd70:	000e8513          	addi	x10,x29,0
    dd74:	5a5030ef          	jal	x1,11b18 <__mulsi3>
    dd78:	00050b13          	addi	x22,x10,0
    dd7c:	00070593          	addi	x11,x14,0
    dd80:	00098513          	addi	x10,x19,0
    dd84:	595030ef          	jal	x1,11b18 <__mulsi3>
    dd88:	00050713          	addi	x14,x10,0
    dd8c:	00090593          	addi	x11,x18,0
    dd90:	00098513          	addi	x10,x19,0
    dd94:	585030ef          	jal	x1,11b18 <__mulsi3>
    dd98:	0104d593          	srli	x11,x9,0x10
    dd9c:	00eb0b33          	add	x22,x22,x14
    dda0:	016585b3          	add	x11,x11,x22
    dda4:	00050e93          	addi	x29,x10,0
    dda8:	00e5f463          	bgeu	x11,x14,ddb0 <__muldf3+0x2b8>
    ddac:	01450eb3          	add	x29,x10,x20
    ddb0:	0075f733          	and	x14,x11,x7
    ddb4:	01071713          	slli	x14,x14,0x10
    ddb8:	0074f4b3          	and	x9,x9,x7
    ddbc:	008e06b3          	add	x13,x28,x8
    ddc0:	00970733          	add	x14,x14,x9
    ddc4:	005702b3          	add	x5,x14,x5
    ddc8:	00f6b7b3          	sltu	x15,x13,x15
    ddcc:	00f287b3          	add	x15,x5,x15
    ddd0:	00e2b633          	sltu	x12,x5,x14
    ddd4:	0057b2b3          	sltu	x5,x15,x5
    ddd8:	0105d593          	srli	x11,x11,0x10
    dddc:	00566633          	or	x12,x12,x5
    dde0:	00b60633          	add	x12,x12,x11
    dde4:	01e685b3          	add	x11,x13,x30
    dde8:	01f78fb3          	add	x31,x15,x31
    ddec:	00d5b6b3          	sltu	x13,x11,x13
    ddf0:	00df86b3          	add	x13,x31,x13
    ddf4:	00ffb733          	sltu	x14,x31,x15
    ddf8:	01f6bfb3          	sltu	x31,x13,x31
    ddfc:	00959793          	slli	x15,x11,0x9
    de00:	01f76733          	or	x14,x14,x31
    de04:	00c70733          	add	x14,x14,x12
    de08:	0067e7b3          	or	x15,x15,x6
    de0c:	01d70733          	add	x14,x14,x29
    de10:	00f037b3          	sltu	x15,x0,x15
    de14:	0175d593          	srli	x11,x11,0x17
    de18:	00971713          	slli	x14,x14,0x9
    de1c:	0176d413          	srli	x8,x13,0x17
    de20:	00b7e7b3          	or	x15,x15,x11
    de24:	00969693          	slli	x13,x13,0x9
    de28:	00d7e7b3          	or	x15,x15,x13
    de2c:	00771693          	slli	x13,x14,0x7
    de30:	00876433          	or	x8,x14,x8
    de34:	0206d063          	bge	x13,x0,de54 <__muldf3+0x35c>
    de38:	0017d713          	srli	x14,x15,0x1
    de3c:	0017f793          	andi	x15,x15,1
    de40:	00f76733          	or	x14,x14,x15
    de44:	01f41793          	slli	x15,x8,0x1f
    de48:	00f767b3          	or	x15,x14,x15
    de4c:	00145413          	srli	x8,x8,0x1
    de50:	00088a93          	addi	x21,x17,0
    de54:	000a8893          	addi	x17,x21,0
    de58:	18c0006f          	jal	x0,dfe4 <__muldf3+0x4ec>
    de5c:	00a4ea33          	or	x20,x9,x10
    de60:	080a0063          	beq	x20,x0,dee0 <__muldf3+0x3e8>
    de64:	04048063          	beq	x9,x0,dea4 <__muldf3+0x3ac>
    de68:	00048513          	addi	x10,x9,0 # 800000 <__heap_end+0x400000>
    de6c:	585030ef          	jal	x1,11bf0 <__clzsi2>
    de70:	ff550713          	addi	x14,x10,-11
    de74:	01d00793          	addi	x15,x0,29
    de78:	ff850693          	addi	x13,x10,-8
    de7c:	40e787b3          	sub	x15,x15,x14
    de80:	00d494b3          	sll	x9,x9,x13
    de84:	00f457b3          	srl	x15,x8,x15
    de88:	0097e7b3          	or	x15,x15,x9
    de8c:	00d414b3          	sll	x9,x8,x13
    de90:	c0d00a93          	addi	x21,x0,-1011
    de94:	00048a13          	addi	x20,x9,0
    de98:	40aa8ab3          	sub	x21,x21,x10
    de9c:	00078493          	addi	x9,x15,0
    dea0:	cc9ff06f          	jal	x0,db68 <__muldf3+0x70>
    dea4:	54d030ef          	jal	x1,11bf0 <__clzsi2>
    dea8:	00050793          	addi	x15,x10,0
    deac:	01578713          	addi	x14,x15,21
    deb0:	01c00693          	addi	x13,x0,28
    deb4:	02050513          	addi	x10,x10,32
    deb8:	fae6dee3          	bge	x13,x14,de74 <__muldf3+0x37c>
    debc:	ff878793          	addi	x15,x15,-8
    dec0:	00f417b3          	sll	x15,x8,x15
    dec4:	fcdff06f          	jal	x0,de90 <__muldf3+0x398>
    dec8:	00a4ea33          	or	x20,x9,x10
    decc:	020a1263          	bne	x20,x0,def0 <__muldf3+0x3f8>
    ded0:	00000493          	addi	x9,x0,0
    ded4:	7ff00a93          	addi	x21,x0,2047
    ded8:	00200b93          	addi	x23,x0,2
    dedc:	c91ff06f          	jal	x0,db6c <__muldf3+0x74>
    dee0:	00000493          	addi	x9,x0,0
    dee4:	00000a93          	addi	x21,x0,0
    dee8:	00100b93          	addi	x23,x0,1
    deec:	c81ff06f          	jal	x0,db6c <__muldf3+0x74>
    def0:	00050a13          	addi	x20,x10,0
    def4:	7ff00a93          	addi	x21,x0,2047
    def8:	00300b93          	addi	x23,x0,3
    defc:	c71ff06f          	jal	x0,db6c <__muldf3+0x74>
    df00:	016467b3          	or	x15,x8,x22
    df04:	08078263          	beq	x15,x0,df88 <__muldf3+0x490>
    df08:	04040063          	beq	x8,x0,df48 <__muldf3+0x450>
    df0c:	00040513          	addi	x10,x8,0 # 800000 <__heap_end+0x400000>
    df10:	4e1030ef          	jal	x1,11bf0 <__clzsi2>
    df14:	ff550693          	addi	x13,x10,-11
    df18:	01d00713          	addi	x14,x0,29
    df1c:	ff850793          	addi	x15,x10,-8
    df20:	40d70733          	sub	x14,x14,x13
    df24:	00f41433          	sll	x8,x8,x15
    df28:	00eb5733          	srl	x14,x22,x14
    df2c:	00876733          	or	x14,x14,x8
    df30:	00fb1433          	sll	x8,x22,x15
    df34:	c0d00693          	addi	x13,x0,-1011
    df38:	00040793          	addi	x15,x8,0
    df3c:	40a686b3          	sub	x13,x13,x10
    df40:	00070413          	addi	x8,x14,0
    df44:	c65ff06f          	jal	x0,dba8 <__muldf3+0xb0>
    df48:	000b0513          	addi	x10,x22,0
    df4c:	4a5030ef          	jal	x1,11bf0 <__clzsi2>
    df50:	00050793          	addi	x15,x10,0
    df54:	01578693          	addi	x13,x15,21
    df58:	01c00713          	addi	x14,x0,28
    df5c:	02050513          	addi	x10,x10,32
    df60:	fad75ce3          	bge	x14,x13,df18 <__muldf3+0x420>
    df64:	ff878793          	addi	x15,x15,-8
    df68:	00fb1733          	sll	x14,x22,x15
    df6c:	fc9ff06f          	jal	x0,df34 <__muldf3+0x43c>
    df70:	016467b3          	or	x15,x8,x22
    df74:	02079263          	bne	x15,x0,df98 <__muldf3+0x4a0>
    df78:	00000413          	addi	x8,x0,0
    df7c:	7ff00693          	addi	x13,x0,2047
    df80:	00200713          	addi	x14,x0,2
    df84:	c29ff06f          	jal	x0,dbac <__muldf3+0xb4>
    df88:	00000413          	addi	x8,x0,0
    df8c:	00000693          	addi	x13,x0,0
    df90:	00100713          	addi	x14,x0,1
    df94:	c19ff06f          	jal	x0,dbac <__muldf3+0xb4>
    df98:	000b0793          	addi	x15,x22,0
    df9c:	7ff00693          	addi	x13,x0,2047
    dfa0:	00300713          	addi	x14,x0,3
    dfa4:	c09ff06f          	jal	x0,dbac <__muldf3+0xb4>
    dfa8:	00100613          	addi	x12,x0,1
    dfac:	00d61633          	sll	x12,x12,x13
    dfb0:	53067693          	andi	x13,x12,1328
    dfb4:	0e069663          	bne	x13,x0,e0a0 <__muldf3+0x5a8>
    dfb8:	24067593          	andi	x11,x12,576
    dfbc:	1a059a63          	bne	x11,x0,e170 <__muldf3+0x678>
    dfc0:	08867613          	andi	x12,x12,136
    dfc4:	c0060ce3          	beq	x12,x0,dbdc <__muldf3+0xe4>
    dfc8:	00090813          	addi	x16,x18,0
    dfcc:	00200693          	addi	x13,x0,2
    dfd0:	18d70863          	beq	x14,x13,e160 <__muldf3+0x668>
    dfd4:	00300693          	addi	x13,x0,3
    dfd8:	1ad70463          	beq	x14,x13,e180 <__muldf3+0x688>
    dfdc:	00100693          	addi	x13,x0,1
    dfe0:	1ad70663          	beq	x14,x13,e18c <__muldf3+0x694>
    dfe4:	3ff88613          	addi	x12,x17,1023
    dfe8:	0cc05463          	bge	x0,x12,e0b0 <__muldf3+0x5b8>
    dfec:	0077f713          	andi	x14,x15,7
    dff0:	02070063          	beq	x14,x0,e010 <__muldf3+0x518>
    dff4:	00f7f713          	andi	x14,x15,15
    dff8:	00400693          	addi	x13,x0,4
    dffc:	00d70a63          	beq	x14,x13,e010 <__muldf3+0x518>
    e000:	00478713          	addi	x14,x15,4
    e004:	00f736b3          	sltu	x13,x14,x15
    e008:	00d40433          	add	x8,x8,x13
    e00c:	00070793          	addi	x15,x14,0
    e010:	00741713          	slli	x14,x8,0x7
    e014:	00075a63          	bge	x14,x0,e028 <__muldf3+0x530>
    e018:	ff000737          	lui	x14,0xff000
    e01c:	fff70713          	addi	x14,x14,-1 # feffffff <__heap_end+0xfebfffff>
    e020:	00e47433          	and	x8,x8,x14
    e024:	40088613          	addi	x12,x17,1024
    e028:	7fe00713          	addi	x14,x0,2046
    e02c:	12c74a63          	blt	x14,x12,e160 <__muldf3+0x668>
    e030:	0037d793          	srli	x15,x15,0x3
    e034:	01d41693          	slli	x13,x8,0x1d
    e038:	00f6e6b3          	or	x13,x13,x15
    e03c:	00345713          	srli	x14,x8,0x3
    e040:	00c71713          	slli	x14,x14,0xc
    e044:	02c12083          	lw	x1,44(x2)
    e048:	02812403          	lw	x8,40(x2)
    e04c:	01461613          	slli	x12,x12,0x14
    e050:	00c75713          	srli	x14,x14,0xc
    e054:	00e66633          	or	x12,x12,x14
    e058:	01f81813          	slli	x16,x16,0x1f
    e05c:	010667b3          	or	x15,x12,x16
    e060:	02412483          	lw	x9,36(x2)
    e064:	02012903          	lw	x18,32(x2)
    e068:	01c12983          	lw	x19,28(x2)
    e06c:	01812a03          	lw	x20,24(x2)
    e070:	01412a83          	lw	x21,20(x2)
    e074:	01012b03          	lw	x22,16(x2)
    e078:	00c12b83          	lw	x23,12(x2)
    e07c:	00068513          	addi	x10,x13,0 # 10000 <__multf3+0x125c>
    e080:	00078593          	addi	x11,x15,0
    e084:	03010113          	addi	x2,x2,48
    e088:	00008067          	jalr	x0,0(x1)
    e08c:	00f00613          	addi	x12,x0,15
    e090:	0ec68863          	beq	x13,x12,e180 <__muldf3+0x688>
    e094:	00b00613          	addi	x12,x0,11
    e098:	00098813          	addi	x16,x19,0
    e09c:	f2c686e3          	beq	x13,x12,dfc8 <__muldf3+0x4d0>
    e0a0:	00048413          	addi	x8,x9,0
    e0a4:	000a0793          	addi	x15,x20,0
    e0a8:	000b8713          	addi	x14,x23,0
    e0ac:	f21ff06f          	jal	x0,dfcc <__muldf3+0x4d4>
    e0b0:	00100713          	addi	x14,x0,1
    e0b4:	40c70733          	sub	x14,x14,x12
    e0b8:	03800693          	addi	x13,x0,56
    e0bc:	0ce6c863          	blt	x13,x14,e18c <__muldf3+0x694>
    e0c0:	01f00693          	addi	x13,x0,31
    e0c4:	06e6c463          	blt	x13,x14,e12c <__muldf3+0x634>
    e0c8:	41e88893          	addi	x17,x17,1054
    e0cc:	00e7d633          	srl	x12,x15,x14
    e0d0:	011416b3          	sll	x13,x8,x17
    e0d4:	011798b3          	sll	x17,x15,x17
    e0d8:	00c6e6b3          	or	x13,x13,x12
    e0dc:	011038b3          	sltu	x17,x0,x17
    e0e0:	0116e7b3          	or	x15,x13,x17
    e0e4:	00e45733          	srl	x14,x8,x14
    e0e8:	0077f693          	andi	x13,x15,7
    e0ec:	02068063          	beq	x13,x0,e10c <__muldf3+0x614>
    e0f0:	00f7f693          	andi	x13,x15,15
    e0f4:	00400613          	addi	x12,x0,4
    e0f8:	00c68a63          	beq	x13,x12,e10c <__muldf3+0x614>
    e0fc:	00478693          	addi	x13,x15,4
    e100:	00f6b633          	sltu	x12,x13,x15
    e104:	00c70733          	add	x14,x14,x12
    e108:	00068793          	addi	x15,x13,0
    e10c:	00871693          	slli	x13,x14,0x8
    e110:	0806c463          	blt	x13,x0,e198 <__muldf3+0x6a0>
    e114:	01d71693          	slli	x13,x14,0x1d
    e118:	0037d793          	srli	x15,x15,0x3
    e11c:	00f6e6b3          	or	x13,x13,x15
    e120:	00375713          	srli	x14,x14,0x3
    e124:	00000613          	addi	x12,x0,0
    e128:	f19ff06f          	jal	x0,e040 <__muldf3+0x548>
    e12c:	fe100693          	addi	x13,x0,-31
    e130:	40c686b3          	sub	x13,x13,x12
    e134:	02000593          	addi	x11,x0,32
    e138:	00d456b3          	srl	x13,x8,x13
    e13c:	00000613          	addi	x12,x0,0
    e140:	00b70663          	beq	x14,x11,e14c <__muldf3+0x654>
    e144:	43e88613          	addi	x12,x17,1086
    e148:	00c41633          	sll	x12,x8,x12
    e14c:	00f66633          	or	x12,x12,x15
    e150:	00c03633          	sltu	x12,x0,x12
    e154:	00c6e7b3          	or	x15,x13,x12
    e158:	00000713          	addi	x14,x0,0
    e15c:	f8dff06f          	jal	x0,e0e8 <__muldf3+0x5f0>
    e160:	00000713          	addi	x14,x0,0
    e164:	00000693          	addi	x13,x0,0
    e168:	7ff00613          	addi	x12,x0,2047
    e16c:	ed5ff06f          	jal	x0,e040 <__muldf3+0x548>
    e170:	00080737          	lui	x14,0x80
    e174:	7ff00613          	addi	x12,x0,2047
    e178:	00000813          	addi	x16,x0,0
    e17c:	ec5ff06f          	jal	x0,e040 <__muldf3+0x548>
    e180:	00080737          	lui	x14,0x80
    e184:	00000693          	addi	x13,x0,0
    e188:	fedff06f          	jal	x0,e174 <__muldf3+0x67c>
    e18c:	00000713          	addi	x14,x0,0
    e190:	00000693          	addi	x13,x0,0
    e194:	f91ff06f          	jal	x0,e124 <__muldf3+0x62c>
    e198:	00000713          	addi	x14,x0,0
    e19c:	00000693          	addi	x13,x0,0
    e1a0:	00100613          	addi	x12,x0,1
    e1a4:	e9dff06f          	jal	x0,e040 <__muldf3+0x548>

0000e1a8 <__subdf3>:
    e1a8:	00100837          	lui	x16,0x100
    e1ac:	fff80813          	addi	x16,x16,-1 # fffff <__heap_start+0xecc8f>
    e1b0:	fe010113          	addi	x2,x2,-32
    e1b4:	00b878b3          	and	x17,x16,x11
    e1b8:	0145d713          	srli	x14,x11,0x14
    e1bc:	01d55793          	srli	x15,x10,0x1d
    e1c0:	00d87833          	and	x16,x16,x13
    e1c4:	01212823          	sw	x18,16(x2)
    e1c8:	7ff77913          	andi	x18,x14,2047
    e1cc:	00389713          	slli	x14,x17,0x3
    e1d0:	0146d893          	srli	x17,x13,0x14
    e1d4:	00912a23          	sw	x9,20(x2)
    e1d8:	00e7e7b3          	or	x15,x15,x14
    e1dc:	01f5d493          	srli	x9,x11,0x1f
    e1e0:	01d65713          	srli	x14,x12,0x1d
    e1e4:	00381813          	slli	x16,x16,0x3
    e1e8:	00112e23          	sw	x1,28(x2)
    e1ec:	00812c23          	sw	x8,24(x2)
    e1f0:	01312623          	sw	x19,12(x2)
    e1f4:	7ff8f893          	andi	x17,x17,2047
    e1f8:	7ff00593          	addi	x11,x0,2047
    e1fc:	00351513          	slli	x10,x10,0x3
    e200:	01f6d693          	srli	x13,x13,0x1f
    e204:	01076733          	or	x14,x14,x16
    e208:	00361613          	slli	x12,x12,0x3
    e20c:	00b89663          	bne	x17,x11,e218 <__subdf3+0x70>
    e210:	00c765b3          	or	x11,x14,x12
    e214:	00059463          	bne	x11,x0,e21c <__subdf3+0x74>
    e218:	0016c693          	xori	x13,x13,1
    e21c:	41190833          	sub	x16,x18,x17
    e220:	2a969a63          	bne	x13,x9,e4d4 <__subdf3+0x32c>
    e224:	11005c63          	bge	x0,x16,e33c <__subdf3+0x194>
    e228:	04089063          	bne	x17,x0,e268 <__subdf3+0xc0>
    e22c:	00c766b3          	or	x13,x14,x12
    e230:	66068063          	beq	x13,x0,e890 <__subdf3+0x6e8>
    e234:	fff80593          	addi	x11,x16,-1
    e238:	02059063          	bne	x11,x0,e258 <__subdf3+0xb0>
    e23c:	00c50633          	add	x12,x10,x12
    e240:	00a636b3          	sltu	x13,x12,x10
    e244:	00e78733          	add	x14,x15,x14
    e248:	00060513          	addi	x10,x12,0
    e24c:	00d707b3          	add	x15,x14,x13
    e250:	00100913          	addi	x18,x0,1
    e254:	06c0006f          	jal	x0,e2c0 <__subdf3+0x118>
    e258:	7ff00693          	addi	x13,x0,2047
    e25c:	02d81063          	bne	x16,x13,e27c <__subdf3+0xd4>
    e260:	7ff00913          	addi	x18,x0,2047
    e264:	1f80006f          	jal	x0,e45c <__subdf3+0x2b4>
    e268:	7ff00693          	addi	x13,x0,2047
    e26c:	1ed90863          	beq	x18,x13,e45c <__subdf3+0x2b4>
    e270:	008006b7          	lui	x13,0x800
    e274:	00d76733          	or	x14,x14,x13
    e278:	00080593          	addi	x11,x16,0
    e27c:	03800693          	addi	x13,x0,56
    e280:	0ab6c863          	blt	x13,x11,e330 <__subdf3+0x188>
    e284:	01f00693          	addi	x13,x0,31
    e288:	06b6ca63          	blt	x13,x11,e2fc <__subdf3+0x154>
    e28c:	02000813          	addi	x16,x0,32
    e290:	40b80833          	sub	x16,x16,x11
    e294:	010716b3          	sll	x13,x14,x16
    e298:	00b658b3          	srl	x17,x12,x11
    e29c:	01061833          	sll	x16,x12,x16
    e2a0:	0116e6b3          	or	x13,x13,x17
    e2a4:	01003833          	sltu	x16,x0,x16
    e2a8:	0106e6b3          	or	x13,x13,x16
    e2ac:	00b755b3          	srl	x11,x14,x11
    e2b0:	00a68533          	add	x10,x13,x10
    e2b4:	00f585b3          	add	x11,x11,x15
    e2b8:	00d536b3          	sltu	x13,x10,x13
    e2bc:	00d587b3          	add	x15,x11,x13
    e2c0:	00879713          	slli	x14,x15,0x8
    e2c4:	18075c63          	bge	x14,x0,e45c <__subdf3+0x2b4>
    e2c8:	00190913          	addi	x18,x18,1
    e2cc:	7ff00713          	addi	x14,x0,2047
    e2d0:	5ae90a63          	beq	x18,x14,e884 <__subdf3+0x6dc>
    e2d4:	ff800737          	lui	x14,0xff800
    e2d8:	fff70713          	addi	x14,x14,-1 # ff7fffff <__heap_end+0xff3fffff>
    e2dc:	00e7f733          	and	x14,x15,x14
    e2e0:	00155793          	srli	x15,x10,0x1
    e2e4:	00157513          	andi	x10,x10,1
    e2e8:	00a7e7b3          	or	x15,x15,x10
    e2ec:	01f71513          	slli	x10,x14,0x1f
    e2f0:	00f56533          	or	x10,x10,x15
    e2f4:	00175793          	srli	x15,x14,0x1
    e2f8:	1640006f          	jal	x0,e45c <__subdf3+0x2b4>
    e2fc:	fe058693          	addi	x13,x11,-32 # 7ffe0 <__heap_start+0x6cc70>
    e300:	02000893          	addi	x17,x0,32
    e304:	00d756b3          	srl	x13,x14,x13
    e308:	00000813          	addi	x16,x0,0
    e30c:	01158863          	beq	x11,x17,e31c <__subdf3+0x174>
    e310:	04000813          	addi	x16,x0,64
    e314:	40b80833          	sub	x16,x16,x11
    e318:	01071833          	sll	x16,x14,x16
    e31c:	00c86833          	or	x16,x16,x12
    e320:	01003833          	sltu	x16,x0,x16
    e324:	0106e6b3          	or	x13,x13,x16
    e328:	00000593          	addi	x11,x0,0
    e32c:	f85ff06f          	jal	x0,e2b0 <__subdf3+0x108>
    e330:	00c766b3          	or	x13,x14,x12
    e334:	00d036b3          	sltu	x13,x0,x13
    e338:	ff1ff06f          	jal	x0,e328 <__subdf3+0x180>
    e33c:	0c080a63          	beq	x16,x0,e410 <__subdf3+0x268>
    e340:	412886b3          	sub	x13,x17,x18
    e344:	02091463          	bne	x18,x0,e36c <__subdf3+0x1c4>
    e348:	00a7e5b3          	or	x11,x15,x10
    e34c:	50058e63          	beq	x11,x0,e868 <__subdf3+0x6c0>
    e350:	fff68593          	addi	x11,x13,-1 # 7fffff <__heap_end+0x3fffff>
    e354:	ee0584e3          	beq	x11,x0,e23c <__subdf3+0x94>
    e358:	7ff00813          	addi	x16,x0,2047
    e35c:	03069263          	bne	x13,x16,e380 <__subdf3+0x1d8>
    e360:	00070793          	addi	x15,x14,0
    e364:	00060513          	addi	x10,x12,0
    e368:	ef9ff06f          	jal	x0,e260 <__subdf3+0xb8>
    e36c:	7ff00593          	addi	x11,x0,2047
    e370:	feb888e3          	beq	x17,x11,e360 <__subdf3+0x1b8>
    e374:	008005b7          	lui	x11,0x800
    e378:	00b7e7b3          	or	x15,x15,x11
    e37c:	00068593          	addi	x11,x13,0
    e380:	03800693          	addi	x13,x0,56
    e384:	08b6c063          	blt	x13,x11,e404 <__subdf3+0x25c>
    e388:	01f00693          	addi	x13,x0,31
    e38c:	04b6c263          	blt	x13,x11,e3d0 <__subdf3+0x228>
    e390:	02000813          	addi	x16,x0,32
    e394:	40b80833          	sub	x16,x16,x11
    e398:	010796b3          	sll	x13,x15,x16
    e39c:	00b55333          	srl	x6,x10,x11
    e3a0:	01051833          	sll	x16,x10,x16
    e3a4:	0066e6b3          	or	x13,x13,x6
    e3a8:	01003833          	sltu	x16,x0,x16
    e3ac:	0106e6b3          	or	x13,x13,x16
    e3b0:	00b7d5b3          	srl	x11,x15,x11
    e3b4:	00c68633          	add	x12,x13,x12
    e3b8:	00e585b3          	add	x11,x11,x14
    e3bc:	00d636b3          	sltu	x13,x12,x13
    e3c0:	00060513          	addi	x10,x12,0
    e3c4:	00d587b3          	add	x15,x11,x13
    e3c8:	00088913          	addi	x18,x17,0
    e3cc:	ef5ff06f          	jal	x0,e2c0 <__subdf3+0x118>
    e3d0:	fe058693          	addi	x13,x11,-32 # 7fffe0 <__heap_end+0x3fffe0>
    e3d4:	02000313          	addi	x6,x0,32
    e3d8:	00d7d6b3          	srl	x13,x15,x13
    e3dc:	00000813          	addi	x16,x0,0
    e3e0:	00658863          	beq	x11,x6,e3f0 <__subdf3+0x248>
    e3e4:	04000813          	addi	x16,x0,64
    e3e8:	40b80833          	sub	x16,x16,x11
    e3ec:	01079833          	sll	x16,x15,x16
    e3f0:	00a86833          	or	x16,x16,x10
    e3f4:	01003833          	sltu	x16,x0,x16
    e3f8:	0106e6b3          	or	x13,x13,x16
    e3fc:	00000593          	addi	x11,x0,0
    e400:	fb5ff06f          	jal	x0,e3b4 <__subdf3+0x20c>
    e404:	00a7e6b3          	or	x13,x15,x10
    e408:	00d036b3          	sltu	x13,x0,x13
    e40c:	ff1ff06f          	jal	x0,e3fc <__subdf3+0x254>
    e410:	00190693          	addi	x13,x18,1
    e414:	7fe6f593          	andi	x11,x13,2046
    e418:	08059663          	bne	x11,x0,e4a4 <__subdf3+0x2fc>
    e41c:	00a7e6b3          	or	x13,x15,x10
    e420:	06091263          	bne	x18,x0,e484 <__subdf3+0x2dc>
    e424:	44068863          	beq	x13,x0,e874 <__subdf3+0x6cc>
    e428:	00c766b3          	or	x13,x14,x12
    e42c:	02068863          	beq	x13,x0,e45c <__subdf3+0x2b4>
    e430:	00c50633          	add	x12,x10,x12
    e434:	00a636b3          	sltu	x13,x12,x10
    e438:	00e78733          	add	x14,x15,x14
    e43c:	00d707b3          	add	x15,x14,x13
    e440:	00879713          	slli	x14,x15,0x8
    e444:	00060513          	addi	x10,x12,0
    e448:	00075a63          	bge	x14,x0,e45c <__subdf3+0x2b4>
    e44c:	ff800737          	lui	x14,0xff800
    e450:	fff70713          	addi	x14,x14,-1 # ff7fffff <__heap_end+0xff3fffff>
    e454:	00e7f7b3          	and	x15,x15,x14
    e458:	00100913          	addi	x18,x0,1
    e45c:	00757713          	andi	x14,x10,7
    e460:	44070863          	beq	x14,x0,e8b0 <__subdf3+0x708>
    e464:	00f57713          	andi	x14,x10,15
    e468:	00400693          	addi	x13,x0,4
    e46c:	44d70263          	beq	x14,x13,e8b0 <__subdf3+0x708>
    e470:	00450713          	addi	x14,x10,4
    e474:	00a736b3          	sltu	x13,x14,x10
    e478:	00d787b3          	add	x15,x15,x13
    e47c:	00070513          	addi	x10,x14,0
    e480:	4300006f          	jal	x0,e8b0 <__subdf3+0x708>
    e484:	ec068ee3          	beq	x13,x0,e360 <__subdf3+0x1b8>
    e488:	00c76633          	or	x12,x14,x12
    e48c:	dc060ae3          	beq	x12,x0,e260 <__subdf3+0xb8>
    e490:	00000493          	addi	x9,x0,0
    e494:	004007b7          	lui	x15,0x400
    e498:	00000513          	addi	x10,x0,0
    e49c:	7ff00913          	addi	x18,x0,2047
    e4a0:	4100006f          	jal	x0,e8b0 <__subdf3+0x708>
    e4a4:	7ff00593          	addi	x11,x0,2047
    e4a8:	3cb68c63          	beq	x13,x11,e880 <__subdf3+0x6d8>
    e4ac:	00c50633          	add	x12,x10,x12
    e4b0:	00a63533          	sltu	x10,x12,x10
    e4b4:	00e78733          	add	x14,x15,x14
    e4b8:	00a70733          	add	x14,x14,x10
    e4bc:	01f71513          	slli	x10,x14,0x1f
    e4c0:	00165613          	srli	x12,x12,0x1
    e4c4:	00c56533          	or	x10,x10,x12
    e4c8:	00175793          	srli	x15,x14,0x1
    e4cc:	00068913          	addi	x18,x13,0
    e4d0:	f8dff06f          	jal	x0,e45c <__subdf3+0x2b4>
    e4d4:	0f005c63          	bge	x0,x16,e5cc <__subdf3+0x424>
    e4d8:	08089e63          	bne	x17,x0,e574 <__subdf3+0x3cc>
    e4dc:	00c766b3          	or	x13,x14,x12
    e4e0:	3a068863          	beq	x13,x0,e890 <__subdf3+0x6e8>
    e4e4:	fff80693          	addi	x13,x16,-1
    e4e8:	02069063          	bne	x13,x0,e508 <__subdf3+0x360>
    e4ec:	40c50633          	sub	x12,x10,x12
    e4f0:	00c536b3          	sltu	x13,x10,x12
    e4f4:	40e78733          	sub	x14,x15,x14
    e4f8:	00060513          	addi	x10,x12,0
    e4fc:	40d707b3          	sub	x15,x14,x13
    e500:	00100913          	addi	x18,x0,1
    e504:	0540006f          	jal	x0,e558 <__subdf3+0x3b0>
    e508:	7ff00593          	addi	x11,x0,2047
    e50c:	d4b80ae3          	beq	x16,x11,e260 <__subdf3+0xb8>
    e510:	03800593          	addi	x11,x0,56
    e514:	0ad5c663          	blt	x11,x13,e5c0 <__subdf3+0x418>
    e518:	01f00593          	addi	x11,x0,31
    e51c:	06d5c863          	blt	x11,x13,e58c <__subdf3+0x3e4>
    e520:	02000813          	addi	x16,x0,32
    e524:	40d80833          	sub	x16,x16,x13
    e528:	00d658b3          	srl	x17,x12,x13
    e52c:	010715b3          	sll	x11,x14,x16
    e530:	01061833          	sll	x16,x12,x16
    e534:	0115e5b3          	or	x11,x11,x17
    e538:	01003833          	sltu	x16,x0,x16
    e53c:	0105e633          	or	x12,x11,x16
    e540:	00d756b3          	srl	x13,x14,x13
    e544:	40c50633          	sub	x12,x10,x12
    e548:	00c53733          	sltu	x14,x10,x12
    e54c:	40d786b3          	sub	x13,x15,x13
    e550:	00060513          	addi	x10,x12,0
    e554:	40e687b3          	sub	x15,x13,x14
    e558:	00879713          	slli	x14,x15,0x8
    e55c:	f00750e3          	bge	x14,x0,e45c <__subdf3+0x2b4>
    e560:	00800437          	lui	x8,0x800
    e564:	fff40413          	addi	x8,x8,-1 # 7fffff <__heap_end+0x3fffff>
    e568:	0087f433          	and	x8,x15,x8
    e56c:	00050993          	addi	x19,x10,0
    e570:	2100006f          	jal	x0,e780 <__subdf3+0x5d8>
    e574:	7ff00693          	addi	x13,x0,2047
    e578:	eed902e3          	beq	x18,x13,e45c <__subdf3+0x2b4>
    e57c:	008006b7          	lui	x13,0x800
    e580:	00d76733          	or	x14,x14,x13
    e584:	00080693          	addi	x13,x16,0
    e588:	f89ff06f          	jal	x0,e510 <__subdf3+0x368>
    e58c:	fe068593          	addi	x11,x13,-32 # 7fffe0 <__heap_end+0x3fffe0>
    e590:	02000893          	addi	x17,x0,32
    e594:	00b755b3          	srl	x11,x14,x11
    e598:	00000813          	addi	x16,x0,0
    e59c:	01168863          	beq	x13,x17,e5ac <__subdf3+0x404>
    e5a0:	04000813          	addi	x16,x0,64
    e5a4:	40d80833          	sub	x16,x16,x13
    e5a8:	01071833          	sll	x16,x14,x16
    e5ac:	00c86833          	or	x16,x16,x12
    e5b0:	01003833          	sltu	x16,x0,x16
    e5b4:	0105e633          	or	x12,x11,x16
    e5b8:	00000693          	addi	x13,x0,0
    e5bc:	f89ff06f          	jal	x0,e544 <__subdf3+0x39c>
    e5c0:	00c76633          	or	x12,x14,x12
    e5c4:	00c03633          	sltu	x12,x0,x12
    e5c8:	ff1ff06f          	jal	x0,e5b8 <__subdf3+0x410>
    e5cc:	0e080863          	beq	x16,x0,e6bc <__subdf3+0x514>
    e5d0:	41288833          	sub	x16,x17,x18
    e5d4:	04091263          	bne	x18,x0,e618 <__subdf3+0x470>
    e5d8:	00a7e5b3          	or	x11,x15,x10
    e5dc:	2a058e63          	beq	x11,x0,e898 <__subdf3+0x6f0>
    e5e0:	fff80593          	addi	x11,x16,-1
    e5e4:	00059e63          	bne	x11,x0,e600 <__subdf3+0x458>
    e5e8:	40a60533          	sub	x10,x12,x10
    e5ec:	40f70733          	sub	x14,x14,x15
    e5f0:	00a63633          	sltu	x12,x12,x10
    e5f4:	40c707b3          	sub	x15,x14,x12
    e5f8:	00068493          	addi	x9,x13,0
    e5fc:	f05ff06f          	jal	x0,e500 <__subdf3+0x358>
    e600:	7ff00313          	addi	x6,x0,2047
    e604:	02681463          	bne	x16,x6,e62c <__subdf3+0x484>
    e608:	00070793          	addi	x15,x14,0
    e60c:	00060513          	addi	x10,x12,0
    e610:	7ff00913          	addi	x18,x0,2047
    e614:	0d00006f          	jal	x0,e6e4 <__subdf3+0x53c>
    e618:	7ff00593          	addi	x11,x0,2047
    e61c:	feb886e3          	beq	x17,x11,e608 <__subdf3+0x460>
    e620:	008005b7          	lui	x11,0x800
    e624:	00b7e7b3          	or	x15,x15,x11
    e628:	00080593          	addi	x11,x16,0
    e62c:	03800813          	addi	x16,x0,56
    e630:	08b84063          	blt	x16,x11,e6b0 <__subdf3+0x508>
    e634:	01f00813          	addi	x16,x0,31
    e638:	04b84263          	blt	x16,x11,e67c <__subdf3+0x4d4>
    e63c:	02000313          	addi	x6,x0,32
    e640:	40b30333          	sub	x6,x6,x11
    e644:	00b55e33          	srl	x28,x10,x11
    e648:	00679833          	sll	x16,x15,x6
    e64c:	00651333          	sll	x6,x10,x6
    e650:	01c86833          	or	x16,x16,x28
    e654:	00603333          	sltu	x6,x0,x6
    e658:	00686533          	or	x10,x16,x6
    e65c:	00b7d5b3          	srl	x11,x15,x11
    e660:	40a60533          	sub	x10,x12,x10
    e664:	40b705b3          	sub	x11,x14,x11
    e668:	00a63633          	sltu	x12,x12,x10
    e66c:	40c587b3          	sub	x15,x11,x12
    e670:	00088913          	addi	x18,x17,0
    e674:	00068493          	addi	x9,x13,0
    e678:	ee1ff06f          	jal	x0,e558 <__subdf3+0x3b0>
    e67c:	fe058813          	addi	x16,x11,-32 # 7fffe0 <__heap_end+0x3fffe0>
    e680:	02000e13          	addi	x28,x0,32
    e684:	0107d833          	srl	x16,x15,x16
    e688:	00000313          	addi	x6,x0,0
    e68c:	01c58863          	beq	x11,x28,e69c <__subdf3+0x4f4>
    e690:	04000313          	addi	x6,x0,64
    e694:	40b30333          	sub	x6,x6,x11
    e698:	00679333          	sll	x6,x15,x6
    e69c:	00a36333          	or	x6,x6,x10
    e6a0:	00603333          	sltu	x6,x0,x6
    e6a4:	00686533          	or	x10,x16,x6
    e6a8:	00000593          	addi	x11,x0,0
    e6ac:	fb5ff06f          	jal	x0,e660 <__subdf3+0x4b8>
    e6b0:	00a7e533          	or	x10,x15,x10
    e6b4:	00a03533          	sltu	x10,x0,x10
    e6b8:	ff1ff06f          	jal	x0,e6a8 <__subdf3+0x500>
    e6bc:	00190593          	addi	x11,x18,1
    e6c0:	7fe5f593          	andi	x11,x11,2046
    e6c4:	08059663          	bne	x11,x0,e750 <__subdf3+0x5a8>
    e6c8:	00c765b3          	or	x11,x14,x12
    e6cc:	00a7e833          	or	x16,x15,x10
    e6d0:	06091063          	bne	x18,x0,e730 <__subdf3+0x588>
    e6d4:	00081c63          	bne	x16,x0,e6ec <__subdf3+0x544>
    e6d8:	10058e63          	beq	x11,x0,e7f4 <__subdf3+0x64c>
    e6dc:	00070793          	addi	x15,x14,0
    e6e0:	00060513          	addi	x10,x12,0
    e6e4:	00068493          	addi	x9,x13,0
    e6e8:	d75ff06f          	jal	x0,e45c <__subdf3+0x2b4>
    e6ec:	d60588e3          	beq	x11,x0,e45c <__subdf3+0x2b4>
    e6f0:	40c50833          	sub	x16,x10,x12
    e6f4:	010538b3          	sltu	x17,x10,x16
    e6f8:	40e785b3          	sub	x11,x15,x14
    e6fc:	411585b3          	sub	x11,x11,x17
    e700:	00859893          	slli	x17,x11,0x8
    e704:	0008dc63          	bge	x17,x0,e71c <__subdf3+0x574>
    e708:	40a60533          	sub	x10,x12,x10
    e70c:	40f70733          	sub	x14,x14,x15
    e710:	00a63633          	sltu	x12,x12,x10
    e714:	40c707b3          	sub	x15,x14,x12
    e718:	fcdff06f          	jal	x0,e6e4 <__subdf3+0x53c>
    e71c:	00b86533          	or	x10,x16,x11
    e720:	18050463          	beq	x10,x0,e8a8 <__subdf3+0x700>
    e724:	00058793          	addi	x15,x11,0
    e728:	00080513          	addi	x10,x16,0
    e72c:	d31ff06f          	jal	x0,e45c <__subdf3+0x2b4>
    e730:	00081c63          	bne	x16,x0,e748 <__subdf3+0x5a0>
    e734:	d4058ee3          	beq	x11,x0,e490 <__subdf3+0x2e8>
    e738:	00070793          	addi	x15,x14,0
    e73c:	00060513          	addi	x10,x12,0
    e740:	00068493          	addi	x9,x13,0
    e744:	b1dff06f          	jal	x0,e260 <__subdf3+0xb8>
    e748:	b0058ce3          	beq	x11,x0,e260 <__subdf3+0xb8>
    e74c:	d45ff06f          	jal	x0,e490 <__subdf3+0x2e8>
    e750:	40c505b3          	sub	x11,x10,x12
    e754:	00b53833          	sltu	x16,x10,x11
    e758:	40e78433          	sub	x8,x15,x14
    e75c:	41040433          	sub	x8,x8,x16
    e760:	00841813          	slli	x16,x8,0x8
    e764:	00058993          	addi	x19,x11,0
    e768:	08085063          	bge	x16,x0,e7e8 <__subdf3+0x640>
    e76c:	40a609b3          	sub	x19,x12,x10
    e770:	40f70433          	sub	x8,x14,x15
    e774:	01363633          	sltu	x12,x12,x19
    e778:	40c40433          	sub	x8,x8,x12
    e77c:	00068493          	addi	x9,x13,0
    e780:	06040e63          	beq	x8,x0,e7fc <__subdf3+0x654>
    e784:	00040513          	addi	x10,x8,0
    e788:	468030ef          	jal	x1,11bf0 <__clzsi2>
    e78c:	ff850693          	addi	x13,x10,-8
    e790:	02000793          	addi	x15,x0,32
    e794:	40d787b3          	sub	x15,x15,x13
    e798:	00d41433          	sll	x8,x8,x13
    e79c:	00f9d7b3          	srl	x15,x19,x15
    e7a0:	0087e7b3          	or	x15,x15,x8
    e7a4:	00d99433          	sll	x8,x19,x13
    e7a8:	0b26c463          	blt	x13,x18,e850 <__subdf3+0x6a8>
    e7ac:	412686b3          	sub	x13,x13,x18
    e7b0:	00168613          	addi	x12,x13,1
    e7b4:	01f00713          	addi	x14,x0,31
    e7b8:	06c74263          	blt	x14,x12,e81c <__subdf3+0x674>
    e7bc:	02000713          	addi	x14,x0,32
    e7c0:	40c70733          	sub	x14,x14,x12
    e7c4:	00e79533          	sll	x10,x15,x14
    e7c8:	00c456b3          	srl	x13,x8,x12
    e7cc:	00e41733          	sll	x14,x8,x14
    e7d0:	00d56533          	or	x10,x10,x13
    e7d4:	00e03733          	sltu	x14,x0,x14
    e7d8:	00e56533          	or	x10,x10,x14
    e7dc:	00c7d7b3          	srl	x15,x15,x12
    e7e0:	00000913          	addi	x18,x0,0
    e7e4:	c79ff06f          	jal	x0,e45c <__subdf3+0x2b4>
    e7e8:	0085e5b3          	or	x11,x11,x8
    e7ec:	f8059ae3          	bne	x11,x0,e780 <__subdf3+0x5d8>
    e7f0:	00000913          	addi	x18,x0,0
    e7f4:	00000493          	addi	x9,x0,0
    e7f8:	08c0006f          	jal	x0,e884 <__subdf3+0x6dc>
    e7fc:	00098513          	addi	x10,x19,0
    e800:	3f0030ef          	jal	x1,11bf0 <__clzsi2>
    e804:	01850693          	addi	x13,x10,24
    e808:	01f00793          	addi	x15,x0,31
    e80c:	f8d7d2e3          	bge	x15,x13,e790 <__subdf3+0x5e8>
    e810:	ff850793          	addi	x15,x10,-8
    e814:	00f997b3          	sll	x15,x19,x15
    e818:	f91ff06f          	jal	x0,e7a8 <__subdf3+0x600>
    e81c:	fe168693          	addi	x13,x13,-31
    e820:	00d7d533          	srl	x10,x15,x13
    e824:	02000693          	addi	x13,x0,32
    e828:	00000713          	addi	x14,x0,0
    e82c:	00d60863          	beq	x12,x13,e83c <__subdf3+0x694>
    e830:	04000713          	addi	x14,x0,64
    e834:	40c70733          	sub	x14,x14,x12
    e838:	00e79733          	sll	x14,x15,x14
    e83c:	00e46733          	or	x14,x8,x14
    e840:	00e03733          	sltu	x14,x0,x14
    e844:	00e56533          	or	x10,x10,x14
    e848:	00000793          	addi	x15,x0,0
    e84c:	f95ff06f          	jal	x0,e7e0 <__subdf3+0x638>
    e850:	ff800737          	lui	x14,0xff800
    e854:	fff70713          	addi	x14,x14,-1 # ff7fffff <__heap_end+0xff3fffff>
    e858:	40d90933          	sub	x18,x18,x13
    e85c:	00e7f7b3          	and	x15,x15,x14
    e860:	00040513          	addi	x10,x8,0
    e864:	bf9ff06f          	jal	x0,e45c <__subdf3+0x2b4>
    e868:	00070793          	addi	x15,x14,0
    e86c:	00060513          	addi	x10,x12,0
    e870:	c5dff06f          	jal	x0,e4cc <__subdf3+0x324>
    e874:	00070793          	addi	x15,x14,0
    e878:	00060513          	addi	x10,x12,0
    e87c:	be1ff06f          	jal	x0,e45c <__subdf3+0x2b4>
    e880:	7ff00913          	addi	x18,x0,2047
    e884:	00000793          	addi	x15,x0,0
    e888:	00000513          	addi	x10,x0,0
    e88c:	0240006f          	jal	x0,e8b0 <__subdf3+0x708>
    e890:	00080913          	addi	x18,x16,0
    e894:	bc9ff06f          	jal	x0,e45c <__subdf3+0x2b4>
    e898:	00070793          	addi	x15,x14,0
    e89c:	00060513          	addi	x10,x12,0
    e8a0:	00080913          	addi	x18,x16,0
    e8a4:	e41ff06f          	jal	x0,e6e4 <__subdf3+0x53c>
    e8a8:	00000793          	addi	x15,x0,0
    e8ac:	00000493          	addi	x9,x0,0
    e8b0:	00879713          	slli	x14,x15,0x8
    e8b4:	00075e63          	bge	x14,x0,e8d0 <__subdf3+0x728>
    e8b8:	00190913          	addi	x18,x18,1
    e8bc:	7ff00713          	addi	x14,x0,2047
    e8c0:	08e90263          	beq	x18,x14,e944 <__subdf3+0x79c>
    e8c4:	ff800737          	lui	x14,0xff800
    e8c8:	fff70713          	addi	x14,x14,-1 # ff7fffff <__heap_end+0xff3fffff>
    e8cc:	00e7f7b3          	and	x15,x15,x14
    e8d0:	01d79693          	slli	x13,x15,0x1d
    e8d4:	00355513          	srli	x10,x10,0x3
    e8d8:	7ff00713          	addi	x14,x0,2047
    e8dc:	00a6e6b3          	or	x13,x13,x10
    e8e0:	0037d793          	srli	x15,x15,0x3
    e8e4:	00e91e63          	bne	x18,x14,e900 <__subdf3+0x758>
    e8e8:	00f6e6b3          	or	x13,x13,x15
    e8ec:	00000793          	addi	x15,x0,0
    e8f0:	00068863          	beq	x13,x0,e900 <__subdf3+0x758>
    e8f4:	000807b7          	lui	x15,0x80
    e8f8:	00000693          	addi	x13,x0,0
    e8fc:	00000493          	addi	x9,x0,0
    e900:	01491713          	slli	x14,x18,0x14
    e904:	7ff00637          	lui	x12,0x7ff00
    e908:	00c79793          	slli	x15,x15,0xc
    e90c:	00c77733          	and	x14,x14,x12
    e910:	01c12083          	lw	x1,28(x2)
    e914:	01812403          	lw	x8,24(x2)
    e918:	00c7d793          	srli	x15,x15,0xc
    e91c:	00f767b3          	or	x15,x14,x15
    e920:	01f49713          	slli	x14,x9,0x1f
    e924:	00e7e633          	or	x12,x15,x14
    e928:	01412483          	lw	x9,20(x2)
    e92c:	01012903          	lw	x18,16(x2)
    e930:	00c12983          	lw	x19,12(x2)
    e934:	00068513          	addi	x10,x13,0
    e938:	00060593          	addi	x11,x12,0 # 7ff00000 <__heap_end+0x7fb00000>
    e93c:	02010113          	addi	x2,x2,32
    e940:	00008067          	jalr	x0,0(x1)
    e944:	00000793          	addi	x15,x0,0
    e948:	00000513          	addi	x10,x0,0
    e94c:	f85ff06f          	jal	x0,e8d0 <__subdf3+0x728>

0000e950 <__fixdfsi>:
    e950:	0145d713          	srli	x14,x11,0x14
    e954:	001006b7          	lui	x13,0x100
    e958:	fff68793          	addi	x15,x13,-1 # fffff <__heap_start+0xecc8f>
    e95c:	7ff77713          	andi	x14,x14,2047
    e960:	3fe00613          	addi	x12,x0,1022
    e964:	00b7f7b3          	and	x15,x15,x11
    e968:	01f5d593          	srli	x11,x11,0x1f
    e96c:	04e65e63          	bge	x12,x14,e9c8 <__fixdfsi+0x78>
    e970:	41d00613          	addi	x12,x0,1053
    e974:	00e65a63          	bge	x12,x14,e988 <__fixdfsi+0x38>
    e978:	80000537          	lui	x10,0x80000
    e97c:	fff50513          	addi	x10,x10,-1 # 7fffffff <__heap_end+0x7fbfffff>
    e980:	00a58533          	add	x10,x11,x10
    e984:	00008067          	jalr	x0,0(x1)
    e988:	00d7e7b3          	or	x15,x15,x13
    e98c:	43300693          	addi	x13,x0,1075
    e990:	40e686b3          	sub	x13,x13,x14
    e994:	01f00613          	addi	x12,x0,31
    e998:	02d64063          	blt	x12,x13,e9b8 <__fixdfsi+0x68>
    e99c:	bed70713          	addi	x14,x14,-1043
    e9a0:	00e797b3          	sll	x15,x15,x14
    e9a4:	00d55533          	srl	x10,x10,x13
    e9a8:	00a7e533          	or	x10,x15,x10
    e9ac:	02058063          	beq	x11,x0,e9cc <__fixdfsi+0x7c>
    e9b0:	40a00533          	sub	x10,x0,x10
    e9b4:	00008067          	jalr	x0,0(x1)
    e9b8:	41300693          	addi	x13,x0,1043
    e9bc:	40e68733          	sub	x14,x13,x14
    e9c0:	00e7d533          	srl	x10,x15,x14
    e9c4:	fe9ff06f          	jal	x0,e9ac <__fixdfsi+0x5c>
    e9c8:	00000513          	addi	x10,x0,0
    e9cc:	00008067          	jalr	x0,0(x1)

0000e9d0 <__floatsidf>:
    e9d0:	ff010113          	addi	x2,x2,-16
    e9d4:	00112623          	sw	x1,12(x2)
    e9d8:	00812423          	sw	x8,8(x2)
    e9dc:	00912223          	sw	x9,4(x2)
    e9e0:	08050663          	beq	x10,x0,ea6c <__floatsidf+0x9c>
    e9e4:	41f55793          	srai	x15,x10,0x1f
    e9e8:	00a7c433          	xor	x8,x15,x10
    e9ec:	40f40433          	sub	x8,x8,x15
    e9f0:	01f55493          	srli	x9,x10,0x1f
    e9f4:	00040513          	addi	x10,x8,0
    e9f8:	1f8030ef          	jal	x1,11bf0 <__clzsi2>
    e9fc:	41e00713          	addi	x14,x0,1054
    ea00:	00a00793          	addi	x15,x0,10
    ea04:	40a70733          	sub	x14,x14,x10
    ea08:	04a7c863          	blt	x15,x10,ea58 <__floatsidf+0x88>
    ea0c:	00b00793          	addi	x15,x0,11
    ea10:	40a787b3          	sub	x15,x15,x10
    ea14:	01550513          	addi	x10,x10,21
    ea18:	00f457b3          	srl	x15,x8,x15
    ea1c:	00a41433          	sll	x8,x8,x10
    ea20:	00048513          	addi	x10,x9,0
    ea24:	00c79793          	slli	x15,x15,0xc
    ea28:	00c7d793          	srli	x15,x15,0xc
    ea2c:	01471713          	slli	x14,x14,0x14
    ea30:	01f51513          	slli	x10,x10,0x1f
    ea34:	00f76733          	or	x14,x14,x15
    ea38:	00c12083          	lw	x1,12(x2)
    ea3c:	00a767b3          	or	x15,x14,x10
    ea40:	00040513          	addi	x10,x8,0
    ea44:	00812403          	lw	x8,8(x2)
    ea48:	00412483          	lw	x9,4(x2)
    ea4c:	00078593          	addi	x11,x15,0 # 80000 <__heap_start+0x6cc90>
    ea50:	01010113          	addi	x2,x2,16
    ea54:	00008067          	jalr	x0,0(x1)
    ea58:	ff550513          	addi	x10,x10,-11
    ea5c:	00a417b3          	sll	x15,x8,x10
    ea60:	00048513          	addi	x10,x9,0
    ea64:	00000413          	addi	x8,x0,0
    ea68:	fbdff06f          	jal	x0,ea24 <__floatsidf+0x54>
    ea6c:	00000713          	addi	x14,x0,0
    ea70:	00000793          	addi	x15,x0,0
    ea74:	ff1ff06f          	jal	x0,ea64 <__floatsidf+0x94>

0000ea78 <__eqtf2>:
    ea78:	00c52783          	lw	x15,12(x10)
    ea7c:	0005af03          	lw	x30,0(x11)
    ea80:	0045af83          	lw	x31,4(x11)
    ea84:	0085a283          	lw	x5,8(x11)
    ea88:	00c5a583          	lw	x11,12(x11)
    ea8c:	00008737          	lui	x14,0x8
    ea90:	0107d693          	srli	x13,x15,0x10
    ea94:	fff70713          	addi	x14,x14,-1 # 7fff <__gdtoa+0x74b>
    ea98:	01079813          	slli	x16,x15,0x10
    ea9c:	01059e93          	slli	x29,x11,0x10
    eaa0:	01f7d613          	srli	x12,x15,0x1f
    eaa4:	00e6f6b3          	and	x13,x13,x14
    eaa8:	0105d793          	srli	x15,x11,0x10
    eaac:	00052883          	lw	x17,0(x10)
    eab0:	00452303          	lw	x6,4(x10)
    eab4:	00852e03          	lw	x28,8(x10)
    eab8:	ff010113          	addi	x2,x2,-16
    eabc:	01085813          	srli	x16,x16,0x10
    eac0:	010ede93          	srli	x29,x29,0x10
    eac4:	00e7f7b3          	and	x15,x15,x14
    eac8:	01f5d593          	srli	x11,x11,0x1f
    eacc:	02e69063          	bne	x13,x14,eaec <__eqtf2+0x74>
    ead0:	0068e733          	or	x14,x17,x6
    ead4:	01c76733          	or	x14,x14,x28
    ead8:	01076733          	or	x14,x14,x16
    eadc:	00100513          	addi	x10,x0,1
    eae0:	04071a63          	bne	x14,x0,eb34 <__eqtf2+0xbc>
    eae4:	04d79863          	bne	x15,x13,eb34 <__eqtf2+0xbc>
    eae8:	0080006f          	jal	x0,eaf0 <__eqtf2+0x78>
    eaec:	00e79c63          	bne	x15,x14,eb04 <__eqtf2+0x8c>
    eaf0:	01ff6733          	or	x14,x30,x31
    eaf4:	00576733          	or	x14,x14,x5
    eaf8:	01d76733          	or	x14,x14,x29
    eafc:	00100513          	addi	x10,x0,1
    eb00:	02071a63          	bne	x14,x0,eb34 <__eqtf2+0xbc>
    eb04:	00100513          	addi	x10,x0,1
    eb08:	02d79663          	bne	x15,x13,eb34 <__eqtf2+0xbc>
    eb0c:	03e89463          	bne	x17,x30,eb34 <__eqtf2+0xbc>
    eb10:	03f31263          	bne	x6,x31,eb34 <__eqtf2+0xbc>
    eb14:	025e1063          	bne	x28,x5,eb34 <__eqtf2+0xbc>
    eb18:	01d81e63          	bne	x16,x29,eb34 <__eqtf2+0xbc>
    eb1c:	02b60063          	beq	x12,x11,eb3c <__eqtf2+0xc4>
    eb20:	00079a63          	bne	x15,x0,eb34 <__eqtf2+0xbc>
    eb24:	0068e533          	or	x10,x17,x6
    eb28:	01c56533          	or	x10,x10,x28
    eb2c:	01056533          	or	x10,x10,x16
    eb30:	00a03533          	sltu	x10,x0,x10
    eb34:	01010113          	addi	x2,x2,16
    eb38:	00008067          	jalr	x0,0(x1)
    eb3c:	00000513          	addi	x10,x0,0
    eb40:	ff5ff06f          	jal	x0,eb34 <__eqtf2+0xbc>

0000eb44 <__getf2>:
    eb44:	00c52783          	lw	x15,12(x10)
    eb48:	00c5a683          	lw	x13,12(x11)
    eb4c:	00008737          	lui	x14,0x8
    eb50:	0107d613          	srli	x12,x15,0x10
    eb54:	fff70713          	addi	x14,x14,-1 # 7fff <__gdtoa+0x74b>
    eb58:	01079813          	slli	x16,x15,0x10
    eb5c:	01069293          	slli	x5,x13,0x10
    eb60:	00052883          	lw	x17,0(x10)
    eb64:	00452303          	lw	x6,4(x10)
    eb68:	00852e03          	lw	x28,8(x10)
    eb6c:	00e67633          	and	x12,x12,x14
    eb70:	0106d513          	srli	x10,x13,0x10
    eb74:	0005ae83          	lw	x29,0(x11)
    eb78:	0045af03          	lw	x30,4(x11)
    eb7c:	0085af83          	lw	x31,8(x11)
    eb80:	ff010113          	addi	x2,x2,-16
    eb84:	01085813          	srli	x16,x16,0x10
    eb88:	01f7d793          	srli	x15,x15,0x1f
    eb8c:	0102d293          	srli	x5,x5,0x10
    eb90:	00e57533          	and	x10,x10,x14
    eb94:	01f6d693          	srli	x13,x13,0x1f
    eb98:	00e61a63          	bne	x12,x14,ebac <__getf2+0x68>
    eb9c:	01136733          	or	x14,x6,x17
    eba0:	01c76733          	or	x14,x14,x28
    eba4:	01076733          	or	x14,x14,x16
    eba8:	0a071463          	bne	x14,x0,ec50 <__getf2+0x10c>
    ebac:	00008737          	lui	x14,0x8
    ebb0:	fff70713          	addi	x14,x14,-1 # 7fff <__gdtoa+0x74b>
    ebb4:	00e51a63          	bne	x10,x14,ebc8 <__getf2+0x84>
    ebb8:	01eee733          	or	x14,x29,x30
    ebbc:	01f76733          	or	x14,x14,x31
    ebc0:	00576733          	or	x14,x14,x5
    ebc4:	08071663          	bne	x14,x0,ec50 <__getf2+0x10c>
    ebc8:	00000713          	addi	x14,x0,0
    ebcc:	00061a63          	bne	x12,x0,ebe0 <__getf2+0x9c>
    ebd0:	01136733          	or	x14,x6,x17
    ebd4:	01c76733          	or	x14,x14,x28
    ebd8:	01076733          	or	x14,x14,x16
    ebdc:	00173713          	sltiu	x14,x14,1
    ebe0:	06051c63          	bne	x10,x0,ec58 <__getf2+0x114>
    ebe4:	01eee5b3          	or	x11,x29,x30
    ebe8:	01f5e5b3          	or	x11,x11,x31
    ebec:	0055e5b3          	or	x11,x11,x5
    ebf0:	00070c63          	beq	x14,x0,ec08 <__getf2+0xc4>
    ebf4:	02058063          	beq	x11,x0,ec14 <__getf2+0xd0>
    ebf8:	00100513          	addi	x10,x0,1
    ebfc:	00069c63          	bne	x13,x0,ec14 <__getf2+0xd0>
    ec00:	fff00513          	addi	x10,x0,-1
    ec04:	0100006f          	jal	x0,ec14 <__getf2+0xd0>
    ec08:	04059a63          	bne	x11,x0,ec5c <__getf2+0x118>
    ec0c:	fff00513          	addi	x10,x0,-1
    ec10:	04078e63          	beq	x15,x0,ec6c <__getf2+0x128>
    ec14:	01010113          	addi	x2,x2,16
    ec18:	00008067          	jalr	x0,0(x1)
    ec1c:	fca64ee3          	blt	x12,x10,ebf8 <__getf2+0xb4>
    ec20:	ff02e6e3          	bltu	x5,x16,ec0c <__getf2+0xc8>
    ec24:	02581063          	bne	x16,x5,ec44 <__getf2+0x100>
    ec28:	ffcfe2e3          	bltu	x31,x28,ec0c <__getf2+0xc8>
    ec2c:	01fe1c63          	bne	x28,x31,ec44 <__getf2+0x100>
    ec30:	fc6f6ee3          	bltu	x30,x6,ec0c <__getf2+0xc8>
    ec34:	01e31863          	bne	x6,x30,ec44 <__getf2+0x100>
    ec38:	fd1eeae3          	bltu	x29,x17,ec0c <__getf2+0xc8>
    ec3c:	00000513          	addi	x10,x0,0
    ec40:	fdd8fae3          	bgeu	x17,x29,ec14 <__getf2+0xd0>
    ec44:	00100513          	addi	x10,x0,1
    ec48:	fc0796e3          	bne	x15,x0,ec14 <__getf2+0xd0>
    ec4c:	fb5ff06f          	jal	x0,ec00 <__getf2+0xbc>
    ec50:	ffe00513          	addi	x10,x0,-2
    ec54:	fc1ff06f          	jal	x0,ec14 <__getf2+0xd0>
    ec58:	fa0710e3          	bne	x14,x0,ebf8 <__getf2+0xb4>
    ec5c:	faf698e3          	bne	x13,x15,ec0c <__getf2+0xc8>
    ec60:	fac55ee3          	bge	x10,x12,ec1c <__getf2+0xd8>
    ec64:	fff00513          	addi	x10,x0,-1
    ec68:	fa0696e3          	bne	x13,x0,ec14 <__getf2+0xd0>
    ec6c:	00100513          	addi	x10,x0,1
    ec70:	fa5ff06f          	jal	x0,ec14 <__getf2+0xd0>

0000ec74 <__letf2>:
    ec74:	00c52783          	lw	x15,12(x10)
    ec78:	00c5a683          	lw	x13,12(x11)
    ec7c:	00008737          	lui	x14,0x8
    ec80:	0107d613          	srli	x12,x15,0x10
    ec84:	fff70713          	addi	x14,x14,-1 # 7fff <__gdtoa+0x74b>
    ec88:	01079813          	slli	x16,x15,0x10
    ec8c:	01069293          	slli	x5,x13,0x10
    ec90:	00052883          	lw	x17,0(x10)
    ec94:	00452303          	lw	x6,4(x10)
    ec98:	00852e03          	lw	x28,8(x10)
    ec9c:	00e67633          	and	x12,x12,x14
    eca0:	0106d513          	srli	x10,x13,0x10
    eca4:	0005ae83          	lw	x29,0(x11)
    eca8:	0045af03          	lw	x30,4(x11)
    ecac:	0085af83          	lw	x31,8(x11)
    ecb0:	ff010113          	addi	x2,x2,-16
    ecb4:	01085813          	srli	x16,x16,0x10
    ecb8:	01f7d793          	srli	x15,x15,0x1f
    ecbc:	0102d293          	srli	x5,x5,0x10
    ecc0:	00e57533          	and	x10,x10,x14
    ecc4:	01f6d693          	srli	x13,x13,0x1f
    ecc8:	00e61a63          	bne	x12,x14,ecdc <__letf2+0x68>
    eccc:	01136733          	or	x14,x6,x17
    ecd0:	01c76733          	or	x14,x14,x28
    ecd4:	01076733          	or	x14,x14,x16
    ecd8:	0a071463          	bne	x14,x0,ed80 <__letf2+0x10c>
    ecdc:	00008737          	lui	x14,0x8
    ece0:	fff70713          	addi	x14,x14,-1 # 7fff <__gdtoa+0x74b>
    ece4:	00e51a63          	bne	x10,x14,ecf8 <__letf2+0x84>
    ece8:	01eee733          	or	x14,x29,x30
    ecec:	01f76733          	or	x14,x14,x31
    ecf0:	00576733          	or	x14,x14,x5
    ecf4:	08071663          	bne	x14,x0,ed80 <__letf2+0x10c>
    ecf8:	00000713          	addi	x14,x0,0
    ecfc:	00061a63          	bne	x12,x0,ed10 <__letf2+0x9c>
    ed00:	01136733          	or	x14,x6,x17
    ed04:	01c76733          	or	x14,x14,x28
    ed08:	01076733          	or	x14,x14,x16
    ed0c:	00173713          	sltiu	x14,x14,1
    ed10:	06051c63          	bne	x10,x0,ed88 <__letf2+0x114>
    ed14:	01eee5b3          	or	x11,x29,x30
    ed18:	01f5e5b3          	or	x11,x11,x31
    ed1c:	0055e5b3          	or	x11,x11,x5
    ed20:	00070c63          	beq	x14,x0,ed38 <__letf2+0xc4>
    ed24:	02058063          	beq	x11,x0,ed44 <__letf2+0xd0>
    ed28:	00100513          	addi	x10,x0,1
    ed2c:	00069c63          	bne	x13,x0,ed44 <__letf2+0xd0>
    ed30:	fff00513          	addi	x10,x0,-1
    ed34:	0100006f          	jal	x0,ed44 <__letf2+0xd0>
    ed38:	04059a63          	bne	x11,x0,ed8c <__letf2+0x118>
    ed3c:	fff00513          	addi	x10,x0,-1
    ed40:	04078e63          	beq	x15,x0,ed9c <__letf2+0x128>
    ed44:	01010113          	addi	x2,x2,16
    ed48:	00008067          	jalr	x0,0(x1)
    ed4c:	fca64ee3          	blt	x12,x10,ed28 <__letf2+0xb4>
    ed50:	ff02e6e3          	bltu	x5,x16,ed3c <__letf2+0xc8>
    ed54:	02581063          	bne	x16,x5,ed74 <__letf2+0x100>
    ed58:	ffcfe2e3          	bltu	x31,x28,ed3c <__letf2+0xc8>
    ed5c:	01fe1c63          	bne	x28,x31,ed74 <__letf2+0x100>
    ed60:	fc6f6ee3          	bltu	x30,x6,ed3c <__letf2+0xc8>
    ed64:	01e31863          	bne	x6,x30,ed74 <__letf2+0x100>
    ed68:	fd1eeae3          	bltu	x29,x17,ed3c <__letf2+0xc8>
    ed6c:	00000513          	addi	x10,x0,0
    ed70:	fdd8fae3          	bgeu	x17,x29,ed44 <__letf2+0xd0>
    ed74:	00100513          	addi	x10,x0,1
    ed78:	fc0796e3          	bne	x15,x0,ed44 <__letf2+0xd0>
    ed7c:	fb5ff06f          	jal	x0,ed30 <__letf2+0xbc>
    ed80:	00200513          	addi	x10,x0,2
    ed84:	fc1ff06f          	jal	x0,ed44 <__letf2+0xd0>
    ed88:	fa0710e3          	bne	x14,x0,ed28 <__letf2+0xb4>
    ed8c:	faf698e3          	bne	x13,x15,ed3c <__letf2+0xc8>
    ed90:	fac55ee3          	bge	x10,x12,ed4c <__letf2+0xd8>
    ed94:	fff00513          	addi	x10,x0,-1
    ed98:	fa0696e3          	bne	x13,x0,ed44 <__letf2+0xd0>
    ed9c:	00100513          	addi	x10,x0,1
    eda0:	fa5ff06f          	jal	x0,ed44 <__letf2+0xd0>

0000eda4 <__multf3>:
    eda4:	00c5a883          	lw	x17,12(x11)
    eda8:	f6010113          	addi	x2,x2,-160
    edac:	0005a703          	lw	x14,0(x11)
    edb0:	0085a683          	lw	x13,8(x11)
    edb4:	08812c23          	sw	x8,152(x2)
    edb8:	00050413          	addi	x8,x10,0
    edbc:	0045a503          	lw	x10,4(x11)
    edc0:	09212823          	sw	x18,144(x2)
    edc4:	09412423          	sw	x20,136(x2)
    edc8:	00c62903          	lw	x18,12(x12)
    edcc:	00062a03          	lw	x20,0(x12)
    edd0:	09512223          	sw	x21,132(x2)
    edd4:	09612023          	sw	x22,128(x2)
    edd8:	00862a83          	lw	x21,8(x12)
    eddc:	00462b03          	lw	x22,4(x12)
    ede0:	01089793          	slli	x15,x17,0x10
    ede4:	00008637          	lui	x12,0x8
    ede8:	09312623          	sw	x19,140(x2)
    edec:	0107d793          	srli	x15,x15,0x10
    edf0:	0108d993          	srli	x19,x17,0x10
    edf4:	fff60613          	addi	x12,x12,-1 # 7fff <__gdtoa+0x74b>
    edf8:	08912a23          	sw	x9,148(x2)
    edfc:	08112e23          	sw	x1,156(x2)
    ee00:	07712e23          	sw	x23,124(x2)
    ee04:	07812c23          	sw	x24,120(x2)
    ee08:	07912a23          	sw	x25,116(x2)
    ee0c:	07a12823          	sw	x26,112(x2)
    ee10:	07b12623          	sw	x27,108(x2)
    ee14:	04e12023          	sw	x14,64(x2)
    ee18:	04a12223          	sw	x10,68(x2)
    ee1c:	04d12423          	sw	x13,72(x2)
    ee20:	05112623          	sw	x17,76(x2)
    ee24:	00e12823          	sw	x14,16(x2)
    ee28:	00a12a23          	sw	x10,20(x2)
    ee2c:	00d12c23          	sw	x13,24(x2)
    ee30:	00f12e23          	sw	x15,28(x2)
    ee34:	00c9f9b3          	and	x19,x19,x12
    ee38:	01f8d493          	srli	x9,x17,0x1f
    ee3c:	440984e3          	beq	x19,x0,fa84 <__multf3+0xce0>
    ee40:	56c98ce3          	beq	x19,x12,fbb8 <__multf3+0xe14>
    ee44:	000106b7          	lui	x13,0x10
    ee48:	00d7e7b3          	or	x15,x15,x13
    ee4c:	00f12e23          	sw	x15,28(x2)
    ee50:	01010593          	addi	x11,x2,16
    ee54:	01c10793          	addi	x15,x2,28
    ee58:	0007a683          	lw	x13,0(x15)
    ee5c:	ffc7a603          	lw	x12,-4(x15)
    ee60:	ffc78793          	addi	x15,x15,-4
    ee64:	00369693          	slli	x13,x13,0x3
    ee68:	01d65613          	srli	x12,x12,0x1d
    ee6c:	00c6e6b3          	or	x13,x13,x12
    ee70:	00d7a223          	sw	x13,4(x15)
    ee74:	fef592e3          	bne	x11,x15,ee58 <__multf3+0xb4>
    ee78:	ffffc7b7          	lui	x15,0xffffc
    ee7c:	00371713          	slli	x14,x14,0x3
    ee80:	00178793          	addi	x15,x15,1 # ffffc001 <__heap_end+0xffbfc001>
    ee84:	00e12823          	sw	x14,16(x2)
    ee88:	00f989b3          	add	x19,x19,x15
    ee8c:	00000b93          	addi	x23,x0,0
    ee90:	01091513          	slli	x10,x18,0x10
    ee94:	000087b7          	lui	x15,0x8
    ee98:	01095813          	srli	x16,x18,0x10
    ee9c:	01055513          	srli	x10,x10,0x10
    eea0:	fff78793          	addi	x15,x15,-1 # 7fff <__gdtoa+0x74b>
    eea4:	05212623          	sw	x18,76(x2)
    eea8:	05412023          	sw	x20,64(x2)
    eeac:	05612223          	sw	x22,68(x2)
    eeb0:	05512423          	sw	x21,72(x2)
    eeb4:	03412023          	sw	x20,32(x2)
    eeb8:	03612223          	sw	x22,36(x2)
    eebc:	03512423          	sw	x21,40(x2)
    eec0:	02a12623          	sw	x10,44(x2)
    eec4:	00f87833          	and	x16,x16,x15
    eec8:	01f95913          	srli	x18,x18,0x1f
    eecc:	50080ae3          	beq	x16,x0,fbe0 <__multf3+0xe3c>
    eed0:	64f802e3          	beq	x16,x15,fd14 <__multf3+0xf70>
    eed4:	000107b7          	lui	x15,0x10
    eed8:	00f56533          	or	x10,x10,x15
    eedc:	02a12623          	sw	x10,44(x2)
    eee0:	02010613          	addi	x12,x2,32
    eee4:	02c10793          	addi	x15,x2,44
    eee8:	0007a703          	lw	x14,0(x15) # 10000 <__multf3+0x125c>
    eeec:	ffc7a683          	lw	x13,-4(x15)
    eef0:	ffc78793          	addi	x15,x15,-4
    eef4:	00371713          	slli	x14,x14,0x3
    eef8:	01d6d693          	srli	x13,x13,0x1d
    eefc:	00d76733          	or	x14,x14,x13
    ef00:	00e7a223          	sw	x14,4(x15)
    ef04:	fef612e3          	bne	x12,x15,eee8 <__multf3+0x144>
    ef08:	003a1793          	slli	x15,x20,0x3
    ef0c:	02f12023          	sw	x15,32(x2)
    ef10:	ffffc7b7          	lui	x15,0xffffc
    ef14:	00178793          	addi	x15,x15,1 # ffffc001 <__heap_end+0xffbfc001>
    ef18:	00f80833          	add	x16,x16,x15
    ef1c:	00000693          	addi	x13,x0,0
    ef20:	002b9793          	slli	x15,x23,0x2
    ef24:	01380833          	add	x16,x16,x19
    ef28:	00d7e7b3          	or	x15,x15,x13
    ef2c:	00a00713          	addi	x14,x0,10
    ef30:	00180c13          	addi	x24,x16,1
    ef34:	64f744e3          	blt	x14,x15,fd7c <__multf3+0xfd8>
    ef38:	00200713          	addi	x14,x0,2
    ef3c:	0124c8b3          	xor	x17,x9,x18
    ef40:	5ef74ee3          	blt	x14,x15,fd3c <__multf3+0xf98>
    ef44:	fff78793          	addi	x15,x15,-1
    ef48:	00100713          	addi	x14,x0,1
    ef4c:	64f774e3          	bgeu	x14,x15,fd94 <__multf3+0xff0>
    ef50:	01012e83          	lw	x29,16(x2)
    ef54:	02012e03          	lw	x28,32(x2)
    ef58:	000102b7          	lui	x5,0x10
    ef5c:	fff28793          	addi	x15,x5,-1 # ffff <__multf3+0x125b>
    ef60:	00fef333          	and	x6,x29,x15
    ef64:	00fe77b3          	and	x15,x28,x15
    ef68:	010ed393          	srli	x7,x29,0x10
    ef6c:	010e5713          	srli	x14,x28,0x10
    ef70:	00030513          	addi	x10,x6,0
    ef74:	00078593          	addi	x11,x15,0
    ef78:	3a1020ef          	jal	x1,11b18 <__mulsi3>
    ef7c:	00050f93          	addi	x31,x10,0
    ef80:	00070593          	addi	x11,x14,0
    ef84:	00030513          	addi	x10,x6,0
    ef88:	391020ef          	jal	x1,11b18 <__mulsi3>
    ef8c:	00050313          	addi	x6,x10,0
    ef90:	00078593          	addi	x11,x15,0
    ef94:	00038513          	addi	x10,x7,0
    ef98:	381020ef          	jal	x1,11b18 <__mulsi3>
    ef9c:	00050f13          	addi	x30,x10,0
    efa0:	00070593          	addi	x11,x14,0
    efa4:	00038513          	addi	x10,x7,0
    efa8:	371020ef          	jal	x1,11b18 <__mulsi3>
    efac:	010fd713          	srli	x14,x31,0x10
    efb0:	01e30333          	add	x6,x6,x30
    efb4:	00670733          	add	x14,x14,x6
    efb8:	00050793          	addi	x15,x10,0
    efbc:	01e77463          	bgeu	x14,x30,efc4 <__multf3+0x220>
    efc0:	005507b3          	add	x15,x10,x5
    efc4:	01075693          	srli	x13,x14,0x10
    efc8:	00f687b3          	add	x15,x13,x15
    efcc:	000102b7          	lui	x5,0x10
    efd0:	04f12223          	sw	x15,68(x2)
    efd4:	fff28793          	addi	x15,x5,-1 # ffff <__multf3+0x125b>
    efd8:	00fff533          	and	x10,x31,x15
    efdc:	02412f83          	lw	x31,36(x2)
    efe0:	00f77733          	and	x14,x14,x15
    efe4:	01071713          	slli	x14,x14,0x10
    efe8:	00a70533          	add	x10,x14,x10
    efec:	00ffff33          	and	x30,x31,x15
    eff0:	00fef733          	and	x14,x29,x15
    eff4:	04a12023          	sw	x10,64(x2)
    eff8:	010ed313          	srli	x6,x29,0x10
    effc:	010fd493          	srli	x9,x31,0x10
    f000:	00070513          	addi	x10,x14,0
    f004:	000f0593          	addi	x11,x30,0
    f008:	311020ef          	jal	x1,11b18 <__mulsi3>
    f00c:	00050393          	addi	x7,x10,0
    f010:	00048593          	addi	x11,x9,0
    f014:	00070513          	addi	x10,x14,0
    f018:	301020ef          	jal	x1,11b18 <__mulsi3>
    f01c:	00050713          	addi	x14,x10,0
    f020:	000f0593          	addi	x11,x30,0
    f024:	00030513          	addi	x10,x6,0
    f028:	2f1020ef          	jal	x1,11b18 <__mulsi3>
    f02c:	00050f13          	addi	x30,x10,0
    f030:	00048593          	addi	x11,x9,0
    f034:	00030513          	addi	x10,x6,0
    f038:	2e1020ef          	jal	x1,11b18 <__mulsi3>
    f03c:	0103d313          	srli	x6,x7,0x10
    f040:	01e70733          	add	x14,x14,x30
    f044:	00e30333          	add	x6,x6,x14
    f048:	00050b13          	addi	x22,x10,0
    f04c:	01e37463          	bgeu	x6,x30,f054 <__multf3+0x2b0>
    f050:	00550b33          	add	x22,x10,x5
    f054:	01412283          	lw	x5,20(x2)
    f058:	01035493          	srli	x9,x6,0x10
    f05c:	00f37333          	and	x6,x6,x15
    f060:	00f3f533          	and	x10,x7,x15
    f064:	00f2ff33          	and	x30,x5,x15
    f068:	01031313          	slli	x6,x6,0x10
    f06c:	00fe77b3          	and	x15,x28,x15
    f070:	00a30333          	add	x6,x6,x10
    f074:	0102d993          	srli	x19,x5,0x10
    f078:	010e5713          	srli	x14,x28,0x10
    f07c:	000f0513          	addi	x10,x30,0
    f080:	00078593          	addi	x11,x15,0
    f084:	295020ef          	jal	x1,11b18 <__mulsi3>
    f088:	00050393          	addi	x7,x10,0
    f08c:	00070593          	addi	x11,x14,0
    f090:	000f0513          	addi	x10,x30,0
    f094:	285020ef          	jal	x1,11b18 <__mulsi3>
    f098:	00050f13          	addi	x30,x10,0
    f09c:	00078593          	addi	x11,x15,0
    f0a0:	00098513          	addi	x10,x19,0
    f0a4:	275020ef          	jal	x1,11b18 <__mulsi3>
    f0a8:	00050913          	addi	x18,x10,0
    f0ac:	00070593          	addi	x11,x14,0
    f0b0:	00098513          	addi	x10,x19,0
    f0b4:	265020ef          	jal	x1,11b18 <__mulsi3>
    f0b8:	0103d793          	srli	x15,x7,0x10
    f0bc:	012f0f33          	add	x30,x30,x18
    f0c0:	01e787b3          	add	x15,x15,x30
    f0c4:	00050713          	addi	x14,x10,0
    f0c8:	0127f663          	bgeu	x15,x18,f0d4 <__multf3+0x330>
    f0cc:	000106b7          	lui	x13,0x10
    f0d0:	00d50733          	add	x14,x10,x13
    f0d4:	000109b7          	lui	x19,0x10
    f0d8:	fff98593          	addi	x11,x19,-1 # ffff <__multf3+0x125b>
    f0dc:	0107d913          	srli	x18,x15,0x10
    f0e0:	00b7f7b3          	and	x15,x15,x11
    f0e4:	00b3f3b3          	and	x7,x7,x11
    f0e8:	00b2fab3          	and	x21,x5,x11
    f0ec:	00bffa33          	and	x20,x31,x11
    f0f0:	01079793          	slli	x15,x15,0x10
    f0f4:	00e90933          	add	x18,x18,x14
    f0f8:	007787b3          	add	x15,x15,x7
    f0fc:	010fd713          	srli	x14,x31,0x10
    f100:	0102d393          	srli	x7,x5,0x10
    f104:	000a8513          	addi	x10,x21,0
    f108:	000a0593          	addi	x11,x20,0
    f10c:	20d020ef          	jal	x1,11b18 <__mulsi3>
    f110:	00050f13          	addi	x30,x10,0
    f114:	00070593          	addi	x11,x14,0
    f118:	000a8513          	addi	x10,x21,0
    f11c:	1fd020ef          	jal	x1,11b18 <__mulsi3>
    f120:	00050a93          	addi	x21,x10,0
    f124:	000a0593          	addi	x11,x20,0
    f128:	00038513          	addi	x10,x7,0
    f12c:	1ed020ef          	jal	x1,11b18 <__mulsi3>
    f130:	00050a13          	addi	x20,x10,0
    f134:	00070593          	addi	x11,x14,0
    f138:	00038513          	addi	x10,x7,0
    f13c:	1dd020ef          	jal	x1,11b18 <__mulsi3>
    f140:	010f5713          	srli	x14,x30,0x10
    f144:	014a8633          	add	x12,x21,x20
    f148:	00c70733          	add	x14,x14,x12
    f14c:	00050693          	addi	x13,x10,0
    f150:	01477463          	bgeu	x14,x20,f158 <__multf3+0x3b4>
    f154:	013506b3          	add	x13,x10,x19
    f158:	02812983          	lw	x19,40(x2)
    f15c:	00010a37          	lui	x20,0x10
    f160:	fffa0593          	addi	x11,x20,-1 # ffff <__multf3+0x125b>
    f164:	01075393          	srli	x7,x14,0x10
    f168:	00b77733          	and	x14,x14,x11
    f16c:	00bf7f33          	and	x30,x30,x11
    f170:	00befbb3          	and	x23,x29,x11
    f174:	00b9fab3          	and	x21,x19,x11
    f178:	01071713          	slli	x14,x14,0x10
    f17c:	00d383b3          	add	x7,x7,x13
    f180:	01e70733          	add	x14,x14,x30
    f184:	010edd13          	srli	x26,x29,0x10
    f188:	0109dc93          	srli	x25,x19,0x10
    f18c:	000b8513          	addi	x10,x23,0
    f190:	000a8593          	addi	x11,x21,0
    f194:	185020ef          	jal	x1,11b18 <__mulsi3>
    f198:	00050f13          	addi	x30,x10,0
    f19c:	000c8593          	addi	x11,x25,0
    f1a0:	000b8513          	addi	x10,x23,0
    f1a4:	175020ef          	jal	x1,11b18 <__mulsi3>
    f1a8:	00050b93          	addi	x23,x10,0
    f1ac:	000a8593          	addi	x11,x21,0
    f1b0:	000d0513          	addi	x10,x26,0
    f1b4:	165020ef          	jal	x1,11b18 <__mulsi3>
    f1b8:	00050a93          	addi	x21,x10,0
    f1bc:	000c8593          	addi	x11,x25,0
    f1c0:	000d0513          	addi	x10,x26,0
    f1c4:	155020ef          	jal	x1,11b18 <__mulsi3>
    f1c8:	010f5693          	srli	x13,x30,0x10
    f1cc:	015b8633          	add	x12,x23,x21
    f1d0:	00c686b3          	add	x13,x13,x12
    f1d4:	0156f463          	bgeu	x13,x21,f1dc <__multf3+0x438>
    f1d8:	01450533          	add	x10,x10,x20
    f1dc:	00010d37          	lui	x26,0x10
    f1e0:	fffd0a13          	addi	x20,x26,-1 # ffff <__multf3+0x125b>
    f1e4:	0106d613          	srli	x12,x13,0x10
    f1e8:	0146f6b3          	and	x13,x13,x20
    f1ec:	014f7f33          	and	x30,x30,x20
    f1f0:	01069693          	slli	x13,x13,0x10
    f1f4:	01e686b3          	add	x13,x13,x30
    f1f8:	01812f03          	lw	x30,24(x2)
    f1fc:	00a60db3          	add	x27,x12,x10
    f200:	00d12623          	sw	x13,12(x2)
    f204:	014f7bb3          	and	x23,x30,x20
    f208:	014e7a33          	and	x20,x28,x20
    f20c:	010e5c93          	srli	x25,x28,0x10
    f210:	000b8513          	addi	x10,x23,0
    f214:	000a0593          	addi	x11,x20,0
    f218:	101020ef          	jal	x1,11b18 <__mulsi3>
    f21c:	00050a93          	addi	x21,x10,0
    f220:	000c8593          	addi	x11,x25,0
    f224:	000b8513          	addi	x10,x23,0
    f228:	0f1020ef          	jal	x1,11b18 <__mulsi3>
    f22c:	00050b93          	addi	x23,x10,0
    f230:	000a0593          	addi	x11,x20,0
    f234:	010f5513          	srli	x10,x30,0x10
    f238:	0e1020ef          	jal	x1,11b18 <__mulsi3>
    f23c:	00050a13          	addi	x20,x10,0
    f240:	000c8593          	addi	x11,x25,0
    f244:	010f5513          	srli	x10,x30,0x10
    f248:	0d1020ef          	jal	x1,11b18 <__mulsi3>
    f24c:	010ad693          	srli	x13,x21,0x10
    f250:	014b8bb3          	add	x23,x23,x20
    f254:	01768bb3          	add	x23,x13,x23
    f258:	014bf463          	bgeu	x23,x20,f260 <__multf3+0x4bc>
    f25c:	01a50533          	add	x10,x10,x26
    f260:	04412603          	lw	x12,68(x2)
    f264:	010bd693          	srli	x13,x23,0x10
    f268:	00a68533          	add	x10,x13,x10
    f26c:	00660333          	add	x6,x12,x6
    f270:	00c33633          	sltu	x12,x6,x12
    f274:	00c484b3          	add	x9,x9,x12
    f278:	016484b3          	add	x9,x9,x22
    f27c:	00f307b3          	add	x15,x6,x15
    f280:	01248933          	add	x18,x9,x18
    f284:	04f12223          	sw	x15,68(x2)
    f288:	0067b7b3          	sltu	x15,x15,x6
    f28c:	00f907b3          	add	x15,x18,x15
    f290:	009936b3          	sltu	x13,x18,x9
    f294:	0127b933          	sltu	x18,x15,x18
    f298:	00c4b4b3          	sltu	x9,x9,x12
    f29c:	00010a37          	lui	x20,0x10
    f2a0:	00c12603          	lw	x12,12(x2)
    f2a4:	0126e6b3          	or	x13,x13,x18
    f2a8:	fffa0593          	addi	x11,x20,-1 # ffff <__multf3+0x125b>
    f2ac:	009686b3          	add	x13,x13,x9
    f2b0:	00e78733          	add	x14,x15,x14
    f2b4:	007683b3          	add	x7,x13,x7
    f2b8:	00bbfbb3          	and	x23,x23,x11
    f2bc:	00f737b3          	sltu	x15,x14,x15
    f2c0:	00c70333          	add	x6,x14,x12
    f2c4:	00f387b3          	add	x15,x7,x15
    f2c8:	010b9b93          	slli	x23,x23,0x10
    f2cc:	00bafab3          	and	x21,x21,x11
    f2d0:	01b78633          	add	x12,x15,x27
    f2d4:	015b8ab3          	add	x21,x23,x21
    f2d8:	00e33733          	sltu	x14,x6,x14
    f2dc:	00e60733          	add	x14,x12,x14
    f2e0:	01530ab3          	add	x21,x6,x21
    f2e4:	00a70533          	add	x10,x14,x10
    f2e8:	05512423          	sw	x21,72(x2)
    f2ec:	006abab3          	sltu	x21,x21,x6
    f2f0:	01550ab3          	add	x21,x10,x21
    f2f4:	02c12303          	lw	x6,44(x2)
    f2f8:	00d3b6b3          	sltu	x13,x7,x13
    f2fc:	0077b3b3          	sltu	x7,x15,x7
    f300:	00f637b3          	sltu	x15,x12,x15
    f304:	00c73633          	sltu	x12,x14,x12
    f308:	00c7e7b3          	or	x15,x15,x12
    f30c:	0076e6b3          	or	x13,x13,x7
    f310:	05512623          	sw	x21,76(x2)
    f314:	00e53733          	sltu	x14,x10,x14
    f318:	00aabab3          	sltu	x21,x21,x10
    f31c:	00f686b3          	add	x13,x13,x15
    f320:	01576733          	or	x14,x14,x21
    f324:	00d70733          	add	x14,x14,x13
    f328:	010ed493          	srli	x9,x29,0x10
    f32c:	00b377b3          	and	x15,x6,x11
    f330:	00befeb3          	and	x29,x29,x11
    f334:	04e12823          	sw	x14,80(x2)
    f338:	000e8513          	addi	x10,x29,0
    f33c:	01035713          	srli	x14,x6,0x10
    f340:	00078593          	addi	x11,x15,0
    f344:	7d4020ef          	jal	x1,11b18 <__mulsi3>
    f348:	00050913          	addi	x18,x10,0
    f34c:	00070593          	addi	x11,x14,0
    f350:	000e8513          	addi	x10,x29,0
    f354:	7c4020ef          	jal	x1,11b18 <__mulsi3>
    f358:	00050e93          	addi	x29,x10,0
    f35c:	00078593          	addi	x11,x15,0
    f360:	00048513          	addi	x10,x9,0
    f364:	7b4020ef          	jal	x1,11b18 <__mulsi3>
    f368:	00050393          	addi	x7,x10,0
    f36c:	00070593          	addi	x11,x14,0
    f370:	00048513          	addi	x10,x9,0
    f374:	7a4020ef          	jal	x1,11b18 <__mulsi3>
    f378:	01095713          	srli	x14,x18,0x10
    f37c:	007e8eb3          	add	x29,x29,x7
    f380:	01d70733          	add	x14,x14,x29
    f384:	00050793          	addi	x15,x10,0
    f388:	00777463          	bgeu	x14,x7,f390 <__multf3+0x5ec>
    f38c:	014507b3          	add	x15,x10,x20
    f390:	01075393          	srli	x7,x14,0x10
    f394:	000104b7          	lui	x9,0x10
    f398:	01c12e83          	lw	x29,28(x2)
    f39c:	00f383b3          	add	x7,x7,x15
    f3a0:	fff48793          	addi	x15,x9,-1 # ffff <__multf3+0x125b>
    f3a4:	00f77733          	and	x14,x14,x15
    f3a8:	00f97933          	and	x18,x18,x15
    f3ac:	01071713          	slli	x14,x14,0x10
    f3b0:	01270733          	add	x14,x14,x18
    f3b4:	00fefb33          	and	x22,x29,x15
    f3b8:	010e5913          	srli	x18,x28,0x10
    f3bc:	00fe7e33          	and	x28,x28,x15
    f3c0:	010eda93          	srli	x21,x29,0x10
    f3c4:	000b0513          	addi	x10,x22,0
    f3c8:	000e0593          	addi	x11,x28,0
    f3cc:	74c020ef          	jal	x1,11b18 <__mulsi3>
    f3d0:	00050a13          	addi	x20,x10,0
    f3d4:	00090593          	addi	x11,x18,0
    f3d8:	000b0513          	addi	x10,x22,0
    f3dc:	73c020ef          	jal	x1,11b18 <__mulsi3>
    f3e0:	00050793          	addi	x15,x10,0
    f3e4:	000e0593          	addi	x11,x28,0
    f3e8:	000a8513          	addi	x10,x21,0
    f3ec:	72c020ef          	jal	x1,11b18 <__mulsi3>
    f3f0:	00050e13          	addi	x28,x10,0
    f3f4:	00090593          	addi	x11,x18,0
    f3f8:	000a8513          	addi	x10,x21,0
    f3fc:	71c020ef          	jal	x1,11b18 <__mulsi3>
    f400:	01c787b3          	add	x15,x15,x28
    f404:	010a5693          	srli	x13,x20,0x10
    f408:	00d787b3          	add	x15,x15,x13
    f40c:	01c7f463          	bgeu	x15,x28,f414 <__multf3+0x670>
    f410:	00950533          	add	x10,x10,x9
    f414:	00010937          	lui	x18,0x10
    f418:	fff90693          	addi	x13,x18,-1 # ffff <__multf3+0x125b>
    f41c:	0107d493          	srli	x9,x15,0x10
    f420:	00d7f7b3          	and	x15,x15,x13
    f424:	00da7a33          	and	x20,x20,x13
    f428:	0102db13          	srli	x22,x5,0x10
    f42c:	0109da93          	srli	x21,x19,0x10
    f430:	00d2f2b3          	and	x5,x5,x13
    f434:	00d9f9b3          	and	x19,x19,x13
    f438:	01079793          	slli	x15,x15,0x10
    f43c:	00a484b3          	add	x9,x9,x10
    f440:	014787b3          	add	x15,x15,x20
    f444:	00028513          	addi	x10,x5,0
    f448:	00098593          	addi	x11,x19,0
    f44c:	6cc020ef          	jal	x1,11b18 <__mulsi3>
    f450:	00050e13          	addi	x28,x10,0
    f454:	000a8593          	addi	x11,x21,0
    f458:	00028513          	addi	x10,x5,0
    f45c:	6bc020ef          	jal	x1,11b18 <__mulsi3>
    f460:	00050a13          	addi	x20,x10,0
    f464:	00098593          	addi	x11,x19,0
    f468:	000b0513          	addi	x10,x22,0
    f46c:	6ac020ef          	jal	x1,11b18 <__mulsi3>
    f470:	00050993          	addi	x19,x10,0
    f474:	000a8593          	addi	x11,x21,0
    f478:	000b0513          	addi	x10,x22,0
    f47c:	69c020ef          	jal	x1,11b18 <__mulsi3>
    f480:	010e5293          	srli	x5,x28,0x10
    f484:	013a0a33          	add	x20,x20,x19
    f488:	014282b3          	add	x5,x5,x20
    f48c:	00050693          	addi	x13,x10,0
    f490:	0132f463          	bgeu	x5,x19,f498 <__multf3+0x6f4>
    f494:	012506b3          	add	x13,x10,x18
    f498:	0102d913          	srli	x18,x5,0x10
    f49c:	00010a37          	lui	x20,0x10
    f4a0:	00d90933          	add	x18,x18,x13
    f4a4:	fffa0693          	addi	x13,x20,-1 # ffff <__multf3+0x125b>
    f4a8:	00d2f2b3          	and	x5,x5,x13
    f4ac:	00de7e33          	and	x28,x28,x13
    f4b0:	010fdb13          	srli	x22,x31,0x10
    f4b4:	00df7ab3          	and	x21,x30,x13
    f4b8:	00dfffb3          	and	x31,x31,x13
    f4bc:	01029293          	slli	x5,x5,0x10
    f4c0:	01c282b3          	add	x5,x5,x28
    f4c4:	000a8513          	addi	x10,x21,0
    f4c8:	010f5e13          	srli	x28,x30,0x10
    f4cc:	000f8593          	addi	x11,x31,0
    f4d0:	648020ef          	jal	x1,11b18 <__mulsi3>
    f4d4:	00050993          	addi	x19,x10,0
    f4d8:	000b0593          	addi	x11,x22,0
    f4dc:	000a8513          	addi	x10,x21,0
    f4e0:	638020ef          	jal	x1,11b18 <__mulsi3>
    f4e4:	00050a93          	addi	x21,x10,0
    f4e8:	000f8593          	addi	x11,x31,0
    f4ec:	000e0513          	addi	x10,x28,0
    f4f0:	628020ef          	jal	x1,11b18 <__mulsi3>
    f4f4:	00050f93          	addi	x31,x10,0
    f4f8:	000b0593          	addi	x11,x22,0
    f4fc:	000e0513          	addi	x10,x28,0
    f500:	618020ef          	jal	x1,11b18 <__mulsi3>
    f504:	0109d693          	srli	x13,x19,0x10
    f508:	01fa8633          	add	x12,x21,x31
    f50c:	00c686b3          	add	x13,x13,x12
    f510:	01f6f463          	bgeu	x13,x31,f518 <__multf3+0x774>
    f514:	01450533          	add	x10,x10,x20
    f518:	00010e37          	lui	x28,0x10
    f51c:	fffe0613          	addi	x12,x28,-1 # ffff <__multf3+0x125b>
    f520:	0106d593          	srli	x11,x13,0x10
    f524:	00c6f6b3          	and	x13,x13,x12
    f528:	00c9f9b3          	and	x19,x19,x12
    f52c:	01069693          	slli	x13,x13,0x10
    f530:	00a585b3          	add	x11,x11,x10
    f534:	01368533          	add	x10,x13,x19
    f538:	04c12683          	lw	x13,76(x2)
    f53c:	05012f83          	lw	x31,80(x2)
    f540:	02812983          	lw	x19,40(x2)
    f544:	00e68733          	add	x14,x13,x14
    f548:	007f83b3          	add	x7,x31,x7
    f54c:	00d736b3          	sltu	x13,x14,x13
    f550:	00d386b3          	add	x13,x7,x13
    f554:	00f707b3          	add	x15,x14,x15
    f558:	009684b3          	add	x9,x13,x9
    f55c:	00e7b733          	sltu	x14,x15,x14
    f560:	00e48733          	add	x14,x9,x14
    f564:	005782b3          	add	x5,x15,x5
    f568:	01f3bfb3          	sltu	x31,x7,x31
    f56c:	0076b3b3          	sltu	x7,x13,x7
    f570:	00d4b6b3          	sltu	x13,x9,x13
    f574:	009734b3          	sltu	x9,x14,x9
    f578:	0096e6b3          	or	x13,x13,x9
    f57c:	01270933          	add	x18,x14,x18
    f580:	007fefb3          	or	x31,x31,x7
    f584:	00f2b7b3          	sltu	x15,x5,x15
    f588:	00df8fb3          	add	x31,x31,x13
    f58c:	00f907b3          	add	x15,x18,x15
    f590:	00a286b3          	add	x13,x5,x10
    f594:	00b785b3          	add	x11,x15,x11
    f598:	04d12623          	sw	x13,76(x2)
    f59c:	0056b6b3          	sltu	x13,x13,x5
    f5a0:	00d586b3          	add	x13,x11,x13
    f5a4:	00e93733          	sltu	x14,x18,x14
    f5a8:	0127b933          	sltu	x18,x15,x18
    f5ac:	01276733          	or	x14,x14,x18
    f5b0:	04d12823          	sw	x13,80(x2)
    f5b4:	00f5b7b3          	sltu	x15,x11,x15
    f5b8:	00b6b6b3          	sltu	x13,x13,x11
    f5bc:	01f70733          	add	x14,x14,x31
    f5c0:	00d7e7b3          	or	x15,x15,x13
    f5c4:	00e787b3          	add	x15,x15,x14
    f5c8:	04f12a23          	sw	x15,84(x2)
    f5cc:	010f5393          	srli	x7,x30,0x10
    f5d0:	00c9f7b3          	and	x15,x19,x12
    f5d4:	00cf7f33          	and	x30,x30,x12
    f5d8:	0109d713          	srli	x14,x19,0x10
    f5dc:	000f0513          	addi	x10,x30,0
    f5e0:	00078593          	addi	x11,x15,0
    f5e4:	534020ef          	jal	x1,11b18 <__mulsi3>
    f5e8:	00050f93          	addi	x31,x10,0
    f5ec:	00070593          	addi	x11,x14,0
    f5f0:	000f0513          	addi	x10,x30,0
    f5f4:	524020ef          	jal	x1,11b18 <__mulsi3>
    f5f8:	00050f13          	addi	x30,x10,0
    f5fc:	00078593          	addi	x11,x15,0
    f600:	00038513          	addi	x10,x7,0
    f604:	514020ef          	jal	x1,11b18 <__mulsi3>
    f608:	00050293          	addi	x5,x10,0
    f60c:	00070593          	addi	x11,x14,0
    f610:	00038513          	addi	x10,x7,0
    f614:	504020ef          	jal	x1,11b18 <__mulsi3>
    f618:	010fd793          	srli	x15,x31,0x10
    f61c:	005f0f33          	add	x30,x30,x5
    f620:	01e787b3          	add	x15,x15,x30
    f624:	00050713          	addi	x14,x10,0
    f628:	0057f463          	bgeu	x15,x5,f630 <__multf3+0x88c>
    f62c:	01c50733          	add	x14,x10,x28
    f630:	01412f03          	lw	x30,20(x2)
    f634:	0107d913          	srli	x18,x15,0x10
    f638:	000103b7          	lui	x7,0x10
    f63c:	00e90933          	add	x18,x18,x14
    f640:	fff38713          	addi	x14,x7,-1 # ffff <__multf3+0x125b>
    f644:	00e7f7b3          	and	x15,x15,x14
    f648:	00efffb3          	and	x31,x31,x14
    f64c:	010f5493          	srli	x9,x30,0x10
    f650:	01079793          	slli	x15,x15,0x10
    f654:	00ef7f33          	and	x30,x30,x14
    f658:	00e37733          	and	x14,x6,x14
    f65c:	01f787b3          	add	x15,x15,x31
    f660:	01035293          	srli	x5,x6,0x10
    f664:	000f0513          	addi	x10,x30,0
    f668:	00070593          	addi	x11,x14,0
    f66c:	4ac020ef          	jal	x1,11b18 <__mulsi3>
    f670:	00050e13          	addi	x28,x10,0
    f674:	00028593          	addi	x11,x5,0
    f678:	000f0513          	addi	x10,x30,0
    f67c:	49c020ef          	jal	x1,11b18 <__mulsi3>
    f680:	00050f13          	addi	x30,x10,0
    f684:	00070593          	addi	x11,x14,0
    f688:	00048513          	addi	x10,x9,0
    f68c:	48c020ef          	jal	x1,11b18 <__mulsi3>
    f690:	00050f93          	addi	x31,x10,0
    f694:	00028593          	addi	x11,x5,0
    f698:	00048513          	addi	x10,x9,0
    f69c:	47c020ef          	jal	x1,11b18 <__mulsi3>
    f6a0:	010e5293          	srli	x5,x28,0x10
    f6a4:	01ff0f33          	add	x30,x30,x31
    f6a8:	01e282b3          	add	x5,x5,x30
    f6ac:	00050713          	addi	x14,x10,0
    f6b0:	01f2f463          	bgeu	x5,x31,f6b8 <__multf3+0x914>
    f6b4:	00750733          	add	x14,x10,x7
    f6b8:	0102d493          	srli	x9,x5,0x10
    f6bc:	00e484b3          	add	x9,x9,x14
    f6c0:	00010fb7          	lui	x31,0x10
    f6c4:	02412703          	lw	x14,36(x2)
    f6c8:	ffff8693          	addi	x13,x31,-1 # ffff <__multf3+0x125b>
    f6cc:	00d2f2b3          	and	x5,x5,x13
    f6d0:	00de7e33          	and	x28,x28,x13
    f6d4:	01075a93          	srli	x21,x14,0x10
    f6d8:	00deff33          	and	x30,x29,x13
    f6dc:	00d77733          	and	x14,x14,x13
    f6e0:	01029293          	slli	x5,x5,0x10
    f6e4:	01c282b3          	add	x5,x5,x28
    f6e8:	010eda13          	srli	x20,x29,0x10
    f6ec:	000f0513          	addi	x10,x30,0
    f6f0:	00070593          	addi	x11,x14,0
    f6f4:	424020ef          	jal	x1,11b18 <__mulsi3>
    f6f8:	00050e13          	addi	x28,x10,0
    f6fc:	000a8593          	addi	x11,x21,0
    f700:	000f0513          	addi	x10,x30,0
    f704:	414020ef          	jal	x1,11b18 <__mulsi3>
    f708:	00050f13          	addi	x30,x10,0
    f70c:	00070593          	addi	x11,x14,0
    f710:	000a0513          	addi	x10,x20,0
    f714:	404020ef          	jal	x1,11b18 <__mulsi3>
    f718:	00050393          	addi	x7,x10,0
    f71c:	000a8593          	addi	x11,x21,0
    f720:	000a0513          	addi	x10,x20,0
    f724:	3f4020ef          	jal	x1,11b18 <__mulsi3>
    f728:	010e5713          	srli	x14,x28,0x10
    f72c:	007f0f33          	add	x30,x30,x7
    f730:	01e70733          	add	x14,x14,x30
    f734:	00050693          	addi	x13,x10,0
    f738:	00777463          	bgeu	x14,x7,f740 <__multf3+0x99c>
    f73c:	01f506b3          	add	x13,x10,x31
    f740:	01812f03          	lw	x30,24(x2)
    f744:	01075393          	srli	x7,x14,0x10
    f748:	00010fb7          	lui	x31,0x10
    f74c:	00d383b3          	add	x7,x7,x13
    f750:	ffff8693          	addi	x13,x31,-1 # ffff <__multf3+0x125b>
    f754:	00d77733          	and	x14,x14,x13
    f758:	00de7e33          	and	x28,x28,x13
    f75c:	010f5b13          	srli	x22,x30,0x10
    f760:	01035a93          	srli	x21,x6,0x10
    f764:	00df7f33          	and	x30,x30,x13
    f768:	00d37333          	and	x6,x6,x13
    f76c:	01071713          	slli	x14,x14,0x10
    f770:	01c70733          	add	x14,x14,x28
    f774:	000f0513          	addi	x10,x30,0
    f778:	00030593          	addi	x11,x6,0
    f77c:	39c020ef          	jal	x1,11b18 <__mulsi3>
    f780:	00050e13          	addi	x28,x10,0
    f784:	000a8593          	addi	x11,x21,0
    f788:	000f0513          	addi	x10,x30,0
    f78c:	38c020ef          	jal	x1,11b18 <__mulsi3>
    f790:	00050a13          	addi	x20,x10,0
    f794:	00030593          	addi	x11,x6,0
    f798:	000b0513          	addi	x10,x22,0
    f79c:	37c020ef          	jal	x1,11b18 <__mulsi3>
    f7a0:	00050313          	addi	x6,x10,0
    f7a4:	000a8593          	addi	x11,x21,0
    f7a8:	000b0513          	addi	x10,x22,0
    f7ac:	36c020ef          	jal	x1,11b18 <__mulsi3>
    f7b0:	010e5f13          	srli	x30,x28,0x10
    f7b4:	006a0a33          	add	x20,x20,x6
    f7b8:	014f0f33          	add	x30,x30,x20
    f7bc:	00050693          	addi	x13,x10,0
    f7c0:	006f7463          	bgeu	x30,x6,f7c8 <__multf3+0xa24>
    f7c4:	01f506b3          	add	x13,x10,x31
    f7c8:	010f5f93          	srli	x31,x30,0x10
    f7cc:	00010337          	lui	x6,0x10
    f7d0:	00df8fb3          	add	x31,x31,x13
    f7d4:	fff30693          	addi	x13,x6,-1 # ffff <__multf3+0x125b>
    f7d8:	00df7f33          	and	x30,x30,x13
    f7dc:	00de7e33          	and	x28,x28,x13
    f7e0:	010edb13          	srli	x22,x29,0x10
    f7e4:	0109da93          	srli	x21,x19,0x10
    f7e8:	00defeb3          	and	x29,x29,x13
    f7ec:	00d9f9b3          	and	x19,x19,x13
    f7f0:	010f1f13          	slli	x30,x30,0x10
    f7f4:	01cf0f33          	add	x30,x30,x28
    f7f8:	000e8513          	addi	x10,x29,0
    f7fc:	00098593          	addi	x11,x19,0
    f800:	318020ef          	jal	x1,11b18 <__mulsi3>
    f804:	00050a13          	addi	x20,x10,0
    f808:	000a8593          	addi	x11,x21,0
    f80c:	000e8513          	addi	x10,x29,0
    f810:	308020ef          	jal	x1,11b18 <__mulsi3>
    f814:	00050e13          	addi	x28,x10,0
    f818:	00098593          	addi	x11,x19,0
    f81c:	000b0513          	addi	x10,x22,0
    f820:	2f8020ef          	jal	x1,11b18 <__mulsi3>
    f824:	00050e93          	addi	x29,x10,0
    f828:	000a8593          	addi	x11,x21,0
    f82c:	000b0513          	addi	x10,x22,0
    f830:	2e8020ef          	jal	x1,11b18 <__mulsi3>
    f834:	010a5693          	srli	x13,x20,0x10
    f838:	01de0e33          	add	x28,x28,x29
    f83c:	01c686b3          	add	x13,x13,x28
    f840:	00050613          	addi	x12,x10,0
    f844:	01d6f463          	bgeu	x13,x29,f84c <__multf3+0xaa8>
    f848:	00650633          	add	x12,x10,x6
    f84c:	00010e37          	lui	x28,0x10
    f850:	fffe0313          	addi	x6,x28,-1 # ffff <__multf3+0x125b>
    f854:	0106d593          	srli	x11,x13,0x10
    f858:	0066f6b3          	and	x13,x13,x6
    f85c:	01069693          	slli	x13,x13,0x10
    f860:	006a7a33          	and	x20,x20,x6
    f864:	00c585b3          	add	x11,x11,x12
    f868:	01468633          	add	x12,x13,x20
    f86c:	05012683          	lw	x13,80(x2)
    f870:	05412503          	lw	x10,84(x2)
    f874:	00f687b3          	add	x15,x13,x15
    f878:	01250933          	add	x18,x10,x18
    f87c:	00d7b6b3          	sltu	x13,x15,x13
    f880:	005782b3          	add	x5,x15,x5
    f884:	00d906b3          	add	x13,x18,x13
    f888:	009684b3          	add	x9,x13,x9
    f88c:	00f2b7b3          	sltu	x15,x5,x15
    f890:	00f487b3          	add	x15,x9,x15
    f894:	00e28733          	add	x14,x5,x14
    f898:	007783b3          	add	x7,x15,x7
    f89c:	04e12823          	sw	x14,80(x2)
    f8a0:	00573733          	sltu	x14,x14,x5
    f8a4:	00e38733          	add	x14,x7,x14
    f8a8:	00a93533          	sltu	x10,x18,x10
    f8ac:	0126b933          	sltu	x18,x13,x18
    f8b0:	00d4b6b3          	sltu	x13,x9,x13
    f8b4:	0097b4b3          	sltu	x9,x15,x9
    f8b8:	0096e6b3          	or	x13,x13,x9
    f8bc:	01256533          	or	x10,x10,x18
    f8c0:	00f3b7b3          	sltu	x15,x7,x15
    f8c4:	007733b3          	sltu	x7,x14,x7
    f8c8:	00d50533          	add	x10,x10,x13
    f8cc:	0077e7b3          	or	x15,x15,x7
    f8d0:	01e70f33          	add	x30,x14,x30
    f8d4:	00a787b3          	add	x15,x15,x10
    f8d8:	01f78fb3          	add	x31,x15,x31
    f8dc:	00ef3733          	sltu	x14,x30,x14
    f8e0:	00cf06b3          	add	x13,x30,x12
    f8e4:	00ef8733          	add	x14,x31,x14
    f8e8:	00b705b3          	add	x11,x14,x11
    f8ec:	04d12a23          	sw	x13,84(x2)
    f8f0:	01e6b6b3          	sltu	x13,x13,x30
    f8f4:	00d586b3          	add	x13,x11,x13
    f8f8:	04d12c23          	sw	x13,88(x2)
    f8fc:	00ffb7b3          	sltu	x15,x31,x15
    f900:	00b6b6b3          	sltu	x13,x13,x11
    f904:	01f73fb3          	sltu	x31,x14,x31
    f908:	00e5b733          	sltu	x14,x11,x14
    f90c:	00d76733          	or	x14,x14,x13
    f910:	01f7e7b3          	or	x15,x15,x31
    f914:	00e787b3          	add	x15,x15,x14
    f918:	04f12e23          	sw	x15,92(x2)
    f91c:	02c12703          	lw	x14,44(x2)
    f920:	01c12783          	lw	x15,28(x2)
    f924:	01075f13          	srli	x30,x14,0x10
    f928:	0107df93          	srli	x31,x15,0x10
    f92c:	00677733          	and	x14,x14,x6
    f930:	0067f7b3          	and	x15,x15,x6
    f934:	00078513          	addi	x10,x15,0
    f938:	00070593          	addi	x11,x14,0
    f93c:	1dc020ef          	jal	x1,11b18 <__mulsi3>
    f940:	00050e93          	addi	x29,x10,0
    f944:	000f0593          	addi	x11,x30,0
    f948:	00078513          	addi	x10,x15,0
    f94c:	1cc020ef          	jal	x1,11b18 <__mulsi3>
    f950:	00050793          	addi	x15,x10,0
    f954:	00070593          	addi	x11,x14,0
    f958:	000f8513          	addi	x10,x31,0
    f95c:	1bc020ef          	jal	x1,11b18 <__mulsi3>
    f960:	00050713          	addi	x14,x10,0
    f964:	000f0593          	addi	x11,x30,0
    f968:	000f8513          	addi	x10,x31,0
    f96c:	1ac020ef          	jal	x1,11b18 <__mulsi3>
    f970:	00e787b3          	add	x15,x15,x14
    f974:	010ed693          	srli	x13,x29,0x10
    f978:	00d787b3          	add	x15,x15,x13
    f97c:	00e7f463          	bgeu	x15,x14,f984 <__multf3+0xbe0>
    f980:	01c50533          	add	x10,x10,x28
    f984:	05812683          	lw	x13,88(x2)
    f988:	0067f733          	and	x14,x15,x6
    f98c:	05c12603          	lw	x12,92(x2)
    f990:	01071713          	slli	x14,x14,0x10
    f994:	006efeb3          	and	x29,x29,x6
    f998:	01d70733          	add	x14,x14,x29
    f99c:	00e68733          	add	x14,x13,x14
    f9a0:	0107d793          	srli	x15,x15,0x10
    f9a4:	00d736b3          	sltu	x13,x14,x13
    f9a8:	00c787b3          	add	x15,x15,x12
    f9ac:	00d787b3          	add	x15,x15,x13
    f9b0:	00a78533          	add	x10,x15,x10
    f9b4:	04e12c23          	sw	x14,88(x2)
    f9b8:	04012783          	lw	x15,64(x2)
    f9bc:	04412703          	lw	x14,68(x2)
    f9c0:	04a12e23          	sw	x10,92(x2)
    f9c4:	05010593          	addi	x11,x2,80
    f9c8:	00f76733          	or	x14,x14,x15
    f9cc:	04812783          	lw	x15,72(x2)
    f9d0:	00f76733          	or	x14,x14,x15
    f9d4:	04c12783          	lw	x15,76(x2)
    f9d8:	00d79793          	slli	x15,x15,0xd
    f9dc:	00e7e7b3          	or	x15,x15,x14
    f9e0:	04010713          	addi	x14,x2,64
    f9e4:	00c72683          	lw	x13,12(x14)
    f9e8:	01072603          	lw	x12,16(x14)
    f9ec:	00470713          	addi	x14,x14,4
    f9f0:	0136d693          	srli	x13,x13,0x13
    f9f4:	00d61613          	slli	x12,x12,0xd
    f9f8:	00c6e6b3          	or	x13,x13,x12
    f9fc:	fed72e23          	sw	x13,-4(x14)
    fa00:	fee592e3          	bne	x11,x14,f9e4 <__multf3+0xc40>
    fa04:	04012703          	lw	x14,64(x2)
    fa08:	00f037b3          	sltu	x15,x0,x15
    fa0c:	04c12683          	lw	x13,76(x2)
    fa10:	00e7e7b3          	or	x15,x15,x14
    fa14:	04812703          	lw	x14,72(x2)
    fa18:	02d12e23          	sw	x13,60(x2)
    fa1c:	02f12823          	sw	x15,48(x2)
    fa20:	02e12c23          	sw	x14,56(x2)
    fa24:	04412703          	lw	x14,68(x2)
    fa28:	02e12a23          	sw	x14,52(x2)
    fa2c:	00b69713          	slli	x14,x13,0xb
    fa30:	04075663          	bge	x14,x0,fa7c <__multf3+0xcd8>
    fa34:	01f79793          	slli	x15,x15,0x1f
    fa38:	03010713          	addi	x14,x2,48
    fa3c:	03c10513          	addi	x10,x2,60
    fa40:	00072603          	lw	x12,0(x14)
    fa44:	00472583          	lw	x11,4(x14)
    fa48:	00470713          	addi	x14,x14,4
    fa4c:	00165613          	srli	x12,x12,0x1
    fa50:	01f59593          	slli	x11,x11,0x1f
    fa54:	00b66633          	or	x12,x12,x11
    fa58:	fec72e23          	sw	x12,-4(x14)
    fa5c:	fee512e3          	bne	x10,x14,fa40 <__multf3+0xc9c>
    fa60:	03012703          	lw	x14,48(x2)
    fa64:	00f037b3          	sltu	x15,x0,x15
    fa68:	0016d693          	srli	x13,x13,0x1
    fa6c:	00f767b3          	or	x15,x14,x15
    fa70:	02d12e23          	sw	x13,60(x2)
    fa74:	02f12823          	sw	x15,48(x2)
    fa78:	000c0813          	addi	x16,x24,0
    fa7c:	00080c13          	addi	x24,x16,0
    fa80:	3700006f          	jal	x0,fdf0 <__multf3+0x104c>
    fa84:	00a76633          	or	x12,x14,x10
    fa88:	00d66633          	or	x12,x12,x13
    fa8c:	00f66633          	or	x12,x12,x15
    fa90:	14060263          	beq	x12,x0,fbd4 <__multf3+0xe30>
    fa94:	0a078063          	beq	x15,x0,fb34 <__multf3+0xd90>
    fa98:	00078513          	addi	x10,x15,0
    fa9c:	154020ef          	jal	x1,11bf0 <__clzsi2>
    faa0:	ff450613          	addi	x12,x10,-12
    faa4:	40565713          	srai	x14,x12,0x5
    faa8:	01f67613          	andi	x12,x12,31
    faac:	40e007b3          	sub	x15,x0,x14
    fab0:	0a060c63          	beq	x12,x0,fb68 <__multf3+0xdc4>
    fab4:	00279793          	slli	x15,x15,0x2
    fab8:	00c78693          	addi	x13,x15,12
    fabc:	02000813          	addi	x16,x0,32
    fac0:	01010313          	addi	x6,x2,16
    fac4:	40c80833          	sub	x16,x16,x12
    fac8:	00d306b3          	add	x13,x6,x13
    facc:	40f007b3          	sub	x15,x0,x15
    fad0:	0cd31263          	bne	x6,x13,fb94 <__multf3+0xdf0>
    fad4:	fff70793          	addi	x15,x14,-1
    fad8:	00271713          	slli	x14,x14,0x2
    fadc:	01010693          	addi	x13,x2,16
    fae0:	05070713          	addi	x14,x14,80
    fae4:	00d70733          	add	x14,x14,x13
    fae8:	01012683          	lw	x13,16(x2)
    faec:	00c696b3          	sll	x13,x13,x12
    faf0:	fad72823          	sw	x13,-80(x14)
    faf4:	00178793          	addi	x15,x15,1
    faf8:	00279793          	slli	x15,x15,0x2
    fafc:	00800693          	addi	x13,x0,8
    fb00:	01010713          	addi	x14,x2,16
    fb04:	00d7ea63          	bltu	x15,x13,fb18 <__multf3+0xd74>
    fb08:	00012823          	sw	x0,16(x2)
    fb0c:	00072223          	sw	x0,4(x14)
    fb10:	ff878793          	addi	x15,x15,-8
    fb14:	01810713          	addi	x14,x2,24
    fb18:	00400693          	addi	x13,x0,4
    fb1c:	00d7e463          	bltu	x15,x13,fb24 <__multf3+0xd80>
    fb20:	00072023          	sw	x0,0(x14)
    fb24:	ffffc9b7          	lui	x19,0xffffc
    fb28:	01198993          	addi	x19,x19,17 # ffffc011 <__heap_end+0xffbfc011>
    fb2c:	40a989b3          	sub	x19,x19,x10
    fb30:	b5cff06f          	jal	x0,ee8c <__multf3+0xe8>
    fb34:	00068a63          	beq	x13,x0,fb48 <__multf3+0xda4>
    fb38:	00068513          	addi	x10,x13,0 # 10000 <__multf3+0x125c>
    fb3c:	0b4020ef          	jal	x1,11bf0 <__clzsi2>
    fb40:	02050513          	addi	x10,x10,32
    fb44:	f5dff06f          	jal	x0,faa0 <__multf3+0xcfc>
    fb48:	00050863          	beq	x10,x0,fb58 <__multf3+0xdb4>
    fb4c:	0a4020ef          	jal	x1,11bf0 <__clzsi2>
    fb50:	04050513          	addi	x10,x10,64
    fb54:	f4dff06f          	jal	x0,faa0 <__multf3+0xcfc>
    fb58:	00070513          	addi	x10,x14,0
    fb5c:	094020ef          	jal	x1,11bf0 <__clzsi2>
    fb60:	06050513          	addi	x10,x10,96
    fb64:	f3dff06f          	jal	x0,faa0 <__multf3+0xcfc>
    fb68:	01c10693          	addi	x13,x2,28
    fb6c:	00279793          	slli	x15,x15,0x2
    fb70:	00300613          	addi	x12,x0,3
    fb74:	00f685b3          	add	x11,x13,x15
    fb78:	0005a583          	lw	x11,0(x11)
    fb7c:	fff60613          	addi	x12,x12,-1
    fb80:	ffc68693          	addi	x13,x13,-4
    fb84:	00b6a223          	sw	x11,4(x13)
    fb88:	fee656e3          	bge	x12,x14,fb74 <__multf3+0xdd0>
    fb8c:	fff70793          	addi	x15,x14,-1
    fb90:	f65ff06f          	jal	x0,faf4 <__multf3+0xd50>
    fb94:	0006a583          	lw	x11,0(x13)
    fb98:	ffc6a883          	lw	x17,-4(x13)
    fb9c:	00f68e33          	add	x28,x13,x15
    fba0:	00c595b3          	sll	x11,x11,x12
    fba4:	0108d8b3          	srl	x17,x17,x16
    fba8:	0115e5b3          	or	x11,x11,x17
    fbac:	00be2023          	sw	x11,0(x28)
    fbb0:	ffc68693          	addi	x13,x13,-4
    fbb4:	f1dff06f          	jal	x0,fad0 <__multf3+0xd2c>
    fbb8:	00a76733          	or	x14,x14,x10
    fbbc:	00d76733          	or	x14,x14,x13
    fbc0:	00f76733          	or	x14,x14,x15
    fbc4:	00200b93          	addi	x23,x0,2
    fbc8:	ac070463          	beq	x14,x0,ee90 <__multf3+0xec>
    fbcc:	00300b93          	addi	x23,x0,3
    fbd0:	ac0ff06f          	jal	x0,ee90 <__multf3+0xec>
    fbd4:	00000993          	addi	x19,x0,0
    fbd8:	00100b93          	addi	x23,x0,1
    fbdc:	ab4ff06f          	jal	x0,ee90 <__multf3+0xec>
    fbe0:	016a67b3          	or	x15,x20,x22
    fbe4:	0157e7b3          	or	x15,x15,x21
    fbe8:	00a7e7b3          	or	x15,x15,x10
    fbec:	14078263          	beq	x15,x0,fd30 <__multf3+0xf8c>
    fbf0:	08050e63          	beq	x10,x0,fc8c <__multf3+0xee8>
    fbf4:	7fd010ef          	jal	x1,11bf0 <__clzsi2>
    fbf8:	ff450613          	addi	x12,x10,-12
    fbfc:	40565713          	srai	x14,x12,0x5
    fc00:	01f67613          	andi	x12,x12,31
    fc04:	40e007b3          	sub	x15,x0,x14
    fc08:	0a060e63          	beq	x12,x0,fcc4 <__multf3+0xf20>
    fc0c:	00279793          	slli	x15,x15,0x2
    fc10:	00c78693          	addi	x13,x15,12
    fc14:	02000813          	addi	x16,x0,32
    fc18:	02010313          	addi	x6,x2,32
    fc1c:	40c80833          	sub	x16,x16,x12
    fc20:	00d306b3          	add	x13,x6,x13
    fc24:	40f007b3          	sub	x15,x0,x15
    fc28:	0cd31463          	bne	x6,x13,fcf0 <__multf3+0xf4c>
    fc2c:	fff70793          	addi	x15,x14,-1
    fc30:	00271713          	slli	x14,x14,0x2
    fc34:	01010693          	addi	x13,x2,16
    fc38:	05070713          	addi	x14,x14,80
    fc3c:	00d70733          	add	x14,x14,x13
    fc40:	02012683          	lw	x13,32(x2)
    fc44:	00c696b3          	sll	x13,x13,x12
    fc48:	fcd72023          	sw	x13,-64(x14)
    fc4c:	00178793          	addi	x15,x15,1
    fc50:	00279793          	slli	x15,x15,0x2
    fc54:	00800693          	addi	x13,x0,8
    fc58:	02010713          	addi	x14,x2,32
    fc5c:	00d7ea63          	bltu	x15,x13,fc70 <__multf3+0xecc>
    fc60:	02012023          	sw	x0,32(x2)
    fc64:	00072223          	sw	x0,4(x14)
    fc68:	ff878793          	addi	x15,x15,-8
    fc6c:	02810713          	addi	x14,x2,40
    fc70:	00400693          	addi	x13,x0,4
    fc74:	00d7e463          	bltu	x15,x13,fc7c <__multf3+0xed8>
    fc78:	00072023          	sw	x0,0(x14)
    fc7c:	ffffc837          	lui	x16,0xffffc
    fc80:	01180813          	addi	x16,x16,17 # ffffc011 <__heap_end+0xffbfc011>
    fc84:	40a80833          	sub	x16,x16,x10
    fc88:	a94ff06f          	jal	x0,ef1c <__multf3+0x178>
    fc8c:	000a8a63          	beq	x21,x0,fca0 <__multf3+0xefc>
    fc90:	000a8513          	addi	x10,x21,0
    fc94:	75d010ef          	jal	x1,11bf0 <__clzsi2>
    fc98:	02050513          	addi	x10,x10,32
    fc9c:	f5dff06f          	jal	x0,fbf8 <__multf3+0xe54>
    fca0:	000b0a63          	beq	x22,x0,fcb4 <__multf3+0xf10>
    fca4:	000b0513          	addi	x10,x22,0
    fca8:	749010ef          	jal	x1,11bf0 <__clzsi2>
    fcac:	04050513          	addi	x10,x10,64
    fcb0:	f49ff06f          	jal	x0,fbf8 <__multf3+0xe54>
    fcb4:	000a0513          	addi	x10,x20,0
    fcb8:	739010ef          	jal	x1,11bf0 <__clzsi2>
    fcbc:	06050513          	addi	x10,x10,96
    fcc0:	f39ff06f          	jal	x0,fbf8 <__multf3+0xe54>
    fcc4:	02c10693          	addi	x13,x2,44
    fcc8:	00279793          	slli	x15,x15,0x2
    fccc:	00300613          	addi	x12,x0,3
    fcd0:	00f685b3          	add	x11,x13,x15
    fcd4:	0005a583          	lw	x11,0(x11)
    fcd8:	fff60613          	addi	x12,x12,-1
    fcdc:	ffc68693          	addi	x13,x13,-4
    fce0:	00b6a223          	sw	x11,4(x13)
    fce4:	fee656e3          	bge	x12,x14,fcd0 <__multf3+0xf2c>
    fce8:	fff70793          	addi	x15,x14,-1
    fcec:	f61ff06f          	jal	x0,fc4c <__multf3+0xea8>
    fcf0:	0006a583          	lw	x11,0(x13)
    fcf4:	ffc6a883          	lw	x17,-4(x13)
    fcf8:	00f68e33          	add	x28,x13,x15
    fcfc:	00c595b3          	sll	x11,x11,x12
    fd00:	0108d8b3          	srl	x17,x17,x16
    fd04:	0115e5b3          	or	x11,x11,x17
    fd08:	00be2023          	sw	x11,0(x28)
    fd0c:	ffc68693          	addi	x13,x13,-4
    fd10:	f19ff06f          	jal	x0,fc28 <__multf3+0xe84>
    fd14:	016a67b3          	or	x15,x20,x22
    fd18:	0157e7b3          	or	x15,x15,x21
    fd1c:	00a7e7b3          	or	x15,x15,x10
    fd20:	00200693          	addi	x13,x0,2
    fd24:	9e078e63          	beq	x15,x0,ef20 <__multf3+0x17c>
    fd28:	00300693          	addi	x13,x0,3
    fd2c:	9f4ff06f          	jal	x0,ef20 <__multf3+0x17c>
    fd30:	00000813          	addi	x16,x0,0
    fd34:	00100693          	addi	x13,x0,1
    fd38:	9e8ff06f          	jal	x0,ef20 <__multf3+0x17c>
    fd3c:	00100713          	addi	x14,x0,1
    fd40:	00f717b3          	sll	x15,x14,x15
    fd44:	5307f713          	andi	x14,x15,1328
    fd48:	06071863          	bne	x14,x0,fdb8 <__multf3+0x1014>
    fd4c:	0887f713          	andi	x14,x15,136
    fd50:	04071063          	bne	x14,x0,fd90 <__multf3+0xfec>
    fd54:	2407f793          	andi	x15,x15,576
    fd58:	9e078c63          	beq	x15,x0,ef50 <__multf3+0x1ac>
    fd5c:	000087b7          	lui	x15,0x8
    fd60:	02f12e23          	sw	x15,60(x2)
    fd64:	02012c23          	sw	x0,56(x2)
    fd68:	02012a23          	sw	x0,52(x2)
    fd6c:	02012823          	sw	x0,48(x2)
    fd70:	fff78793          	addi	x15,x15,-1 # 7fff <__gdtoa+0x74b>
    fd74:	00000893          	addi	x17,x0,0
    fd78:	13c0006f          	jal	x0,feb4 <__multf3+0x1110>
    fd7c:	00f00713          	addi	x14,x0,15
    fd80:	fce78ee3          	beq	x15,x14,fd5c <__multf3+0xfb8>
    fd84:	00b00713          	addi	x14,x0,11
    fd88:	00048893          	addi	x17,x9,0
    fd8c:	02e79663          	bne	x15,x14,fdb8 <__multf3+0x1014>
    fd90:	00090893          	addi	x17,x18,0
    fd94:	02012783          	lw	x15,32(x2)
    fd98:	00068b93          	addi	x23,x13,0
    fd9c:	02f12823          	sw	x15,48(x2)
    fda0:	02412783          	lw	x15,36(x2)
    fda4:	02f12a23          	sw	x15,52(x2)
    fda8:	02812783          	lw	x15,40(x2)
    fdac:	02f12c23          	sw	x15,56(x2)
    fdb0:	02c12783          	lw	x15,44(x2)
    fdb4:	0200006f          	jal	x0,fdd4 <__multf3+0x1030>
    fdb8:	01012783          	lw	x15,16(x2)
    fdbc:	02f12823          	sw	x15,48(x2)
    fdc0:	01412783          	lw	x15,20(x2)
    fdc4:	02f12a23          	sw	x15,52(x2)
    fdc8:	01812783          	lw	x15,24(x2)
    fdcc:	02f12c23          	sw	x15,56(x2)
    fdd0:	01c12783          	lw	x15,28(x2)
    fdd4:	02f12e23          	sw	x15,60(x2)
    fdd8:	00200793          	addi	x15,x0,2
    fddc:	36fb8063          	beq	x23,x15,1013c <__multf3+0x1398>
    fde0:	00300793          	addi	x15,x0,3
    fde4:	f6fb8ce3          	beq	x23,x15,fd5c <__multf3+0xfb8>
    fde8:	00100793          	addi	x15,x0,1
    fdec:	32fb8e63          	beq	x23,x15,10128 <__multf3+0x1384>
    fdf0:	000047b7          	lui	x15,0x4
    fdf4:	fff78793          	addi	x15,x15,-1 # 3fff <_vfprintf_r+0x211b>
    fdf8:	00fc07b3          	add	x15,x24,x15
    fdfc:	12f05663          	bge	x0,x15,ff28 <__multf3+0x1184>
    fe00:	03012703          	lw	x14,48(x2)
    fe04:	00777693          	andi	x13,x14,7
    fe08:	04068463          	beq	x13,x0,fe50 <__multf3+0x10ac>
    fe0c:	00f77693          	andi	x13,x14,15
    fe10:	00400613          	addi	x12,x0,4
    fe14:	02c68e63          	beq	x13,x12,fe50 <__multf3+0x10ac>
    fe18:	00470713          	addi	x14,x14,4
    fe1c:	00473693          	sltiu	x13,x14,4
    fe20:	02e12823          	sw	x14,48(x2)
    fe24:	03412703          	lw	x14,52(x2)
    fe28:	00e68733          	add	x14,x13,x14
    fe2c:	02e12a23          	sw	x14,52(x2)
    fe30:	00d73733          	sltu	x14,x14,x13
    fe34:	03812683          	lw	x13,56(x2)
    fe38:	00e68733          	add	x14,x13,x14
    fe3c:	02e12c23          	sw	x14,56(x2)
    fe40:	00d73733          	sltu	x14,x14,x13
    fe44:	03c12683          	lw	x13,60(x2)
    fe48:	00d70733          	add	x14,x14,x13
    fe4c:	02e12e23          	sw	x14,60(x2)
    fe50:	03c12703          	lw	x14,60(x2)
    fe54:	00b71693          	slli	x13,x14,0xb
    fe58:	0006de63          	bge	x13,x0,fe74 <__multf3+0x10d0>
    fe5c:	fff007b7          	lui	x15,0xfff00
    fe60:	fff78793          	addi	x15,x15,-1 # ffefffff <__heap_end+0xffafffff>
    fe64:	00f77733          	and	x14,x14,x15
    fe68:	000047b7          	lui	x15,0x4
    fe6c:	02e12e23          	sw	x14,60(x2)
    fe70:	00fc07b3          	add	x15,x24,x15
    fe74:	03010713          	addi	x14,x2,48
    fe78:	03c10593          	addi	x11,x2,60
    fe7c:	00072683          	lw	x13,0(x14)
    fe80:	00472603          	lw	x12,4(x14)
    fe84:	00470713          	addi	x14,x14,4
    fe88:	0036d693          	srli	x13,x13,0x3
    fe8c:	01d61613          	slli	x12,x12,0x1d
    fe90:	00c6e6b3          	or	x13,x13,x12
    fe94:	fed72e23          	sw	x13,-4(x14)
    fe98:	fee592e3          	bne	x11,x14,fe7c <__multf3+0x10d8>
    fe9c:	000086b7          	lui	x13,0x8
    fea0:	ffe68693          	addi	x13,x13,-2 # 7ffe <__gdtoa+0x74a>
    fea4:	03c12703          	lw	x14,60(x2)
    fea8:	28f6ca63          	blt	x13,x15,1013c <__multf3+0x1398>
    feac:	00375713          	srli	x14,x14,0x3
    feb0:	02e12e23          	sw	x14,60(x2)
    feb4:	00f89893          	slli	x17,x17,0xf
    feb8:	00f8e8b3          	or	x17,x17,x15
    febc:	03012783          	lw	x15,48(x2)
    fec0:	03c12703          	lw	x14,60(x2)
    fec4:	05111723          	sh	x17,78(x2)
    fec8:	00f42023          	sw	x15,0(x8)
    fecc:	03412783          	lw	x15,52(x2)
    fed0:	04e11623          	sh	x14,76(x2)
    fed4:	09c12083          	lw	x1,156(x2)
    fed8:	00f42223          	sw	x15,4(x8)
    fedc:	03812783          	lw	x15,56(x2)
    fee0:	00040513          	addi	x10,x8,0
    fee4:	09412483          	lw	x9,148(x2)
    fee8:	00f42423          	sw	x15,8(x8)
    feec:	04c12783          	lw	x15,76(x2)
    fef0:	09012903          	lw	x18,144(x2)
    fef4:	08c12983          	lw	x19,140(x2)
    fef8:	00f42623          	sw	x15,12(x8)
    fefc:	09812403          	lw	x8,152(x2)
    ff00:	08812a03          	lw	x20,136(x2)
    ff04:	08412a83          	lw	x21,132(x2)
    ff08:	08012b03          	lw	x22,128(x2)
    ff0c:	07c12b83          	lw	x23,124(x2)
    ff10:	07812c03          	lw	x24,120(x2)
    ff14:	07412c83          	lw	x25,116(x2)
    ff18:	07012d03          	lw	x26,112(x2)
    ff1c:	06c12d83          	lw	x27,108(x2)
    ff20:	0a010113          	addi	x2,x2,160
    ff24:	00008067          	jalr	x0,0(x1)
    ff28:	00100693          	addi	x13,x0,1
    ff2c:	40f686b3          	sub	x13,x13,x15
    ff30:	07400793          	addi	x15,x0,116
    ff34:	1cd7ca63          	blt	x15,x13,10108 <__multf3+0x1364>
    ff38:	03010513          	addi	x10,x2,48
    ff3c:	4056d713          	srai	x14,x13,0x5
    ff40:	00050593          	addi	x11,x10,0
    ff44:	01f6f693          	andi	x13,x13,31
    ff48:	00000793          	addi	x15,x0,0
    ff4c:	00000613          	addi	x12,x0,0
    ff50:	02e61e63          	bne	x12,x14,ff8c <__multf3+0x11e8>
    ff54:	00300613          	addi	x12,x0,3
    ff58:	40e60633          	sub	x12,x12,x14
    ff5c:	00271593          	slli	x11,x14,0x2
    ff60:	04069063          	bne	x13,x0,ffa0 <__multf3+0x11fc>
    ff64:	00050813          	addi	x16,x10,0
    ff68:	00b80333          	add	x6,x16,x11
    ff6c:	00032303          	lw	x6,0(x6)
    ff70:	00168693          	addi	x13,x13,1
    ff74:	00480813          	addi	x16,x16,4
    ff78:	fe682e23          	sw	x6,-4(x16)
    ff7c:	fed656e3          	bge	x12,x13,ff68 <__multf3+0x11c4>
    ff80:	00400693          	addi	x13,x0,4
    ff84:	40e68733          	sub	x14,x13,x14
    ff88:	06c0006f          	jal	x0,fff4 <__multf3+0x1250>
    ff8c:	0005a803          	lw	x16,0(x11)
    ff90:	00160613          	addi	x12,x12,1
    ff94:	00458593          	addi	x11,x11,4
    ff98:	0107e7b3          	or	x15,x15,x16
    ff9c:	fb5ff06f          	jal	x0,ff50 <__multf3+0x11ac>
    ffa0:	05058813          	addi	x16,x11,80
    ffa4:	01010e13          	addi	x28,x2,16
    ffa8:	01c80833          	add	x16,x16,x28
    ffac:	fd082803          	lw	x16,-48(x16)
    ffb0:	02000313          	addi	x6,x0,32
    ffb4:	40d30333          	sub	x6,x6,x13
    ffb8:	00681833          	sll	x16,x16,x6
    ffbc:	0107e7b3          	or	x15,x15,x16
    ffc0:	00b505b3          	add	x11,x10,x11
    ffc4:	00050e93          	addi	x29,x10,0
    ffc8:	00000e13          	addi	x28,x0,0
    ffcc:	0ece4063          	blt	x28,x12,100ac <__multf3+0x1308>
    ffd0:	00400593          	addi	x11,x0,4
    ffd4:	00261613          	slli	x12,x12,0x2
    ffd8:	40e58733          	sub	x14,x11,x14
    ffdc:	05060613          	addi	x12,x12,80
    ffe0:	01010593          	addi	x11,x2,16
    ffe4:	00b60633          	add	x12,x12,x11
    ffe8:	03c12583          	lw	x11,60(x2)
    ffec:	00d5d6b3          	srl	x13,x11,x13
    fff0:	fcd62823          	sw	x13,-48(x12)
    fff4:	00400693          	addi	x13,x0,4
    fff8:	40e686b3          	sub	x13,x13,x14
    fffc:	00269693          	slli	x13,x13,0x2
   10000:	00271713          	slli	x14,x14,0x2
   10004:	00800613          	addi	x12,x0,8
   10008:	00e50733          	add	x14,x10,x14
   1000c:	00c6ea63          	bltu	x13,x12,10020 <__multf3+0x127c>
   10010:	00072023          	sw	x0,0(x14)
   10014:	00072223          	sw	x0,4(x14)
   10018:	ff868693          	addi	x13,x13,-8
   1001c:	00870713          	addi	x14,x14,8
   10020:	00400613          	addi	x12,x0,4
   10024:	00c6e463          	bltu	x13,x12,1002c <__multf3+0x1288>
   10028:	00072023          	sw	x0,0(x14)
   1002c:	03012703          	lw	x14,48(x2)
   10030:	00f037b3          	sltu	x15,x0,x15
   10034:	00e7e7b3          	or	x15,x15,x14
   10038:	02f12823          	sw	x15,48(x2)
   1003c:	0077f713          	andi	x14,x15,7
   10040:	04070463          	beq	x14,x0,10088 <__multf3+0x12e4>
   10044:	00f7f713          	andi	x14,x15,15
   10048:	00400693          	addi	x13,x0,4
   1004c:	02d70e63          	beq	x14,x13,10088 <__multf3+0x12e4>
   10050:	03412703          	lw	x14,52(x2)
   10054:	00478793          	addi	x15,x15,4 # 4004 <_vfprintf_r+0x2120>
   10058:	02f12823          	sw	x15,48(x2)
   1005c:	0047b793          	sltiu	x15,x15,4
   10060:	00f707b3          	add	x15,x14,x15
   10064:	02f12a23          	sw	x15,52(x2)
   10068:	00e7b7b3          	sltu	x15,x15,x14
   1006c:	03812703          	lw	x14,56(x2)
   10070:	00f707b3          	add	x15,x14,x15
   10074:	02f12c23          	sw	x15,56(x2)
   10078:	00e7b7b3          	sltu	x15,x15,x14
   1007c:	03c12703          	lw	x14,60(x2)
   10080:	00e787b3          	add	x15,x15,x14
   10084:	02f12e23          	sw	x15,60(x2)
   10088:	03c12703          	lw	x14,60(x2)
   1008c:	00c71793          	slli	x15,x14,0xc
   10090:	0407d263          	bge	x15,x0,100d4 <__multf3+0x1330>
   10094:	02012e23          	sw	x0,60(x2)
   10098:	02012c23          	sw	x0,56(x2)
   1009c:	02012a23          	sw	x0,52(x2)
   100a0:	02012823          	sw	x0,48(x2)
   100a4:	00100793          	addi	x15,x0,1
   100a8:	e0dff06f          	jal	x0,feb4 <__multf3+0x1110>
   100ac:	0005a803          	lw	x16,0(x11)
   100b0:	0045af03          	lw	x30,4(x11)
   100b4:	00458593          	addi	x11,x11,4
   100b8:	00d85833          	srl	x16,x16,x13
   100bc:	006f1f33          	sll	x30,x30,x6
   100c0:	01e86833          	or	x16,x16,x30
   100c4:	010ea023          	sw	x16,0(x29)
   100c8:	001e0e13          	addi	x28,x28,1
   100cc:	004e8e93          	addi	x29,x29,4
   100d0:	efdff06f          	jal	x0,ffcc <__multf3+0x1228>
   100d4:	00c50613          	addi	x12,x10,12
   100d8:	00052783          	lw	x15,0(x10)
   100dc:	00452683          	lw	x13,4(x10)
   100e0:	00450513          	addi	x10,x10,4
   100e4:	0037d793          	srli	x15,x15,0x3
   100e8:	01d69693          	slli	x13,x13,0x1d
   100ec:	00d7e7b3          	or	x15,x15,x13
   100f0:	fef52e23          	sw	x15,-4(x10)
   100f4:	fea612e3          	bne	x12,x10,100d8 <__multf3+0x1334>
   100f8:	00375713          	srli	x14,x14,0x3
   100fc:	02e12e23          	sw	x14,60(x2)
   10100:	00000793          	addi	x15,x0,0
   10104:	db1ff06f          	jal	x0,feb4 <__multf3+0x1110>
   10108:	03412703          	lw	x14,52(x2)
   1010c:	03012783          	lw	x15,48(x2)
   10110:	00e7e7b3          	or	x15,x15,x14
   10114:	03812703          	lw	x14,56(x2)
   10118:	00e7e7b3          	or	x15,x15,x14
   1011c:	03c12703          	lw	x14,60(x2)
   10120:	00e7e7b3          	or	x15,x15,x14
   10124:	fc078ee3          	beq	x15,x0,10100 <__multf3+0x135c>
   10128:	02012e23          	sw	x0,60(x2)
   1012c:	02012c23          	sw	x0,56(x2)
   10130:	02012a23          	sw	x0,52(x2)
   10134:	02012823          	sw	x0,48(x2)
   10138:	fc9ff06f          	jal	x0,10100 <__multf3+0x135c>
   1013c:	000087b7          	lui	x15,0x8
   10140:	02012e23          	sw	x0,60(x2)
   10144:	02012c23          	sw	x0,56(x2)
   10148:	02012a23          	sw	x0,52(x2)
   1014c:	02012823          	sw	x0,48(x2)
   10150:	fff78793          	addi	x15,x15,-1 # 7fff <__gdtoa+0x74b>
   10154:	d61ff06f          	jal	x0,feb4 <__multf3+0x1110>

00010158 <__subtf3>:
   10158:	f9010113          	addi	x2,x2,-112
   1015c:	0085a703          	lw	x14,8(x11)
   10160:	05512a23          	sw	x21,84(x2)
   10164:	00c5aa83          	lw	x21,12(x11)
   10168:	0005a783          	lw	x15,0(x11)
   1016c:	0045a683          	lw	x13,4(x11)
   10170:	02e12c23          	sw	x14,56(x2)
   10174:	00e12c23          	sw	x14,24(x2)
   10178:	010a9713          	slli	x14,x21,0x10
   1017c:	06912223          	sw	x9,100(x2)
   10180:	01075713          	srli	x14,x14,0x10
   10184:	001a9493          	slli	x9,x21,0x1
   10188:	00462803          	lw	x16,4(x12)
   1018c:	00862583          	lw	x11,8(x12)
   10190:	06812423          	sw	x8,104(x2)
   10194:	07212023          	sw	x18,96(x2)
   10198:	00062403          	lw	x8,0(x12)
   1019c:	00c62903          	lw	x18,12(x12)
   101a0:	05412c23          	sw	x20,88(x2)
   101a4:	03512e23          	sw	x21,60(x2)
   101a8:	00050a13          	addi	x20,x10,0
   101ac:	06112623          	sw	x1,108(x2)
   101b0:	05312e23          	sw	x19,92(x2)
   101b4:	05612823          	sw	x22,80(x2)
   101b8:	05712623          	sw	x23,76(x2)
   101bc:	05812423          	sw	x24,72(x2)
   101c0:	02f12823          	sw	x15,48(x2)
   101c4:	02d12a23          	sw	x13,52(x2)
   101c8:	00f12823          	sw	x15,16(x2)
   101cc:	00d12a23          	sw	x13,20(x2)
   101d0:	00e12e23          	sw	x14,28(x2)
   101d4:	0114d493          	srli	x9,x9,0x11
   101d8:	01fada93          	srli	x21,x21,0x1f
   101dc:	01010513          	addi	x10,x2,16
   101e0:	01c10613          	addi	x12,x2,28
   101e4:	00062703          	lw	x14,0(x12)
   101e8:	ffc62683          	lw	x13,-4(x12)
   101ec:	ffc60613          	addi	x12,x12,-4
   101f0:	00371713          	slli	x14,x14,0x3
   101f4:	01d6d693          	srli	x13,x13,0x1d
   101f8:	00d76733          	or	x14,x14,x13
   101fc:	00e62223          	sw	x14,4(x12)
   10200:	fec512e3          	bne	x10,x12,101e4 <__subtf3+0x8c>
   10204:	01091713          	slli	x14,x18,0x10
   10208:	00191b93          	slli	x23,x18,0x1
   1020c:	00379793          	slli	x15,x15,0x3
   10210:	01075713          	srli	x14,x14,0x10
   10214:	03012a23          	sw	x16,52(x2)
   10218:	03212e23          	sw	x18,60(x2)
   1021c:	03012223          	sw	x16,36(x2)
   10220:	00f12823          	sw	x15,16(x2)
   10224:	02812823          	sw	x8,48(x2)
   10228:	02b12c23          	sw	x11,56(x2)
   1022c:	02812023          	sw	x8,32(x2)
   10230:	02b12423          	sw	x11,40(x2)
   10234:	02e12623          	sw	x14,44(x2)
   10238:	011bdb93          	srli	x23,x23,0x11
   1023c:	01f95913          	srli	x18,x18,0x1f
   10240:	02010813          	addi	x16,x2,32
   10244:	02c10313          	addi	x6,x2,44
   10248:	00032703          	lw	x14,0(x6)
   1024c:	ffc32683          	lw	x13,-4(x6)
   10250:	ffc30313          	addi	x6,x6,-4
   10254:	00371713          	slli	x14,x14,0x3
   10258:	01d6d693          	srli	x13,x13,0x1d
   1025c:	00d76733          	or	x14,x14,x13
   10260:	00e32223          	sw	x14,4(x6)
   10264:	fe6812e3          	bne	x16,x6,10248 <__subtf3+0xf0>
   10268:	00341413          	slli	x8,x8,0x3
   1026c:	00008737          	lui	x14,0x8
   10270:	02812023          	sw	x8,32(x2)
   10274:	fff70713          	addi	x14,x14,-1 # 7fff <__gdtoa+0x74b>
   10278:	02eb9063          	bne	x23,x14,10298 <__subtf3+0x140>
   1027c:	02812683          	lw	x13,40(x2)
   10280:	02412703          	lw	x14,36(x2)
   10284:	00d76733          	or	x14,x14,x13
   10288:	02c12683          	lw	x13,44(x2)
   1028c:	00d76733          	or	x14,x14,x13
   10290:	00876733          	or	x14,x14,x8
   10294:	00071463          	bne	x14,x0,1029c <__subtf3+0x144>
   10298:	00194913          	xori	x18,x18,1
   1029c:	417488b3          	sub	x17,x9,x23
   102a0:	0b5914e3          	bne	x18,x21,10b48 <__subtf3+0x9f0>
   102a4:	45105063          	bge	x0,x17,106e4 <__subtf3+0x58c>
   102a8:	01412903          	lw	x18,20(x2)
   102ac:	01812983          	lw	x19,24(x2)
   102b0:	01c12b03          	lw	x22,28(x2)
   102b4:	0a0b9263          	bne	x23,x0,10358 <__subtf3+0x200>
   102b8:	02412683          	lw	x13,36(x2)
   102bc:	02812703          	lw	x14,40(x2)
   102c0:	02c12583          	lw	x11,44(x2)
   102c4:	00e6e633          	or	x12,x13,x14
   102c8:	00b66633          	or	x12,x12,x11
   102cc:	00866633          	or	x12,x12,x8
   102d0:	00061e63          	bne	x12,x0,102ec <__subtf3+0x194>
   102d4:	02f12823          	sw	x15,48(x2)
   102d8:	03212a23          	sw	x18,52(x2)
   102dc:	03312c23          	sw	x19,56(x2)
   102e0:	03612e23          	sw	x22,60(x2)
   102e4:	00088493          	addi	x9,x17,0
   102e8:	08c0006f          	jal	x0,10374 <__subtf3+0x21c>
   102ec:	fff88613          	addi	x12,x17,-1
   102f0:	04061863          	bne	x12,x0,10340 <__subtf3+0x1e8>
   102f4:	00878433          	add	x8,x15,x8
   102f8:	01268933          	add	x18,x13,x18
   102fc:	02812823          	sw	x8,48(x2)
   10300:	00f43433          	sltu	x8,x8,x15
   10304:	00890433          	add	x8,x18,x8
   10308:	02812a23          	sw	x8,52(x2)
   1030c:	00d936b3          	sltu	x13,x18,x13
   10310:	01243433          	sltu	x8,x8,x18
   10314:	013709b3          	add	x19,x14,x19
   10318:	0086e6b3          	or	x13,x13,x8
   1031c:	00d986b3          	add	x13,x19,x13
   10320:	02d12c23          	sw	x13,56(x2)
   10324:	00e9b7b3          	sltu	x15,x19,x14
   10328:	0136b6b3          	sltu	x13,x13,x19
   1032c:	00d7e7b3          	or	x15,x15,x13
   10330:	016585b3          	add	x11,x11,x22
   10334:	00b787b3          	add	x15,x15,x11
   10338:	00100493          	addi	x9,x0,1
   1033c:	2f80006f          	jal	x0,10634 <__subtf3+0x4dc>
   10340:	00008737          	lui	x14,0x8
   10344:	fff70713          	addi	x14,x14,-1 # 7fff <__gdtoa+0x74b>
   10348:	00e88463          	beq	x17,x14,10350 <__subtf3+0x1f8>
   1034c:	2a00106f          	jal	x0,115ec <__subtf3+0x1494>
   10350:	02f12823          	sw	x15,48(x2)
   10354:	43c0006f          	jal	x0,10790 <__subtf3+0x638>
   10358:	00008737          	lui	x14,0x8
   1035c:	fff70713          	addi	x14,x14,-1 # 7fff <__gdtoa+0x74b>
   10360:	16e49a63          	bne	x9,x14,104d4 <__subtf3+0x37c>
   10364:	02f12823          	sw	x15,48(x2)
   10368:	03212a23          	sw	x18,52(x2)
   1036c:	03312c23          	sw	x19,56(x2)
   10370:	03612e23          	sw	x22,60(x2)
   10374:	03012783          	lw	x15,48(x2)
   10378:	0077f713          	andi	x14,x15,7
   1037c:	04070463          	beq	x14,x0,103c4 <__subtf3+0x26c>
   10380:	00f7f713          	andi	x14,x15,15
   10384:	00400693          	addi	x13,x0,4
   10388:	02d70e63          	beq	x14,x13,103c4 <__subtf3+0x26c>
   1038c:	03412703          	lw	x14,52(x2)
   10390:	00478793          	addi	x15,x15,4
   10394:	02f12823          	sw	x15,48(x2)
   10398:	0047b793          	sltiu	x15,x15,4
   1039c:	00f707b3          	add	x15,x14,x15
   103a0:	02f12a23          	sw	x15,52(x2)
   103a4:	00e7b7b3          	sltu	x15,x15,x14
   103a8:	03812703          	lw	x14,56(x2)
   103ac:	00f707b3          	add	x15,x14,x15
   103b0:	02f12c23          	sw	x15,56(x2)
   103b4:	00e7b7b3          	sltu	x15,x15,x14
   103b8:	03c12703          	lw	x14,60(x2)
   103bc:	00e787b3          	add	x15,x15,x14
   103c0:	02f12e23          	sw	x15,60(x2)
   103c4:	03c12783          	lw	x15,60(x2)
   103c8:	00c79713          	slli	x14,x15,0xc
   103cc:	02075463          	bge	x14,x0,103f4 <__subtf3+0x29c>
   103d0:	00008737          	lui	x14,0x8
   103d4:	00148493          	addi	x9,x9,1
   103d8:	fff70713          	addi	x14,x14,-1 # 7fff <__gdtoa+0x74b>
   103dc:	00e49463          	bne	x9,x14,103e4 <__subtf3+0x28c>
   103e0:	1f80106f          	jal	x0,115d8 <__subtf3+0x1480>
   103e4:	fff80737          	lui	x14,0xfff80
   103e8:	fff70713          	addi	x14,x14,-1 # fff7ffff <__heap_end+0xffb7ffff>
   103ec:	00e7f7b3          	and	x15,x15,x14
   103f0:	02f12e23          	sw	x15,60(x2)
   103f4:	03010793          	addi	x15,x2,48
   103f8:	03c10613          	addi	x12,x2,60
   103fc:	0007a703          	lw	x14,0(x15)
   10400:	0047a683          	lw	x13,4(x15)
   10404:	00478793          	addi	x15,x15,4
   10408:	00375713          	srli	x14,x14,0x3
   1040c:	01d69693          	slli	x13,x13,0x1d
   10410:	00d76733          	or	x14,x14,x13
   10414:	fee7ae23          	sw	x14,-4(x15)
   10418:	fec792e3          	bne	x15,x12,103fc <__subtf3+0x2a4>
   1041c:	03c12703          	lw	x14,60(x2)
   10420:	000086b7          	lui	x13,0x8
   10424:	fff68793          	addi	x15,x13,-1 # 7fff <__gdtoa+0x74b>
   10428:	00375713          	srli	x14,x14,0x3
   1042c:	02e12e23          	sw	x14,60(x2)
   10430:	02f49a63          	bne	x9,x15,10464 <__subtf3+0x30c>
   10434:	03412603          	lw	x12,52(x2)
   10438:	03012783          	lw	x15,48(x2)
   1043c:	00c7e7b3          	or	x15,x15,x12
   10440:	03812603          	lw	x12,56(x2)
   10444:	00c7e7b3          	or	x15,x15,x12
   10448:	00e7e7b3          	or	x15,x15,x14
   1044c:	00078c63          	beq	x15,x0,10464 <__subtf3+0x30c>
   10450:	02d12e23          	sw	x13,60(x2)
   10454:	02012c23          	sw	x0,56(x2)
   10458:	02012a23          	sw	x0,52(x2)
   1045c:	02012823          	sw	x0,48(x2)
   10460:	00000a93          	addi	x21,x0,0
   10464:	03c12783          	lw	x15,60(x2)
   10468:	01149493          	slli	x9,x9,0x11
   1046c:	0114d493          	srli	x9,x9,0x11
   10470:	00f11623          	sh	x15,12(x2)
   10474:	03012783          	lw	x15,48(x2)
   10478:	00fa9a93          	slli	x21,x21,0xf
   1047c:	009aeab3          	or	x21,x21,x9
   10480:	00fa2023          	sw	x15,0(x20)
   10484:	03412783          	lw	x15,52(x2)
   10488:	01511723          	sh	x21,14(x2)
   1048c:	06c12083          	lw	x1,108(x2)
   10490:	00fa2223          	sw	x15,4(x20)
   10494:	03812783          	lw	x15,56(x2)
   10498:	06812403          	lw	x8,104(x2)
   1049c:	06412483          	lw	x9,100(x2)
   104a0:	00fa2423          	sw	x15,8(x20)
   104a4:	00c12783          	lw	x15,12(x2)
   104a8:	06012903          	lw	x18,96(x2)
   104ac:	05c12983          	lw	x19,92(x2)
   104b0:	00fa2623          	sw	x15,12(x20)
   104b4:	05412a83          	lw	x21,84(x2)
   104b8:	05012b03          	lw	x22,80(x2)
   104bc:	04c12b83          	lw	x23,76(x2)
   104c0:	04812c03          	lw	x24,72(x2)
   104c4:	000a0513          	addi	x10,x20,0
   104c8:	05812a03          	lw	x20,88(x2)
   104cc:	07010113          	addi	x2,x2,112
   104d0:	00008067          	jalr	x0,0(x1)
   104d4:	02c12703          	lw	x14,44(x2)
   104d8:	000806b7          	lui	x13,0x80
   104dc:	00d76733          	or	x14,x14,x13
   104e0:	02e12623          	sw	x14,44(x2)
   104e4:	07400713          	addi	x14,x0,116
   104e8:	01175463          	bge	x14,x17,104f0 <__subtf3+0x398>
   104ec:	10c0106f          	jal	x0,115f8 <__subtf3+0x14a0>
   104f0:	00088613          	addi	x12,x17,0
   104f4:	40565693          	srai	x13,x12,0x5
   104f8:	00030513          	addi	x10,x6,0
   104fc:	01f67613          	andi	x12,x12,31
   10500:	00000713          	addi	x14,x0,0
   10504:	00000593          	addi	x11,x0,0
   10508:	02d59c63          	bne	x11,x13,10540 <__subtf3+0x3e8>
   1050c:	00300593          	addi	x11,x0,3
   10510:	40d585b3          	sub	x11,x11,x13
   10514:	00269513          	slli	x10,x13,0x2
   10518:	02061e63          	bne	x12,x0,10554 <__subtf3+0x3fc>
   1051c:	00a308b3          	add	x17,x6,x10
   10520:	0008a883          	lw	x17,0(x17)
   10524:	00160613          	addi	x12,x12,1
   10528:	00430313          	addi	x6,x6,4
   1052c:	ff132e23          	sw	x17,-4(x6)
   10530:	fec5d6e3          	bge	x11,x12,1051c <__subtf3+0x3c4>
   10534:	00400613          	addi	x12,x0,4
   10538:	40d606b3          	sub	x13,x12,x13
   1053c:	0600006f          	jal	x0,1059c <__subtf3+0x444>
   10540:	00052883          	lw	x17,0(x10)
   10544:	00158593          	addi	x11,x11,1
   10548:	00450513          	addi	x10,x10,4
   1054c:	01176733          	or	x14,x14,x17
   10550:	fb9ff06f          	jal	x0,10508 <__subtf3+0x3b0>
   10554:	04050893          	addi	x17,x10,64
   10558:	002888b3          	add	x17,x17,x2
   1055c:	fe08a883          	lw	x17,-32(x17)
   10560:	02000e13          	addi	x28,x0,32
   10564:	40ce0e33          	sub	x28,x28,x12
   10568:	01c898b3          	sll	x17,x17,x28
   1056c:	01176733          	or	x14,x14,x17
   10570:	00a80533          	add	x10,x16,x10
   10574:	00000e93          	addi	x29,x0,0
   10578:	14bec263          	blt	x29,x11,106bc <__subtf3+0x564>
   1057c:	00400513          	addi	x10,x0,4
   10580:	40d506b3          	sub	x13,x10,x13
   10584:	02c12503          	lw	x10,44(x2)
   10588:	00259593          	slli	x11,x11,0x2
   1058c:	04058593          	addi	x11,x11,64
   10590:	002585b3          	add	x11,x11,x2
   10594:	00c55633          	srl	x12,x10,x12
   10598:	fec5a023          	sw	x12,-32(x11)
   1059c:	00400613          	addi	x12,x0,4
   105a0:	40d60633          	sub	x12,x12,x13
   105a4:	00261613          	slli	x12,x12,0x2
   105a8:	00269693          	slli	x13,x13,0x2
   105ac:	00800593          	addi	x11,x0,8
   105b0:	00d806b3          	add	x13,x16,x13
   105b4:	00b66a63          	bltu	x12,x11,105c8 <__subtf3+0x470>
   105b8:	0006a023          	sw	x0,0(x13) # 80000 <__heap_start+0x6cc90>
   105bc:	0006a223          	sw	x0,4(x13)
   105c0:	ff860613          	addi	x12,x12,-8
   105c4:	00868693          	addi	x13,x13,8
   105c8:	00400593          	addi	x11,x0,4
   105cc:	00b66463          	bltu	x12,x11,105d4 <__subtf3+0x47c>
   105d0:	0006a023          	sw	x0,0(x13)
   105d4:	02012683          	lw	x13,32(x2)
   105d8:	00e03733          	sltu	x14,x0,x14
   105dc:	00d76733          	or	x14,x14,x13
   105e0:	02412683          	lw	x13,36(x2)
   105e4:	02e12023          	sw	x14,32(x2)
   105e8:	00e78733          	add	x14,x15,x14
   105ec:	01268933          	add	x18,x13,x18
   105f0:	02e12823          	sw	x14,48(x2)
   105f4:	00f73733          	sltu	x14,x14,x15
   105f8:	02812783          	lw	x15,40(x2)
   105fc:	00e90733          	add	x14,x18,x14
   10600:	02e12a23          	sw	x14,52(x2)
   10604:	00d936b3          	sltu	x13,x18,x13
   10608:	01273733          	sltu	x14,x14,x18
   1060c:	013789b3          	add	x19,x15,x19
   10610:	00e6e733          	or	x14,x13,x14
   10614:	00e98733          	add	x14,x19,x14
   10618:	02e12c23          	sw	x14,56(x2)
   1061c:	00f9b7b3          	sltu	x15,x19,x15
   10620:	01373733          	sltu	x14,x14,x19
   10624:	00e7e7b3          	or	x15,x15,x14
   10628:	02c12703          	lw	x14,44(x2)
   1062c:	00eb0733          	add	x14,x22,x14
   10630:	00e787b3          	add	x15,x15,x14
   10634:	02f12e23          	sw	x15,60(x2)
   10638:	00c79713          	slli	x14,x15,0xc
   1063c:	d2075ce3          	bge	x14,x0,10374 <__subtf3+0x21c>
   10640:	03012683          	lw	x13,48(x2)
   10644:	fff80737          	lui	x14,0xfff80
   10648:	fff70713          	addi	x14,x14,-1 # fff7ffff <__heap_end+0xffb7ffff>
   1064c:	00e7f7b3          	and	x15,x15,x14
   10650:	02f12e23          	sw	x15,60(x2)
   10654:	00148493          	addi	x9,x9,1
   10658:	01f69693          	slli	x13,x13,0x1f
   1065c:	03010713          	addi	x14,x2,48
   10660:	03c10513          	addi	x10,x2,60
   10664:	00072603          	lw	x12,0(x14)
   10668:	00472583          	lw	x11,4(x14)
   1066c:	00470713          	addi	x14,x14,4
   10670:	00165613          	srli	x12,x12,0x1
   10674:	01f59593          	slli	x11,x11,0x1f
   10678:	00b66633          	or	x12,x12,x11
   1067c:	fec72e23          	sw	x12,-4(x14)
   10680:	fee512e3          	bne	x10,x14,10664 <__subtf3+0x50c>
   10684:	03012703          	lw	x14,48(x2)
   10688:	0017d793          	srli	x15,x15,0x1
   1068c:	02f12e23          	sw	x15,60(x2)
   10690:	00d037b3          	sltu	x15,x0,x13
   10694:	00f767b3          	or	x15,x14,x15
   10698:	02f12823          	sw	x15,48(x2)
   1069c:	000087b7          	lui	x15,0x8
   106a0:	fff78793          	addi	x15,x15,-1 # 7fff <__gdtoa+0x74b>
   106a4:	ccf498e3          	bne	x9,x15,10374 <__subtf3+0x21c>
   106a8:	02012e23          	sw	x0,60(x2)
   106ac:	02012c23          	sw	x0,56(x2)
   106b0:	02012a23          	sw	x0,52(x2)
   106b4:	02012823          	sw	x0,48(x2)
   106b8:	cbdff06f          	jal	x0,10374 <__subtf3+0x21c>
   106bc:	00052883          	lw	x17,0(x10)
   106c0:	00452f03          	lw	x30,4(x10)
   106c4:	00450513          	addi	x10,x10,4
   106c8:	00c8d8b3          	srl	x17,x17,x12
   106cc:	01cf1f33          	sll	x30,x30,x28
   106d0:	01e8e8b3          	or	x17,x17,x30
   106d4:	01132023          	sw	x17,0(x6)
   106d8:	001e8e93          	addi	x29,x29,1
   106dc:	00430313          	addi	x6,x6,4
   106e0:	e99ff06f          	jal	x0,10578 <__subtf3+0x420>
   106e4:	02412903          	lw	x18,36(x2)
   106e8:	02812983          	lw	x19,40(x2)
   106ec:	02c12b03          	lw	x22,44(x2)
   106f0:	28088063          	beq	x17,x0,10970 <__subtf3+0x818>
   106f4:	409b85b3          	sub	x11,x23,x9
   106f8:	0a049c63          	bne	x9,x0,107b0 <__subtf3+0x658>
   106fc:	01412683          	lw	x13,20(x2)
   10700:	01812703          	lw	x14,24(x2)
   10704:	01c12883          	lw	x17,28(x2)
   10708:	00e6e833          	or	x16,x13,x14
   1070c:	01186833          	or	x16,x16,x17
   10710:	00f86833          	or	x16,x16,x15
   10714:	00081e63          	bne	x16,x0,10730 <__subtf3+0x5d8>
   10718:	02812823          	sw	x8,48(x2)
   1071c:	03212a23          	sw	x18,52(x2)
   10720:	03312c23          	sw	x19,56(x2)
   10724:	03612e23          	sw	x22,60(x2)
   10728:	00058493          	addi	x9,x11,0
   1072c:	c49ff06f          	jal	x0,10374 <__subtf3+0x21c>
   10730:	fff58813          	addi	x16,x11,-1
   10734:	04081663          	bne	x16,x0,10780 <__subtf3+0x628>
   10738:	00878433          	add	x8,x15,x8
   1073c:	01268933          	add	x18,x13,x18
   10740:	02812823          	sw	x8,48(x2)
   10744:	00f43433          	sltu	x8,x8,x15
   10748:	00890433          	add	x8,x18,x8
   1074c:	02812a23          	sw	x8,52(x2)
   10750:	00d936b3          	sltu	x13,x18,x13
   10754:	01243433          	sltu	x8,x8,x18
   10758:	013709b3          	add	x19,x14,x19
   1075c:	0086e6b3          	or	x13,x13,x8
   10760:	00d986b3          	add	x13,x19,x13
   10764:	00e9b7b3          	sltu	x15,x19,x14
   10768:	02d12c23          	sw	x13,56(x2)
   1076c:	0136b6b3          	sltu	x13,x13,x19
   10770:	00d7e7b3          	or	x15,x15,x13
   10774:	01688733          	add	x14,x17,x22
   10778:	00e787b3          	add	x15,x15,x14
   1077c:	bbdff06f          	jal	x0,10338 <__subtf3+0x1e0>
   10780:	000087b7          	lui	x15,0x8
   10784:	fff78793          	addi	x15,x15,-1 # 7fff <__gdtoa+0x74b>
   10788:	68f592e3          	bne	x11,x15,1160c <__subtf3+0x14b4>
   1078c:	02812823          	sw	x8,48(x2)
   10790:	03212a23          	sw	x18,52(x2)
   10794:	03312c23          	sw	x19,56(x2)
   10798:	03612e23          	sw	x22,60(x2)
   1079c:	000084b7          	lui	x9,0x8
   107a0:	fff48493          	addi	x9,x9,-1 # 7fff <__gdtoa+0x74b>
   107a4:	bd1ff06f          	jal	x0,10374 <__subtf3+0x21c>
   107a8:	00078413          	addi	x8,x15,0
   107ac:	fe1ff06f          	jal	x0,1078c <__subtf3+0x634>
   107b0:	000087b7          	lui	x15,0x8
   107b4:	fff78793          	addi	x15,x15,-1 # 7fff <__gdtoa+0x74b>
   107b8:	fcfb8ae3          	beq	x23,x15,1078c <__subtf3+0x634>
   107bc:	01c12783          	lw	x15,28(x2)
   107c0:	00080737          	lui	x14,0x80
   107c4:	00e7e7b3          	or	x15,x15,x14
   107c8:	00f12e23          	sw	x15,28(x2)
   107cc:	07400793          	addi	x15,x0,116
   107d0:	64b7c2e3          	blt	x15,x11,11614 <__subtf3+0x14bc>
   107d4:	00058813          	addi	x16,x11,0
   107d8:	41f85713          	srai	x14,x16,0x1f
   107dc:	01f77713          	andi	x14,x14,31
   107e0:	01070733          	add	x14,x14,x16
   107e4:	40575713          	srai	x14,x14,0x5
   107e8:	00060693          	addi	x13,x12,0
   107ec:	00000493          	addi	x9,x0,0
   107f0:	00000793          	addi	x15,x0,0
   107f4:	02e7ce63          	blt	x15,x14,10830 <__subtf3+0x6d8>
   107f8:	00300793          	addi	x15,x0,3
   107fc:	01f87893          	andi	x17,x16,31
   10800:	40e787b3          	sub	x15,x15,x14
   10804:	00271593          	slli	x11,x14,0x2
   10808:	02089e63          	bne	x17,x0,10844 <__subtf3+0x6ec>
   1080c:	00b606b3          	add	x13,x12,x11
   10810:	0006a683          	lw	x13,0(x13)
   10814:	00188893          	addi	x17,x17,1
   10818:	00460613          	addi	x12,x12,4
   1081c:	fed62e23          	sw	x13,-4(x12)
   10820:	ff17d6e3          	bge	x15,x17,1080c <__subtf3+0x6b4>
   10824:	00400793          	addi	x15,x0,4
   10828:	40e78733          	sub	x14,x15,x14
   1082c:	0900006f          	jal	x0,108bc <__subtf3+0x764>
   10830:	0006a583          	lw	x11,0(x13)
   10834:	00178793          	addi	x15,x15,1
   10838:	00468693          	addi	x13,x13,4
   1083c:	00b4e4b3          	or	x9,x9,x11
   10840:	fb5ff06f          	jal	x0,107f4 <__subtf3+0x69c>
   10844:	800006b7          	lui	x13,0x80000
   10848:	01f68693          	addi	x13,x13,31 # 8000001f <__heap_end+0x7fc0001f>
   1084c:	00d876b3          	and	x13,x16,x13
   10850:	0006d863          	bge	x13,x0,10860 <__subtf3+0x708>
   10854:	fff68693          	addi	x13,x13,-1
   10858:	fe06e693          	ori	x13,x13,-32
   1085c:	00168693          	addi	x13,x13,1
   10860:	02000813          	addi	x16,x0,32
   10864:	40d80833          	sub	x16,x16,x13
   10868:	00070693          	addi	x13,x14,0 # 80000 <__heap_start+0x6cc90>
   1086c:	00075463          	bge	x14,x0,10874 <__subtf3+0x71c>
   10870:	00000693          	addi	x13,x0,0
   10874:	00269693          	slli	x13,x13,0x2
   10878:	04068693          	addi	x13,x13,64
   1087c:	002686b3          	add	x13,x13,x2
   10880:	fd06a683          	lw	x13,-48(x13)
   10884:	00000313          	addi	x6,x0,0
   10888:	010696b3          	sll	x13,x13,x16
   1088c:	00d4e4b3          	or	x9,x9,x13
   10890:	00b506b3          	add	x13,x10,x11
   10894:	00468693          	addi	x13,x13,4
   10898:	0af34a63          	blt	x6,x15,1094c <__subtf3+0x7f4>
   1089c:	00400693          	addi	x13,x0,4
   108a0:	40e68733          	sub	x14,x13,x14
   108a4:	01c12683          	lw	x13,28(x2)
   108a8:	00279793          	slli	x15,x15,0x2
   108ac:	04078793          	addi	x15,x15,64
   108b0:	002787b3          	add	x15,x15,x2
   108b4:	0116d6b3          	srl	x13,x13,x17
   108b8:	fcd7a823          	sw	x13,-48(x15)
   108bc:	00572793          	slti	x15,x14,5
   108c0:	00000613          	addi	x12,x0,0
   108c4:	00078863          	beq	x15,x0,108d4 <__subtf3+0x77c>
   108c8:	00400613          	addi	x12,x0,4
   108cc:	40e60633          	sub	x12,x12,x14
   108d0:	00261613          	slli	x12,x12,0x2
   108d4:	00271713          	slli	x14,x14,0x2
   108d8:	00e50533          	add	x10,x10,x14
   108dc:	00000593          	addi	x11,x0,0
   108e0:	ed0f00ef          	jal	x1,fb0 <memset>
   108e4:	01012703          	lw	x14,16(x2)
   108e8:	009037b3          	sltu	x15,x0,x9
   108ec:	00e7e7b3          	or	x15,x15,x14
   108f0:	01412683          	lw	x13,20(x2)
   108f4:	00f12823          	sw	x15,16(x2)
   108f8:	00f407b3          	add	x15,x8,x15
   108fc:	01268933          	add	x18,x13,x18
   10900:	02f12823          	sw	x15,48(x2)
   10904:	0087b7b3          	sltu	x15,x15,x8
   10908:	00f90733          	add	x14,x18,x15
   1090c:	01812783          	lw	x15,24(x2)
   10910:	02e12a23          	sw	x14,52(x2)
   10914:	00d936b3          	sltu	x13,x18,x13
   10918:	01273733          	sltu	x14,x14,x18
   1091c:	013789b3          	add	x19,x15,x19
   10920:	00e6e733          	or	x14,x13,x14
   10924:	00e98733          	add	x14,x19,x14
   10928:	02e12c23          	sw	x14,56(x2)
   1092c:	00f9b7b3          	sltu	x15,x19,x15
   10930:	01373733          	sltu	x14,x14,x19
   10934:	00e7e7b3          	or	x15,x15,x14
   10938:	01c12703          	lw	x14,28(x2)
   1093c:	000b8493          	addi	x9,x23,0
   10940:	00eb0733          	add	x14,x22,x14
   10944:	00e787b3          	add	x15,x15,x14
   10948:	cedff06f          	jal	x0,10634 <__subtf3+0x4dc>
   1094c:	ffc6a583          	lw	x11,-4(x13)
   10950:	0006ae03          	lw	x28,0(x13)
   10954:	00130313          	addi	x6,x6,1
   10958:	0115d5b3          	srl	x11,x11,x17
   1095c:	010e1e33          	sll	x28,x28,x16
   10960:	01c5e5b3          	or	x11,x11,x28
   10964:	00b62023          	sw	x11,0(x12)
   10968:	00460613          	addi	x12,x12,4
   1096c:	f29ff06f          	jal	x0,10894 <__subtf3+0x73c>
   10970:	00148813          	addi	x16,x9,1
   10974:	01181893          	slli	x17,x16,0x11
   10978:	0128d893          	srli	x17,x17,0x12
   1097c:	01412683          	lw	x13,20(x2)
   10980:	01812703          	lw	x14,24(x2)
   10984:	01c12603          	lw	x12,28(x2)
   10988:	03010593          	addi	x11,x2,48
   1098c:	03c10513          	addi	x10,x2,60
   10990:	10089e63          	bne	x17,x0,10aac <__subtf3+0x954>
   10994:	00e6e833          	or	x16,x13,x14
   10998:	00c86833          	or	x16,x16,x12
   1099c:	00f86833          	or	x16,x16,x15
   109a0:	0a049863          	bne	x9,x0,10a50 <__subtf3+0x8f8>
   109a4:	00081e63          	bne	x16,x0,109c0 <__subtf3+0x868>
   109a8:	02812823          	sw	x8,48(x2)
   109ac:	03212a23          	sw	x18,52(x2)
   109b0:	03312c23          	sw	x19,56(x2)
   109b4:	03612e23          	sw	x22,60(x2)
   109b8:	00000493          	addi	x9,x0,0
   109bc:	9b9ff06f          	jal	x0,10374 <__subtf3+0x21c>
   109c0:	013965b3          	or	x11,x18,x19
   109c4:	0165e5b3          	or	x11,x11,x22
   109c8:	0085e5b3          	or	x11,x11,x8
   109cc:	00059c63          	bne	x11,x0,109e4 <__subtf3+0x88c>
   109d0:	02f12823          	sw	x15,48(x2)
   109d4:	02d12a23          	sw	x13,52(x2)
   109d8:	02e12c23          	sw	x14,56(x2)
   109dc:	02c12e23          	sw	x12,60(x2)
   109e0:	995ff06f          	jal	x0,10374 <__subtf3+0x21c>
   109e4:	00878433          	add	x8,x15,x8
   109e8:	01268933          	add	x18,x13,x18
   109ec:	02812823          	sw	x8,48(x2)
   109f0:	00f43433          	sltu	x8,x8,x15
   109f4:	00890433          	add	x8,x18,x8
   109f8:	02812a23          	sw	x8,52(x2)
   109fc:	00d936b3          	sltu	x13,x18,x13
   10a00:	01243433          	sltu	x8,x8,x18
   10a04:	013709b3          	add	x19,x14,x19
   10a08:	0086e6b3          	or	x13,x13,x8
   10a0c:	00d986b3          	add	x13,x19,x13
   10a10:	02d12c23          	sw	x13,56(x2)
   10a14:	00e9b733          	sltu	x14,x19,x14
   10a18:	0136b6b3          	sltu	x13,x13,x19
   10a1c:	00d76733          	or	x14,x14,x13
   10a20:	01660633          	add	x12,x12,x22
   10a24:	00c70733          	add	x14,x14,x12
   10a28:	00c71793          	slli	x15,x14,0xc
   10a2c:	0007c663          	blt	x15,x0,10a38 <__subtf3+0x8e0>
   10a30:	02e12e23          	sw	x14,60(x2)
   10a34:	941ff06f          	jal	x0,10374 <__subtf3+0x21c>
   10a38:	fff807b7          	lui	x15,0xfff80
   10a3c:	fff78793          	addi	x15,x15,-1 # fff7ffff <__heap_end+0xffb7ffff>
   10a40:	00f77733          	and	x14,x14,x15
   10a44:	02e12e23          	sw	x14,60(x2)
   10a48:	00100493          	addi	x9,x0,1
   10a4c:	929ff06f          	jal	x0,10374 <__subtf3+0x21c>
   10a50:	1a080663          	beq	x16,x0,10bfc <__subtf3+0xaa4>
   10a54:	01396933          	or	x18,x18,x19
   10a58:	01696933          	or	x18,x18,x22
   10a5c:	00896933          	or	x18,x18,x8
   10a60:	1a090263          	beq	x18,x0,10c04 <__subtf3+0xaac>
   10a64:	000087b7          	lui	x15,0x8
   10a68:	02f12e23          	sw	x15,60(x2)
   10a6c:	02012c23          	sw	x0,56(x2)
   10a70:	02012a23          	sw	x0,52(x2)
   10a74:	02012823          	sw	x0,48(x2)
   10a78:	00050793          	addi	x15,x10,0
   10a7c:	0007a703          	lw	x14,0(x15) # 8000 <__gdtoa+0x74c>
   10a80:	ffc7a683          	lw	x13,-4(x15)
   10a84:	ffc78793          	addi	x15,x15,-4
   10a88:	00371713          	slli	x14,x14,0x3
   10a8c:	01d6d693          	srli	x13,x13,0x1d
   10a90:	00d76733          	or	x14,x14,x13
   10a94:	00e7a223          	sw	x14,4(x15)
   10a98:	fef592e3          	bne	x11,x15,10a7c <__subtf3+0x924>
   10a9c:	000084b7          	lui	x9,0x8
   10aa0:	fff48493          	addi	x9,x9,-1 # 7fff <__gdtoa+0x74b>
   10aa4:	00000a93          	addi	x21,x0,0
   10aa8:	8cdff06f          	jal	x0,10374 <__subtf3+0x21c>
   10aac:	00878433          	add	x8,x15,x8
   10ab0:	01268933          	add	x18,x13,x18
   10ab4:	02812823          	sw	x8,48(x2)
   10ab8:	00f43433          	sltu	x8,x8,x15
   10abc:	00890433          	add	x8,x18,x8
   10ac0:	02812a23          	sw	x8,52(x2)
   10ac4:	00d936b3          	sltu	x13,x18,x13
   10ac8:	01243433          	sltu	x8,x8,x18
   10acc:	013709b3          	add	x19,x14,x19
   10ad0:	0086e6b3          	or	x13,x13,x8
   10ad4:	00d986b3          	add	x13,x19,x13
   10ad8:	02d12c23          	sw	x13,56(x2)
   10adc:	00e9b733          	sltu	x14,x19,x14
   10ae0:	0136b6b3          	sltu	x13,x13,x19
   10ae4:	00d76733          	or	x14,x14,x13
   10ae8:	01660633          	add	x12,x12,x22
   10aec:	00c70733          	add	x14,x14,x12
   10af0:	02e12e23          	sw	x14,60(x2)
   10af4:	00058793          	addi	x15,x11,0
   10af8:	0007a683          	lw	x13,0(x15)
   10afc:	0047a603          	lw	x12,4(x15)
   10b00:	00478793          	addi	x15,x15,4
   10b04:	0016d693          	srli	x13,x13,0x1
   10b08:	01f61613          	slli	x12,x12,0x1f
   10b0c:	00c6e6b3          	or	x13,x13,x12
   10b10:	fed7ae23          	sw	x13,-4(x15)
   10b14:	fef512e3          	bne	x10,x15,10af8 <__subtf3+0x9a0>
   10b18:	000087b7          	lui	x15,0x8
   10b1c:	fff78793          	addi	x15,x15,-1 # 7fff <__gdtoa+0x74b>
   10b20:	00f80a63          	beq	x16,x15,10b34 <__subtf3+0x9dc>
   10b24:	00175713          	srli	x14,x14,0x1
   10b28:	02e12e23          	sw	x14,60(x2)
   10b2c:	00080493          	addi	x9,x16,0
   10b30:	845ff06f          	jal	x0,10374 <__subtf3+0x21c>
   10b34:	02012e23          	sw	x0,60(x2)
   10b38:	02012c23          	sw	x0,56(x2)
   10b3c:	02012a23          	sw	x0,52(x2)
   10b40:	02012823          	sw	x0,48(x2)
   10b44:	fe9ff06f          	jal	x0,10b2c <__subtf3+0x9d4>
   10b48:	29105a63          	bge	x0,x17,10ddc <__subtf3+0xc84>
   10b4c:	01412903          	lw	x18,20(x2)
   10b50:	01812983          	lw	x19,24(x2)
   10b54:	01c12b03          	lw	x22,28(x2)
   10b58:	0a0b9e63          	bne	x23,x0,10c14 <__subtf3+0xabc>
   10b5c:	02412e03          	lw	x28,36(x2)
   10b60:	02812503          	lw	x10,40(x2)
   10b64:	02c12683          	lw	x13,44(x2)
   10b68:	00ae6733          	or	x14,x28,x10
   10b6c:	00d76733          	or	x14,x14,x13
   10b70:	00876733          	or	x14,x14,x8
   10b74:	f6070063          	beq	x14,x0,102d4 <__subtf3+0x17c>
   10b78:	fff88e93          	addi	x29,x17,-1
   10b7c:	040e9c63          	bne	x29,x0,10bd4 <__subtf3+0xa7c>
   10b80:	40878733          	sub	x14,x15,x8
   10b84:	41c90633          	sub	x12,x18,x28
   10b88:	00e7b5b3          	sltu	x11,x15,x14
   10b8c:	00c93833          	sltu	x16,x18,x12
   10b90:	40b60633          	sub	x12,x12,x11
   10b94:	00000593          	addi	x11,x0,0
   10b98:	00e7f663          	bgeu	x15,x14,10ba4 <__subtf3+0xa4c>
   10b9c:	412e0e33          	sub	x28,x28,x18
   10ba0:	001e3593          	sltiu	x11,x28,1
   10ba4:	0105e7b3          	or	x15,x11,x16
   10ba8:	40a985b3          	sub	x11,x19,x10
   10bac:	00b9b833          	sltu	x16,x19,x11
   10bb0:	40f585b3          	sub	x11,x11,x15
   10bb4:	00078663          	beq	x15,x0,10bc0 <__subtf3+0xa68>
   10bb8:	41350533          	sub	x10,x10,x19
   10bbc:	00153e93          	sltiu	x29,x10,1
   10bc0:	40db07b3          	sub	x15,x22,x13
   10bc4:	010ee6b3          	or	x13,x29,x16
   10bc8:	40d787b3          	sub	x15,x15,x13
   10bcc:	00100493          	addi	x9,x0,1
   10bd0:	1b80006f          	jal	x0,10d88 <__subtf3+0xc30>
   10bd4:	00008737          	lui	x14,0x8
   10bd8:	fff70713          	addi	x14,x14,-1 # 7fff <__gdtoa+0x74b>
   10bdc:	f6e88a63          	beq	x17,x14,10350 <__subtf3+0x1f8>
   10be0:	07400713          	addi	x14,x0,116
   10be4:	05d75c63          	bge	x14,x29,10c3c <__subtf3+0xae4>
   10be8:	02012623          	sw	x0,44(x2)
   10bec:	02012423          	sw	x0,40(x2)
   10bf0:	02012223          	sw	x0,36(x2)
   10bf4:	00100713          	addi	x14,x0,1
   10bf8:	1300006f          	jal	x0,10d28 <__subtf3+0xbd0>
   10bfc:	00040793          	addi	x15,x8,0
   10c00:	f50ff06f          	jal	x0,10350 <__subtf3+0x1f8>
   10c04:	00068913          	addi	x18,x13,0
   10c08:	00070993          	addi	x19,x14,0
   10c0c:	00060b13          	addi	x22,x12,0
   10c10:	f40ff06f          	jal	x0,10350 <__subtf3+0x1f8>
   10c14:	00008737          	lui	x14,0x8
   10c18:	fff70713          	addi	x14,x14,-1 # 7fff <__gdtoa+0x74b>
   10c1c:	b8e486e3          	beq	x9,x14,107a8 <__subtf3+0x650>
   10c20:	02c12703          	lw	x14,44(x2)
   10c24:	000806b7          	lui	x13,0x80
   10c28:	00d76733          	or	x14,x14,x13
   10c2c:	02e12623          	sw	x14,44(x2)
   10c30:	07400713          	addi	x14,x0,116
   10c34:	fb174ae3          	blt	x14,x17,10be8 <__subtf3+0xa90>
   10c38:	00088e93          	addi	x29,x17,0
   10c3c:	405ed693          	srai	x13,x29,0x5
   10c40:	00030593          	addi	x11,x6,0
   10c44:	01fefe93          	andi	x29,x29,31
   10c48:	00000713          	addi	x14,x0,0
   10c4c:	00000613          	addi	x12,x0,0
   10c50:	02d61c63          	bne	x12,x13,10c88 <__subtf3+0xb30>
   10c54:	00300613          	addi	x12,x0,3
   10c58:	40d60633          	sub	x12,x12,x13
   10c5c:	00269593          	slli	x11,x13,0x2
   10c60:	020e9e63          	bne	x29,x0,10c9c <__subtf3+0xb44>
   10c64:	00b30533          	add	x10,x6,x11
   10c68:	00052503          	lw	x10,0(x10)
   10c6c:	001e8e93          	addi	x29,x29,1
   10c70:	00430313          	addi	x6,x6,4
   10c74:	fea32e23          	sw	x10,-4(x6)
   10c78:	ffd656e3          	bge	x12,x29,10c64 <__subtf3+0xb0c>
   10c7c:	00400613          	addi	x12,x0,4
   10c80:	40d606b3          	sub	x13,x12,x13
   10c84:	0600006f          	jal	x0,10ce4 <__subtf3+0xb8c>
   10c88:	0005a503          	lw	x10,0(x11)
   10c8c:	00160613          	addi	x12,x12,1
   10c90:	00458593          	addi	x11,x11,4
   10c94:	00a76733          	or	x14,x14,x10
   10c98:	fb9ff06f          	jal	x0,10c50 <__subtf3+0xaf8>
   10c9c:	04058513          	addi	x10,x11,64
   10ca0:	00250533          	add	x10,x10,x2
   10ca4:	fe052503          	lw	x10,-32(x10)
   10ca8:	02000893          	addi	x17,x0,32
   10cac:	41d888b3          	sub	x17,x17,x29
   10cb0:	01151533          	sll	x10,x10,x17
   10cb4:	00a76733          	or	x14,x14,x10
   10cb8:	00b805b3          	add	x11,x16,x11
   10cbc:	00000e13          	addi	x28,x0,0
   10cc0:	0ece4a63          	blt	x28,x12,10db4 <__subtf3+0xc5c>
   10cc4:	00400593          	addi	x11,x0,4
   10cc8:	40d586b3          	sub	x13,x11,x13
   10ccc:	02c12583          	lw	x11,44(x2)
   10cd0:	00261613          	slli	x12,x12,0x2
   10cd4:	04060613          	addi	x12,x12,64
   10cd8:	00260633          	add	x12,x12,x2
   10cdc:	01d5d5b3          	srl	x11,x11,x29
   10ce0:	feb62023          	sw	x11,-32(x12)
   10ce4:	00400613          	addi	x12,x0,4
   10ce8:	40d60633          	sub	x12,x12,x13
   10cec:	00261613          	slli	x12,x12,0x2
   10cf0:	00269693          	slli	x13,x13,0x2
   10cf4:	00800593          	addi	x11,x0,8
   10cf8:	00d806b3          	add	x13,x16,x13
   10cfc:	00b66a63          	bltu	x12,x11,10d10 <__subtf3+0xbb8>
   10d00:	0006a023          	sw	x0,0(x13) # 80000 <__heap_start+0x6cc90>
   10d04:	0006a223          	sw	x0,4(x13)
   10d08:	ff860613          	addi	x12,x12,-8
   10d0c:	00868693          	addi	x13,x13,8
   10d10:	00400593          	addi	x11,x0,4
   10d14:	00b66463          	bltu	x12,x11,10d1c <__subtf3+0xbc4>
   10d18:	0006a023          	sw	x0,0(x13)
   10d1c:	02012683          	lw	x13,32(x2)
   10d20:	00e03733          	sltu	x14,x0,x14
   10d24:	00d76733          	or	x14,x14,x13
   10d28:	02412583          	lw	x11,36(x2)
   10d2c:	02e12023          	sw	x14,32(x2)
   10d30:	40e78733          	sub	x14,x15,x14
   10d34:	40b90633          	sub	x12,x18,x11
   10d38:	00e7b6b3          	sltu	x13,x15,x14
   10d3c:	00c93533          	sltu	x10,x18,x12
   10d40:	40d60633          	sub	x12,x12,x13
   10d44:	00000693          	addi	x13,x0,0
   10d48:	00e7f663          	bgeu	x15,x14,10d54 <__subtf3+0xbfc>
   10d4c:	412585b3          	sub	x11,x11,x18
   10d50:	0015b693          	sltiu	x13,x11,1
   10d54:	00a6e7b3          	or	x15,x13,x10
   10d58:	02812503          	lw	x10,40(x2)
   10d5c:	00000693          	addi	x13,x0,0
   10d60:	40a985b3          	sub	x11,x19,x10
   10d64:	00b9b833          	sltu	x16,x19,x11
   10d68:	40f585b3          	sub	x11,x11,x15
   10d6c:	00078663          	beq	x15,x0,10d78 <__subtf3+0xc20>
   10d70:	41350533          	sub	x10,x10,x19
   10d74:	00153693          	sltiu	x13,x10,1
   10d78:	02c12783          	lw	x15,44(x2)
   10d7c:	0106e6b3          	or	x13,x13,x16
   10d80:	40fb07b3          	sub	x15,x22,x15
   10d84:	40d787b3          	sub	x15,x15,x13
   10d88:	02e12823          	sw	x14,48(x2)
   10d8c:	02f12e23          	sw	x15,60(x2)
   10d90:	02b12c23          	sw	x11,56(x2)
   10d94:	02c12a23          	sw	x12,52(x2)
   10d98:	00c79713          	slli	x14,x15,0xc
   10d9c:	dc075c63          	bge	x14,x0,10374 <__subtf3+0x21c>
   10da0:	00080737          	lui	x14,0x80
   10da4:	fff70713          	addi	x14,x14,-1 # 7ffff <__heap_start+0x6cc8f>
   10da8:	00e7f7b3          	and	x15,x15,x14
   10dac:	02f12e23          	sw	x15,60(x2)
   10db0:	58c0006f          	jal	x0,1133c <__subtf3+0x11e4>
   10db4:	0005a503          	lw	x10,0(x11)
   10db8:	0045af03          	lw	x30,4(x11)
   10dbc:	00458593          	addi	x11,x11,4
   10dc0:	01d55533          	srl	x10,x10,x29
   10dc4:	011f1f33          	sll	x30,x30,x17
   10dc8:	01e56533          	or	x10,x10,x30
   10dcc:	00a32023          	sw	x10,0(x6)
   10dd0:	001e0e13          	addi	x28,x28,1
   10dd4:	00430313          	addi	x6,x6,4
   10dd8:	ee9ff06f          	jal	x0,10cc0 <__subtf3+0xb68>
   10ddc:	02412c03          	lw	x24,36(x2)
   10de0:	02812983          	lw	x19,40(x2)
   10de4:	02c12b03          	lw	x22,44(x2)
   10de8:	2a088263          	beq	x17,x0,1108c <__subtf3+0xf34>
   10dec:	409b8333          	sub	x6,x23,x9
   10df0:	0a049e63          	bne	x9,x0,10eac <__subtf3+0xd54>
   10df4:	01412583          	lw	x11,20(x2)
   10df8:	01812803          	lw	x16,24(x2)
   10dfc:	01c12683          	lw	x13,28(x2)
   10e00:	0105e8b3          	or	x17,x11,x16
   10e04:	00d8e8b3          	or	x17,x17,x13
   10e08:	00f8e8b3          	or	x17,x17,x15
   10e0c:	02089063          	bne	x17,x0,10e2c <__subtf3+0xcd4>
   10e10:	02812823          	sw	x8,48(x2)
   10e14:	03812a23          	sw	x24,52(x2)
   10e18:	03312c23          	sw	x19,56(x2)
   10e1c:	03612e23          	sw	x22,60(x2)
   10e20:	00030493          	addi	x9,x6,0
   10e24:	00090a93          	addi	x21,x18,0
   10e28:	d4cff06f          	jal	x0,10374 <__subtf3+0x21c>
   10e2c:	fff30893          	addi	x17,x6,-1
   10e30:	04089c63          	bne	x17,x0,10e88 <__subtf3+0xd30>
   10e34:	40f40733          	sub	x14,x8,x15
   10e38:	40bc0633          	sub	x12,x24,x11
   10e3c:	00e437b3          	sltu	x15,x8,x14
   10e40:	00cc3533          	sltu	x10,x24,x12
   10e44:	40f60633          	sub	x12,x12,x15
   10e48:	00000793          	addi	x15,x0,0
   10e4c:	00e47663          	bgeu	x8,x14,10e58 <__subtf3+0xd00>
   10e50:	418585b3          	sub	x11,x11,x24
   10e54:	0015b793          	sltiu	x15,x11,1
   10e58:	00a7e7b3          	or	x15,x15,x10
   10e5c:	410985b3          	sub	x11,x19,x16
   10e60:	00b9b533          	sltu	x10,x19,x11
   10e64:	40f585b3          	sub	x11,x11,x15
   10e68:	00078663          	beq	x15,x0,10e74 <__subtf3+0xd1c>
   10e6c:	41380833          	sub	x16,x16,x19
   10e70:	00183893          	sltiu	x17,x16,1
   10e74:	40db07b3          	sub	x15,x22,x13
   10e78:	00a8e6b3          	or	x13,x17,x10
   10e7c:	40d787b3          	sub	x15,x15,x13
   10e80:	00090a93          	addi	x21,x18,0
   10e84:	d49ff06f          	jal	x0,10bcc <__subtf3+0xa74>
   10e88:	000087b7          	lui	x15,0x8
   10e8c:	fff78793          	addi	x15,x15,-1 # 7fff <__gdtoa+0x74b>
   10e90:	78f31c63          	bne	x6,x15,11628 <__subtf3+0x14d0>
   10e94:	02812823          	sw	x8,48(x2)
   10e98:	03812a23          	sw	x24,52(x2)
   10e9c:	03312c23          	sw	x19,56(x2)
   10ea0:	03612e23          	sw	x22,60(x2)
   10ea4:	00090a93          	addi	x21,x18,0
   10ea8:	8f5ff06f          	jal	x0,1079c <__subtf3+0x644>
   10eac:	000087b7          	lui	x15,0x8
   10eb0:	fff78793          	addi	x15,x15,-1 # 7fff <__gdtoa+0x74b>
   10eb4:	fefb80e3          	beq	x23,x15,10e94 <__subtf3+0xd3c>
   10eb8:	01c12783          	lw	x15,28(x2)
   10ebc:	00080737          	lui	x14,0x80
   10ec0:	00e7e7b3          	or	x15,x15,x14
   10ec4:	00f12e23          	sw	x15,28(x2)
   10ec8:	07400793          	addi	x15,x0,116
   10ecc:	1a67c663          	blt	x15,x6,11078 <__subtf3+0xf20>
   10ed0:	41f35793          	srai	x15,x6,0x1f
   10ed4:	01f7f793          	andi	x15,x15,31
   10ed8:	006787b3          	add	x15,x15,x6
   10edc:	4057d793          	srai	x15,x15,0x5
   10ee0:	00060693          	addi	x13,x12,0
   10ee4:	00000493          	addi	x9,x0,0
   10ee8:	00000713          	addi	x14,x0,0
   10eec:	02f74e63          	blt	x14,x15,10f28 <__subtf3+0xdd0>
   10ef0:	00300713          	addi	x14,x0,3
   10ef4:	01f37e13          	andi	x28,x6,31
   10ef8:	40f708b3          	sub	x17,x14,x15
   10efc:	00279693          	slli	x13,x15,0x2
   10f00:	020e1e63          	bne	x28,x0,10f3c <__subtf3+0xde4>
   10f04:	00d60733          	add	x14,x12,x13
   10f08:	00072703          	lw	x14,0(x14) # 80000 <__heap_start+0x6cc90>
   10f0c:	001e0e13          	addi	x28,x28,1
   10f10:	00460613          	addi	x12,x12,4
   10f14:	fee62e23          	sw	x14,-4(x12)
   10f18:	ffc8d6e3          	bge	x17,x28,10f04 <__subtf3+0xdac>
   10f1c:	00400713          	addi	x14,x0,4
   10f20:	40f707b3          	sub	x15,x14,x15
   10f24:	0900006f          	jal	x0,10fb4 <__subtf3+0xe5c>
   10f28:	0006a583          	lw	x11,0(x13)
   10f2c:	00170713          	addi	x14,x14,1
   10f30:	00468693          	addi	x13,x13,4
   10f34:	00b4e4b3          	or	x9,x9,x11
   10f38:	fb5ff06f          	jal	x0,10eec <__subtf3+0xd94>
   10f3c:	80000737          	lui	x14,0x80000
   10f40:	01f70713          	addi	x14,x14,31 # 8000001f <__heap_end+0x7fc0001f>
   10f44:	00e37733          	and	x14,x6,x14
   10f48:	00075863          	bge	x14,x0,10f58 <__subtf3+0xe00>
   10f4c:	fff70713          	addi	x14,x14,-1
   10f50:	fe076713          	ori	x14,x14,-32
   10f54:	00170713          	addi	x14,x14,1
   10f58:	02000813          	addi	x16,x0,32
   10f5c:	40e80833          	sub	x16,x16,x14
   10f60:	00078593          	addi	x11,x15,0
   10f64:	0007d463          	bge	x15,x0,10f6c <__subtf3+0xe14>
   10f68:	00000593          	addi	x11,x0,0
   10f6c:	00259593          	slli	x11,x11,0x2
   10f70:	04058713          	addi	x14,x11,64
   10f74:	002705b3          	add	x11,x14,x2
   10f78:	fd05a703          	lw	x14,-48(x11)
   10f7c:	00d506b3          	add	x13,x10,x13
   10f80:	01071733          	sll	x14,x14,x16
   10f84:	00e4e4b3          	or	x9,x9,x14
   10f88:	00000713          	addi	x14,x0,0
   10f8c:	00468693          	addi	x13,x13,4
   10f90:	0d174263          	blt	x14,x17,11054 <__subtf3+0xefc>
   10f94:	01c12683          	lw	x13,28(x2)
   10f98:	00400713          	addi	x14,x0,4
   10f9c:	40f707b3          	sub	x15,x14,x15
   10fa0:	00289713          	slli	x14,x17,0x2
   10fa4:	04070713          	addi	x14,x14,64
   10fa8:	00270733          	add	x14,x14,x2
   10fac:	01c6d6b3          	srl	x13,x13,x28
   10fb0:	fcd72823          	sw	x13,-48(x14)
   10fb4:	0057a713          	slti	x14,x15,5
   10fb8:	00000613          	addi	x12,x0,0
   10fbc:	00070863          	beq	x14,x0,10fcc <__subtf3+0xe74>
   10fc0:	00400613          	addi	x12,x0,4
   10fc4:	40f60633          	sub	x12,x12,x15
   10fc8:	00261613          	slli	x12,x12,0x2
   10fcc:	00279793          	slli	x15,x15,0x2
   10fd0:	00f50533          	add	x10,x10,x15
   10fd4:	00000593          	addi	x11,x0,0
   10fd8:	fd9ef0ef          	jal	x1,fb0 <memset>
   10fdc:	01012783          	lw	x15,16(x2)
   10fe0:	00903733          	sltu	x14,x0,x9
   10fe4:	00f76733          	or	x14,x14,x15
   10fe8:	01412683          	lw	x13,20(x2)
   10fec:	00e12823          	sw	x14,16(x2)
   10ff0:	40e40733          	sub	x14,x8,x14
   10ff4:	40dc0633          	sub	x12,x24,x13
   10ff8:	00e437b3          	sltu	x15,x8,x14
   10ffc:	00cc35b3          	sltu	x11,x24,x12
   11000:	40f60633          	sub	x12,x12,x15
   11004:	00000793          	addi	x15,x0,0
   11008:	00e47663          	bgeu	x8,x14,11014 <__subtf3+0xebc>
   1100c:	418686b3          	sub	x13,x13,x24
   11010:	0016b793          	sltiu	x15,x13,1
   11014:	01812503          	lw	x10,24(x2)
   11018:	00b7e7b3          	or	x15,x15,x11
   1101c:	00000693          	addi	x13,x0,0
   11020:	40a985b3          	sub	x11,x19,x10
   11024:	00b9b833          	sltu	x16,x19,x11
   11028:	40f585b3          	sub	x11,x11,x15
   1102c:	00078663          	beq	x15,x0,11038 <__subtf3+0xee0>
   11030:	41350533          	sub	x10,x10,x19
   11034:	00153693          	sltiu	x13,x10,1
   11038:	01c12783          	lw	x15,28(x2)
   1103c:	0106e6b3          	or	x13,x13,x16
   11040:	000b8493          	addi	x9,x23,0
   11044:	40fb07b3          	sub	x15,x22,x15
   11048:	40d787b3          	sub	x15,x15,x13
   1104c:	00090a93          	addi	x21,x18,0
   11050:	d39ff06f          	jal	x0,10d88 <__subtf3+0xc30>
   11054:	ffc6a583          	lw	x11,-4(x13)
   11058:	0006a303          	lw	x6,0(x13)
   1105c:	00170713          	addi	x14,x14,1
   11060:	01c5d5b3          	srl	x11,x11,x28
   11064:	01031333          	sll	x6,x6,x16
   11068:	0065e5b3          	or	x11,x11,x6
   1106c:	00b62023          	sw	x11,0(x12)
   11070:	00460613          	addi	x12,x12,4
   11074:	f19ff06f          	jal	x0,10f8c <__subtf3+0xe34>
   11078:	00012e23          	sw	x0,28(x2)
   1107c:	00012c23          	sw	x0,24(x2)
   11080:	00012a23          	sw	x0,20(x2)
   11084:	00100713          	addi	x14,x0,1
   11088:	f61ff06f          	jal	x0,10fe8 <__subtf3+0xe90>
   1108c:	00148593          	addi	x11,x9,1
   11090:	01159513          	slli	x10,x11,0x11
   11094:	01255513          	srli	x10,x10,0x12
   11098:	01412683          	lw	x13,20(x2)
   1109c:	01812603          	lw	x12,24(x2)
   110a0:	01c12703          	lw	x14,28(x2)
   110a4:	00008837          	lui	x16,0x8
   110a8:	1c051e63          	bne	x10,x0,11284 <__subtf3+0x112c>
   110ac:	013c6533          	or	x10,x24,x19
   110b0:	00c6e5b3          	or	x11,x13,x12
   110b4:	01656533          	or	x10,x10,x22
   110b8:	00e5e5b3          	or	x11,x11,x14
   110bc:	00856533          	or	x10,x10,x8
   110c0:	00f5e5b3          	or	x11,x11,x15
   110c4:	10049863          	bne	x9,x0,111d4 <__subtf3+0x107c>
   110c8:	02059263          	bne	x11,x0,110ec <__subtf3+0xf94>
   110cc:	02812823          	sw	x8,48(x2)
   110d0:	03812a23          	sw	x24,52(x2)
   110d4:	03312c23          	sw	x19,56(x2)
   110d8:	03612e23          	sw	x22,60(x2)
   110dc:	00090a93          	addi	x21,x18,0
   110e0:	a8051a63          	bne	x10,x0,10374 <__subtf3+0x21c>
   110e4:	00000493          	addi	x9,x0,0
   110e8:	9bdff06f          	jal	x0,10aa4 <__subtf3+0x94c>
   110ec:	00051c63          	bne	x10,x0,11104 <__subtf3+0xfac>
   110f0:	02f12823          	sw	x15,48(x2)
   110f4:	02d12a23          	sw	x13,52(x2)
   110f8:	02c12c23          	sw	x12,56(x2)
   110fc:	02e12e23          	sw	x14,60(x2)
   11100:	8b9ff06f          	jal	x0,109b8 <__subtf3+0x860>
   11104:	40878533          	sub	x10,x15,x8
   11108:	41868e33          	sub	x28,x13,x24
   1110c:	00a7b833          	sltu	x16,x15,x10
   11110:	01c6b8b3          	sltu	x17,x13,x28
   11114:	410e0833          	sub	x16,x28,x16
   11118:	00000593          	addi	x11,x0,0
   1111c:	00a7f463          	bgeu	x15,x10,11124 <__subtf3+0xfcc>
   11120:	001e3593          	sltiu	x11,x28,1
   11124:	0115e5b3          	or	x11,x11,x17
   11128:	413608b3          	sub	x17,x12,x19
   1112c:	01163f33          	sltu	x30,x12,x17
   11130:	40b88eb3          	sub	x29,x17,x11
   11134:	00000313          	addi	x6,x0,0
   11138:	00058463          	beq	x11,x0,11140 <__subtf3+0xfe8>
   1113c:	0018b313          	sltiu	x6,x17,1
   11140:	01e36333          	or	x6,x6,x30
   11144:	416705b3          	sub	x11,x14,x22
   11148:	406585b3          	sub	x11,x11,x6
   1114c:	02b12e23          	sw	x11,60(x2)
   11150:	03d12c23          	sw	x29,56(x2)
   11154:	03012a23          	sw	x16,52(x2)
   11158:	02a12823          	sw	x10,48(x2)
   1115c:	00c59313          	slli	x6,x11,0xc
   11160:	06035063          	bge	x6,x0,111c0 <__subtf3+0x1068>
   11164:	40f407b3          	sub	x15,x8,x15
   11168:	40dc06b3          	sub	x13,x24,x13
   1116c:	00f435b3          	sltu	x11,x8,x15
   11170:	00dc3c33          	sltu	x24,x24,x13
   11174:	40b686b3          	sub	x13,x13,x11
   11178:	00000593          	addi	x11,x0,0
   1117c:	00f47463          	bgeu	x8,x15,11184 <__subtf3+0x102c>
   11180:	001e3593          	sltiu	x11,x28,1
   11184:	40c98633          	sub	x12,x19,x12
   11188:	0185ec33          	or	x24,x11,x24
   1118c:	00c9b9b3          	sltu	x19,x19,x12
   11190:	00000513          	addi	x10,x0,0
   11194:	41860633          	sub	x12,x12,x24
   11198:	000c0463          	beq	x24,x0,111a0 <__subtf3+0x1048>
   1119c:	0018b513          	sltiu	x10,x17,1
   111a0:	40eb0733          	sub	x14,x22,x14
   111a4:	01356533          	or	x10,x10,x19
   111a8:	40a70733          	sub	x14,x14,x10
   111ac:	02e12e23          	sw	x14,60(x2)
   111b0:	02c12c23          	sw	x12,56(x2)
   111b4:	02d12a23          	sw	x13,52(x2)
   111b8:	02f12823          	sw	x15,48(x2)
   111bc:	c69ff06f          	jal	x0,10e24 <__subtf3+0xccc>
   111c0:	01056533          	or	x10,x10,x16
   111c4:	01d56533          	or	x10,x10,x29
   111c8:	00b56533          	or	x10,x10,x11
   111cc:	f0050ce3          	beq	x10,x0,110e4 <__subtf3+0xf8c>
   111d0:	fe8ff06f          	jal	x0,109b8 <__subtf3+0x860>
   111d4:	03010893          	addi	x17,x2,48
   111d8:	04059e63          	bne	x11,x0,11234 <__subtf3+0x10dc>
   111dc:	02051e63          	bne	x10,x0,11218 <__subtf3+0x10c0>
   111e0:	03012e23          	sw	x16,60(x2)
   111e4:	02012c23          	sw	x0,56(x2)
   111e8:	02012a23          	sw	x0,52(x2)
   111ec:	02012823          	sw	x0,48(x2)
   111f0:	03c10793          	addi	x15,x2,60
   111f4:	0007a703          	lw	x14,0(x15)
   111f8:	ffc7a683          	lw	x13,-4(x15)
   111fc:	ffc78793          	addi	x15,x15,-4
   11200:	00371713          	slli	x14,x14,0x3
   11204:	01d6d693          	srli	x13,x13,0x1d
   11208:	00d76733          	or	x14,x14,x13
   1120c:	00e7a223          	sw	x14,4(x15)
   11210:	fef892e3          	bne	x17,x15,111f4 <__subtf3+0x109c>
   11214:	889ff06f          	jal	x0,10a9c <__subtf3+0x944>
   11218:	02812823          	sw	x8,48(x2)
   1121c:	03812a23          	sw	x24,52(x2)
   11220:	03312c23          	sw	x19,56(x2)
   11224:	03612e23          	sw	x22,60(x2)
   11228:	00090a93          	addi	x21,x18,0
   1122c:	fff80493          	addi	x9,x16,-1 # 7fff <__gdtoa+0x74b>
   11230:	944ff06f          	jal	x0,10374 <__subtf3+0x21c>
   11234:	00051c63          	bne	x10,x0,1124c <__subtf3+0x10f4>
   11238:	02f12823          	sw	x15,48(x2)
   1123c:	02d12a23          	sw	x13,52(x2)
   11240:	02c12c23          	sw	x12,56(x2)
   11244:	02e12e23          	sw	x14,60(x2)
   11248:	fe5ff06f          	jal	x0,1122c <__subtf3+0x10d4>
   1124c:	03012e23          	sw	x16,60(x2)
   11250:	02012c23          	sw	x0,56(x2)
   11254:	02012a23          	sw	x0,52(x2)
   11258:	02012823          	sw	x0,48(x2)
   1125c:	03c10793          	addi	x15,x2,60
   11260:	0007a703          	lw	x14,0(x15)
   11264:	ffc7a683          	lw	x13,-4(x15)
   11268:	ffc78793          	addi	x15,x15,-4
   1126c:	00371713          	slli	x14,x14,0x3
   11270:	01d6d693          	srli	x13,x13,0x1d
   11274:	00d76733          	or	x14,x14,x13
   11278:	00e7a223          	sw	x14,4(x15)
   1127c:	fef892e3          	bne	x17,x15,11260 <__subtf3+0x1108>
   11280:	81dff06f          	jal	x0,10a9c <__subtf3+0x944>
   11284:	40878533          	sub	x10,x15,x8
   11288:	41868eb3          	sub	x29,x13,x24
   1128c:	00a7b833          	sltu	x16,x15,x10
   11290:	01d6b333          	sltu	x6,x13,x29
   11294:	410e8833          	sub	x16,x29,x16
   11298:	00000593          	addi	x11,x0,0
   1129c:	00a7f463          	bgeu	x15,x10,112a4 <__subtf3+0x114c>
   112a0:	001eb593          	sltiu	x11,x29,1
   112a4:	0065e5b3          	or	x11,x11,x6
   112a8:	41360333          	sub	x6,x12,x19
   112ac:	00663fb3          	sltu	x31,x12,x6
   112b0:	40b30f33          	sub	x30,x6,x11
   112b4:	00000e13          	addi	x28,x0,0
   112b8:	00058463          	beq	x11,x0,112c0 <__subtf3+0x1168>
   112bc:	00133e13          	sltiu	x28,x6,1
   112c0:	01fe6e33          	or	x28,x28,x31
   112c4:	416705b3          	sub	x11,x14,x22
   112c8:	41c585b3          	sub	x11,x11,x28
   112cc:	02b12e23          	sw	x11,60(x2)
   112d0:	03e12c23          	sw	x30,56(x2)
   112d4:	03012a23          	sw	x16,52(x2)
   112d8:	02a12823          	sw	x10,48(x2)
   112dc:	00c59e13          	slli	x28,x11,0xc
   112e0:	160e5863          	bge	x28,x0,11450 <__subtf3+0x12f8>
   112e4:	40f407b3          	sub	x15,x8,x15
   112e8:	40dc06b3          	sub	x13,x24,x13
   112ec:	00f435b3          	sltu	x11,x8,x15
   112f0:	00dc3c33          	sltu	x24,x24,x13
   112f4:	40b686b3          	sub	x13,x13,x11
   112f8:	00000593          	addi	x11,x0,0
   112fc:	00f47463          	bgeu	x8,x15,11304 <__subtf3+0x11ac>
   11300:	001eb593          	sltiu	x11,x29,1
   11304:	40c98633          	sub	x12,x19,x12
   11308:	0185ec33          	or	x24,x11,x24
   1130c:	00c9b9b3          	sltu	x19,x19,x12
   11310:	41860633          	sub	x12,x12,x24
   11314:	000c0463          	beq	x24,x0,1131c <__subtf3+0x11c4>
   11318:	00133893          	sltiu	x17,x6,1
   1131c:	40eb05b3          	sub	x11,x22,x14
   11320:	0138e733          	or	x14,x17,x19
   11324:	40e58733          	sub	x14,x11,x14
   11328:	02e12e23          	sw	x14,60(x2)
   1132c:	02c12c23          	sw	x12,56(x2)
   11330:	02d12a23          	sw	x13,52(x2)
   11334:	02f12823          	sw	x15,48(x2)
   11338:	00090a93          	addi	x21,x18,0
   1133c:	03c12503          	lw	x10,60(x2)
   11340:	12050263          	beq	x10,x0,11464 <__subtf3+0x130c>
   11344:	0ad000ef          	jal	x1,11bf0 <__clzsi2>
   11348:	ff450513          	addi	x10,x10,-12
   1134c:	41f55793          	srai	x15,x10,0x1f
   11350:	01f7f793          	andi	x15,x15,31
   11354:	00a787b3          	add	x15,x15,x10
   11358:	4057d793          	srai	x15,x15,0x5
   1135c:	01f57593          	andi	x11,x10,31
   11360:	40f006b3          	sub	x13,x0,x15
   11364:	12058c63          	beq	x11,x0,1149c <__subtf3+0x1344>
   11368:	80000737          	lui	x14,0x80000
   1136c:	01f70713          	addi	x14,x14,31 # 8000001f <__heap_end+0x7fc0001f>
   11370:	00e57733          	and	x14,x10,x14
   11374:	00075863          	bge	x14,x0,11384 <__subtf3+0x122c>
   11378:	fff70713          	addi	x14,x14,-1
   1137c:	fe076713          	ori	x14,x14,-32
   11380:	00170713          	addi	x14,x14,1
   11384:	00269693          	slli	x13,x13,0x2
   11388:	02000813          	addi	x16,x0,32
   1138c:	40e80833          	sub	x16,x16,x14
   11390:	03010313          	addi	x6,x2,48
   11394:	00c68713          	addi	x14,x13,12
   11398:	00e30733          	add	x14,x6,x14
   1139c:	40d006b3          	sub	x13,x0,x13
   113a0:	12e31463          	bne	x6,x14,114c8 <__subtf3+0x1370>
   113a4:	03012683          	lw	x13,48(x2)
   113a8:	fff78713          	addi	x14,x15,-1
   113ac:	00279793          	slli	x15,x15,0x2
   113b0:	04078793          	addi	x15,x15,64
   113b4:	002787b3          	add	x15,x15,x2
   113b8:	00b696b3          	sll	x13,x13,x11
   113bc:	fed7a823          	sw	x13,-16(x15)
   113c0:	00170713          	addi	x14,x14,1
   113c4:	03010793          	addi	x15,x2,48
   113c8:	00271713          	slli	x14,x14,0x2
   113cc:	00800693          	addi	x13,x0,8
   113d0:	00078893          	addi	x17,x15,0
   113d4:	00d76a63          	bltu	x14,x13,113e8 <__subtf3+0x1290>
   113d8:	02012823          	sw	x0,48(x2)
   113dc:	0007a223          	sw	x0,4(x15)
   113e0:	ff870713          	addi	x14,x14,-8
   113e4:	03810793          	addi	x15,x2,56
   113e8:	00400693          	addi	x13,x0,4
   113ec:	00d76463          	bltu	x14,x13,113f4 <__subtf3+0x129c>
   113f0:	0007a023          	sw	x0,0(x15)
   113f4:	1c954463          	blt	x10,x9,115bc <__subtf3+0x1464>
   113f8:	40950533          	sub	x10,x10,x9
   113fc:	00150513          	addi	x10,x10,1
   11400:	40555793          	srai	x15,x10,0x5
   11404:	00088613          	addi	x12,x17,0
   11408:	01f57513          	andi	x10,x10,31
   1140c:	00088693          	addi	x13,x17,0
   11410:	00000313          	addi	x6,x0,0
   11414:	00000713          	addi	x14,x0,0
   11418:	0cf71a63          	bne	x14,x15,114ec <__subtf3+0x1394>
   1141c:	00300713          	addi	x14,x0,3
   11420:	40f70733          	sub	x14,x14,x15
   11424:	00279693          	slli	x13,x15,0x2
   11428:	0c051c63          	bne	x10,x0,11500 <__subtf3+0x13a8>
   1142c:	00d605b3          	add	x11,x12,x13
   11430:	0005a583          	lw	x11,0(x11)
   11434:	00150513          	addi	x10,x10,1
   11438:	00460613          	addi	x12,x12,4
   1143c:	feb62e23          	sw	x11,-4(x12)
   11440:	fea756e3          	bge	x14,x10,1142c <__subtf3+0x12d4>
   11444:	00400713          	addi	x14,x0,4
   11448:	40f707b3          	sub	x15,x14,x15
   1144c:	1000006f          	jal	x0,1154c <__subtf3+0x13f4>
   11450:	01056533          	or	x10,x10,x16
   11454:	01e56533          	or	x10,x10,x30
   11458:	00b56533          	or	x10,x10,x11
   1145c:	c80504e3          	beq	x10,x0,110e4 <__subtf3+0xf8c>
   11460:	eddff06f          	jal	x0,1133c <__subtf3+0x11e4>
   11464:	03812503          	lw	x10,56(x2)
   11468:	00050863          	beq	x10,x0,11478 <__subtf3+0x1320>
   1146c:	784000ef          	jal	x1,11bf0 <__clzsi2>
   11470:	02050513          	addi	x10,x10,32
   11474:	ed5ff06f          	jal	x0,11348 <__subtf3+0x11f0>
   11478:	03412503          	lw	x10,52(x2)
   1147c:	00050863          	beq	x10,x0,1148c <__subtf3+0x1334>
   11480:	770000ef          	jal	x1,11bf0 <__clzsi2>
   11484:	04050513          	addi	x10,x10,64
   11488:	ec1ff06f          	jal	x0,11348 <__subtf3+0x11f0>
   1148c:	03012503          	lw	x10,48(x2)
   11490:	760000ef          	jal	x1,11bf0 <__clzsi2>
   11494:	06050513          	addi	x10,x10,96
   11498:	eb1ff06f          	jal	x0,11348 <__subtf3+0x11f0>
   1149c:	03c10713          	addi	x14,x2,60
   114a0:	00269693          	slli	x13,x13,0x2
   114a4:	00300613          	addi	x12,x0,3
   114a8:	00d705b3          	add	x11,x14,x13
   114ac:	0005a583          	lw	x11,0(x11)
   114b0:	fff60613          	addi	x12,x12,-1
   114b4:	ffc70713          	addi	x14,x14,-4
   114b8:	00b72223          	sw	x11,4(x14)
   114bc:	fef656e3          	bge	x12,x15,114a8 <__subtf3+0x1350>
   114c0:	fff78713          	addi	x14,x15,-1
   114c4:	efdff06f          	jal	x0,113c0 <__subtf3+0x1268>
   114c8:	00072603          	lw	x12,0(x14)
   114cc:	ffc72883          	lw	x17,-4(x14)
   114d0:	00d70e33          	add	x28,x14,x13
   114d4:	00b61633          	sll	x12,x12,x11
   114d8:	0108d8b3          	srl	x17,x17,x16
   114dc:	01166633          	or	x12,x12,x17
   114e0:	00ce2023          	sw	x12,0(x28)
   114e4:	ffc70713          	addi	x14,x14,-4
   114e8:	eb9ff06f          	jal	x0,113a0 <__subtf3+0x1248>
   114ec:	0006a583          	lw	x11,0(x13)
   114f0:	00170713          	addi	x14,x14,1
   114f4:	00468693          	addi	x13,x13,4
   114f8:	00b36333          	or	x6,x6,x11
   114fc:	f1dff06f          	jal	x0,11418 <__subtf3+0x12c0>
   11500:	04068593          	addi	x11,x13,64
   11504:	002585b3          	add	x11,x11,x2
   11508:	ff05a583          	lw	x11,-16(x11)
   1150c:	02000813          	addi	x16,x0,32
   11510:	40a80833          	sub	x16,x16,x10
   11514:	010595b3          	sll	x11,x11,x16
   11518:	00b36333          	or	x6,x6,x11
   1151c:	00d886b3          	add	x13,x17,x13
   11520:	00000e13          	addi	x28,x0,0
   11524:	00468693          	addi	x13,x13,4
   11528:	06ee4863          	blt	x28,x14,11598 <__subtf3+0x1440>
   1152c:	00400693          	addi	x13,x0,4
   11530:	40f687b3          	sub	x15,x13,x15
   11534:	03c12683          	lw	x13,60(x2)
   11538:	00271713          	slli	x14,x14,0x2
   1153c:	04070713          	addi	x14,x14,64
   11540:	00270733          	add	x14,x14,x2
   11544:	00a6d533          	srl	x10,x13,x10
   11548:	fea72823          	sw	x10,-16(x14)
   1154c:	00400713          	addi	x14,x0,4
   11550:	40f70733          	sub	x14,x14,x15
   11554:	00271713          	slli	x14,x14,0x2
   11558:	00279793          	slli	x15,x15,0x2
   1155c:	00800693          	addi	x13,x0,8
   11560:	00f887b3          	add	x15,x17,x15
   11564:	00d76a63          	bltu	x14,x13,11578 <__subtf3+0x1420>
   11568:	0007a023          	sw	x0,0(x15)
   1156c:	0007a223          	sw	x0,4(x15)
   11570:	ff870713          	addi	x14,x14,-8
   11574:	00878793          	addi	x15,x15,8
   11578:	00400693          	addi	x13,x0,4
   1157c:	00d76463          	bltu	x14,x13,11584 <__subtf3+0x142c>
   11580:	0007a023          	sw	x0,0(x15)
   11584:	03012703          	lw	x14,48(x2)
   11588:	006037b3          	sltu	x15,x0,x6
   1158c:	00f767b3          	or	x15,x14,x15
   11590:	02f12823          	sw	x15,48(x2)
   11594:	c24ff06f          	jal	x0,109b8 <__subtf3+0x860>
   11598:	ffc6a583          	lw	x11,-4(x13)
   1159c:	0006ae83          	lw	x29,0(x13)
   115a0:	001e0e13          	addi	x28,x28,1
   115a4:	00a5d5b3          	srl	x11,x11,x10
   115a8:	010e9eb3          	sll	x29,x29,x16
   115ac:	01d5e5b3          	or	x11,x11,x29
   115b0:	00b62023          	sw	x11,0(x12)
   115b4:	00460613          	addi	x12,x12,4
   115b8:	f6dff06f          	jal	x0,11524 <__subtf3+0x13cc>
   115bc:	03c12783          	lw	x15,60(x2)
   115c0:	fff80737          	lui	x14,0xfff80
   115c4:	fff70713          	addi	x14,x14,-1 # fff7ffff <__heap_end+0xffb7ffff>
   115c8:	00e7f7b3          	and	x15,x15,x14
   115cc:	40a484b3          	sub	x9,x9,x10
   115d0:	02f12e23          	sw	x15,60(x2)
   115d4:	da1fe06f          	jal	x0,10374 <__subtf3+0x21c>
   115d8:	02012e23          	sw	x0,60(x2)
   115dc:	02012c23          	sw	x0,56(x2)
   115e0:	02012a23          	sw	x0,52(x2)
   115e4:	02012823          	sw	x0,48(x2)
   115e8:	e0dfe06f          	jal	x0,103f4 <__subtf3+0x29c>
   115ec:	07400713          	addi	x14,x0,116
   115f0:	00c74463          	blt	x14,x12,115f8 <__subtf3+0x14a0>
   115f4:	f01fe06f          	jal	x0,104f4 <__subtf3+0x39c>
   115f8:	02012623          	sw	x0,44(x2)
   115fc:	02012423          	sw	x0,40(x2)
   11600:	02012223          	sw	x0,36(x2)
   11604:	00100713          	addi	x14,x0,1
   11608:	fd9fe06f          	jal	x0,105e0 <__subtf3+0x488>
   1160c:	07400793          	addi	x15,x0,116
   11610:	9d07d463          	bge	x15,x16,107d8 <__subtf3+0x680>
   11614:	00012e23          	sw	x0,28(x2)
   11618:	00012c23          	sw	x0,24(x2)
   1161c:	00012a23          	sw	x0,20(x2)
   11620:	00100793          	addi	x15,x0,1
   11624:	accff06f          	jal	x0,108f0 <__subtf3+0x798>
   11628:	07400793          	addi	x15,x0,116
   1162c:	a517c6e3          	blt	x15,x17,11078 <__subtf3+0xf20>
   11630:	00088313          	addi	x6,x17,0
   11634:	89dff06f          	jal	x0,10ed0 <__subtf3+0xd78>

00011638 <__unordtf2>:
   11638:	00052703          	lw	x14,0(x10)
   1163c:	00452e83          	lw	x29,4(x10)
   11640:	00852e03          	lw	x28,8(x10)
   11644:	00c52503          	lw	x10,12(x10)
   11648:	00c5a603          	lw	x12,12(x11)
   1164c:	000086b7          	lui	x13,0x8
   11650:	fff68693          	addi	x13,x13,-1 # 7fff <__gdtoa+0x74b>
   11654:	01055813          	srli	x16,x10,0x10
   11658:	0005a783          	lw	x15,0(x11)
   1165c:	0045a303          	lw	x6,4(x11)
   11660:	0085a883          	lw	x17,8(x11)
   11664:	00d87833          	and	x16,x16,x13
   11668:	01065593          	srli	x11,x12,0x10
   1166c:	ff010113          	addi	x2,x2,-16
   11670:	00d5f5b3          	and	x11,x11,x13
   11674:	02d81063          	bne	x16,x13,11694 <__unordtf2+0x5c>
   11678:	01d76733          	or	x14,x14,x29
   1167c:	01051513          	slli	x10,x10,0x10
   11680:	01055513          	srli	x10,x10,0x10
   11684:	01c76733          	or	x14,x14,x28
   11688:	00a76733          	or	x14,x14,x10
   1168c:	00100513          	addi	x10,x0,1
   11690:	02071663          	bne	x14,x0,116bc <__unordtf2+0x84>
   11694:	00008737          	lui	x14,0x8
   11698:	fff70713          	addi	x14,x14,-1 # 7fff <__gdtoa+0x74b>
   1169c:	00000513          	addi	x10,x0,0
   116a0:	00e59e63          	bne	x11,x14,116bc <__unordtf2+0x84>
   116a4:	0067e533          	or	x10,x15,x6
   116a8:	01061613          	slli	x12,x12,0x10
   116ac:	01156533          	or	x10,x10,x17
   116b0:	01065613          	srli	x12,x12,0x10
   116b4:	00c56533          	or	x10,x10,x12
   116b8:	00a03533          	sltu	x10,x0,x10
   116bc:	01010113          	addi	x2,x2,16
   116c0:	00008067          	jalr	x0,0(x1)

000116c4 <__fixtfsi>:
   116c4:	00052703          	lw	x14,0(x10)
   116c8:	00452683          	lw	x13,4(x10)
   116cc:	00c52783          	lw	x15,12(x10)
   116d0:	00852583          	lw	x11,8(x10)
   116d4:	fe010113          	addi	x2,x2,-32
   116d8:	00e12023          	sw	x14,0(x2)
   116dc:	00d12223          	sw	x13,4(x2)
   116e0:	00e12823          	sw	x14,16(x2)
   116e4:	00179693          	slli	x13,x15,0x1
   116e8:	00004737          	lui	x14,0x4
   116ec:	00b12423          	sw	x11,8(x2)
   116f0:	00f12623          	sw	x15,12(x2)
   116f4:	00b12c23          	sw	x11,24(x2)
   116f8:	0116d693          	srli	x13,x13,0x11
   116fc:	ffe70713          	addi	x14,x14,-2 # 3ffe <_vfprintf_r+0x211a>
   11700:	00000513          	addi	x10,x0,0
   11704:	02d75063          	bge	x14,x13,11724 <__fixtfsi+0x60>
   11708:	00004737          	lui	x14,0x4
   1170c:	01d70713          	addi	x14,x14,29 # 401d <_vfprintf_r+0x2139>
   11710:	01f7d813          	srli	x16,x15,0x1f
   11714:	00d75c63          	bge	x14,x13,1172c <__fixtfsi+0x68>
   11718:	80000537          	lui	x10,0x80000
   1171c:	fff50513          	addi	x10,x10,-1 # 7fffffff <__heap_end+0x7fbfffff>
   11720:	00a80533          	add	x10,x16,x10
   11724:	02010113          	addi	x2,x2,32
   11728:	00008067          	jalr	x0,0(x1)
   1172c:	01079793          	slli	x15,x15,0x10
   11730:	00010737          	lui	x14,0x10
   11734:	0107d793          	srli	x15,x15,0x10
   11738:	00e7e7b3          	or	x15,x15,x14
   1173c:	00004737          	lui	x14,0x4
   11740:	06f70713          	addi	x14,x14,111 # 406f <_vfprintf_r+0x218b>
   11744:	40d70733          	sub	x14,x14,x13
   11748:	40575613          	srai	x12,x14,0x5
   1174c:	00f12e23          	sw	x15,28(x2)
   11750:	01f77713          	andi	x14,x14,31
   11754:	02071463          	bne	x14,x0,1177c <__fixtfsi+0xb8>
   11758:	00261613          	slli	x12,x12,0x2
   1175c:	02060793          	addi	x15,x12,32
   11760:	00278633          	add	x12,x15,x2
   11764:	ff062783          	lw	x15,-16(x12)
   11768:	00f12823          	sw	x15,16(x2)
   1176c:	01012503          	lw	x10,16(x2)
   11770:	fa080ae3          	beq	x16,x0,11724 <__fixtfsi+0x60>
   11774:	40a00533          	sub	x10,x0,x10
   11778:	fadff06f          	jal	x0,11724 <__fixtfsi+0x60>
   1177c:	00200513          	addi	x10,x0,2
   11780:	00000693          	addi	x13,x0,0
   11784:	02a61063          	bne	x12,x10,117a4 <__fixtfsi+0xe0>
   11788:	02000693          	addi	x13,x0,32
   1178c:	40e686b3          	sub	x13,x13,x14
   11790:	00d796b3          	sll	x13,x15,x13
   11794:	00e5d5b3          	srl	x11,x11,x14
   11798:	00b6e6b3          	or	x13,x13,x11
   1179c:	00d12823          	sw	x13,16(x2)
   117a0:	00100693          	addi	x13,x0,1
   117a4:	00269693          	slli	x13,x13,0x2
   117a8:	02068693          	addi	x13,x13,32
   117ac:	002686b3          	add	x13,x13,x2
   117b0:	00e7d7b3          	srl	x15,x15,x14
   117b4:	fef6a823          	sw	x15,-16(x13)
   117b8:	fb5ff06f          	jal	x0,1176c <__fixtfsi+0xa8>

000117bc <__floatsitf>:
   117bc:	fd010113          	addi	x2,x2,-48
   117c0:	02912223          	sw	x9,36(x2)
   117c4:	02112623          	sw	x1,44(x2)
   117c8:	02812423          	sw	x8,40(x2)
   117cc:	03212023          	sw	x18,32(x2)
   117d0:	00050493          	addi	x9,x10,0
   117d4:	12058263          	beq	x11,x0,118f8 <__floatsitf+0x13c>
   117d8:	41f5d793          	srai	x15,x11,0x1f
   117dc:	00b7c433          	xor	x8,x15,x11
   117e0:	40f40433          	sub	x8,x8,x15
   117e4:	00040513          	addi	x10,x8,0
   117e8:	01f5d913          	srli	x18,x11,0x1f
   117ec:	404000ef          	jal	x1,11bf0 <__clzsi2>
   117f0:	00004737          	lui	x14,0x4
   117f4:	01e70713          	addi	x14,x14,30 # 401e <_vfprintf_r+0x213a>
   117f8:	05150793          	addi	x15,x10,81
   117fc:	40a70633          	sub	x12,x14,x10
   11800:	00812823          	sw	x8,16(x2)
   11804:	4057d713          	srai	x14,x15,0x5
   11808:	00012a23          	sw	x0,20(x2)
   1180c:	00012c23          	sw	x0,24(x2)
   11810:	00012e23          	sw	x0,28(x2)
   11814:	01f7f793          	andi	x15,x15,31
   11818:	02078c63          	beq	x15,x0,11850 <__floatsitf+0x94>
   1181c:	00200693          	addi	x13,x0,2
   11820:	0cd71863          	bne	x14,x13,118f0 <__floatsitf+0x134>
   11824:	02000693          	addi	x13,x0,32
   11828:	40f686b3          	sub	x13,x13,x15
   1182c:	00d456b3          	srl	x13,x8,x13
   11830:	00d12e23          	sw	x13,28(x2)
   11834:	fff70693          	addi	x13,x14,-1
   11838:	00271713          	slli	x14,x14,0x2
   1183c:	02070713          	addi	x14,x14,32
   11840:	00270733          	add	x14,x14,x2
   11844:	00f41433          	sll	x8,x8,x15
   11848:	fe872823          	sw	x8,-16(x14)
   1184c:	0340006f          	jal	x0,11880 <__floatsitf+0xc4>
   11850:	00300793          	addi	x15,x0,3
   11854:	40e787b3          	sub	x15,x15,x14
   11858:	00279793          	slli	x15,x15,0x2
   1185c:	02078793          	addi	x15,x15,32
   11860:	002787b3          	add	x15,x15,x2
   11864:	ff07a783          	lw	x15,-16(x15)
   11868:	00200693          	addi	x13,x0,2
   1186c:	00f12e23          	sw	x15,28(x2)
   11870:	00200793          	addi	x15,x0,2
   11874:	00f71663          	bne	x14,x15,11880 <__floatsitf+0xc4>
   11878:	00812c23          	sw	x8,24(x2)
   1187c:	00100693          	addi	x13,x0,1
   11880:	00269693          	slli	x13,x13,0x2
   11884:	00012823          	sw	x0,16(x2)
   11888:	00012a23          	sw	x0,20(x2)
   1188c:	ffc68693          	addi	x13,x13,-4
   11890:	00400793          	addi	x15,x0,4
   11894:	00f6e463          	bltu	x13,x15,1189c <__floatsitf+0xe0>
   11898:	00012c23          	sw	x0,24(x2)
   1189c:	00090593          	addi	x11,x18,0
   118a0:	01c12783          	lw	x15,28(x2)
   118a4:	00f59413          	slli	x8,x11,0xf
   118a8:	00c46433          	or	x8,x8,x12
   118ac:	00f11623          	sh	x15,12(x2)
   118b0:	01012783          	lw	x15,16(x2)
   118b4:	00811723          	sh	x8,14(x2)
   118b8:	02c12083          	lw	x1,44(x2)
   118bc:	00f4a023          	sw	x15,0(x9)
   118c0:	01412783          	lw	x15,20(x2)
   118c4:	02812403          	lw	x8,40(x2)
   118c8:	02012903          	lw	x18,32(x2)
   118cc:	00f4a223          	sw	x15,4(x9)
   118d0:	01812783          	lw	x15,24(x2)
   118d4:	00048513          	addi	x10,x9,0
   118d8:	00f4a423          	sw	x15,8(x9)
   118dc:	00c12783          	lw	x15,12(x2)
   118e0:	00f4a623          	sw	x15,12(x9)
   118e4:	02412483          	lw	x9,36(x2)
   118e8:	03010113          	addi	x2,x2,48
   118ec:	00008067          	jalr	x0,0(x1)
   118f0:	00300713          	addi	x14,x0,3
   118f4:	f41ff06f          	jal	x0,11834 <__floatsitf+0x78>
   118f8:	00012e23          	sw	x0,28(x2)
   118fc:	00012c23          	sw	x0,24(x2)
   11900:	00012a23          	sw	x0,20(x2)
   11904:	00012823          	sw	x0,16(x2)
   11908:	00000613          	addi	x12,x0,0
   1190c:	f95ff06f          	jal	x0,118a0 <__floatsitf+0xe4>

00011910 <__extenddftf2>:
   11910:	01465713          	srli	x14,x12,0x14
   11914:	00c61793          	slli	x15,x12,0xc
   11918:	7ff77713          	andi	x14,x14,2047
   1191c:	fd010113          	addi	x2,x2,-48
   11920:	00c7d793          	srli	x15,x15,0xc
   11924:	00170693          	addi	x13,x14,1
   11928:	02812423          	sw	x8,40(x2)
   1192c:	02912223          	sw	x9,36(x2)
   11930:	03212023          	sw	x18,32(x2)
   11934:	02112623          	sw	x1,44(x2)
   11938:	00b12823          	sw	x11,16(x2)
   1193c:	00f12a23          	sw	x15,20(x2)
   11940:	00012e23          	sw	x0,28(x2)
   11944:	00012c23          	sw	x0,24(x2)
   11948:	7fe6f693          	andi	x13,x13,2046
   1194c:	00050913          	addi	x18,x10,0
   11950:	00058413          	addi	x8,x11,0
   11954:	01f65493          	srli	x9,x12,0x1f
   11958:	08068263          	beq	x13,x0,119dc <__extenddftf2+0xcc>
   1195c:	000046b7          	lui	x13,0x4
   11960:	c0068693          	addi	x13,x13,-1024 # 3c00 <_vfprintf_r+0x1d1c>
   11964:	00d70733          	add	x14,x14,x13
   11968:	0047d693          	srli	x13,x15,0x4
   1196c:	00d12e23          	sw	x13,28(x2)
   11970:	01c79793          	slli	x15,x15,0x1c
   11974:	0045d693          	srli	x13,x11,0x4
   11978:	00d7e7b3          	or	x15,x15,x13
   1197c:	01c59413          	slli	x8,x11,0x1c
   11980:	00f12c23          	sw	x15,24(x2)
   11984:	00812a23          	sw	x8,20(x2)
   11988:	00012823          	sw	x0,16(x2)
   1198c:	01c12783          	lw	x15,28(x2)
   11990:	00f49493          	slli	x9,x9,0xf
   11994:	00e4e4b3          	or	x9,x9,x14
   11998:	00f11623          	sh	x15,12(x2)
   1199c:	01012783          	lw	x15,16(x2)
   119a0:	00911723          	sh	x9,14(x2)
   119a4:	02c12083          	lw	x1,44(x2)
   119a8:	00f92023          	sw	x15,0(x18)
   119ac:	01412783          	lw	x15,20(x2)
   119b0:	02812403          	lw	x8,40(x2)
   119b4:	02412483          	lw	x9,36(x2)
   119b8:	00f92223          	sw	x15,4(x18)
   119bc:	01812783          	lw	x15,24(x2)
   119c0:	00090513          	addi	x10,x18,0
   119c4:	00f92423          	sw	x15,8(x18)
   119c8:	00c12783          	lw	x15,12(x2)
   119cc:	00f92623          	sw	x15,12(x18)
   119d0:	02012903          	lw	x18,32(x2)
   119d4:	03010113          	addi	x2,x2,48
   119d8:	00008067          	jalr	x0,0(x1)
   119dc:	00b7e533          	or	x10,x15,x11
   119e0:	0e071e63          	bne	x14,x0,11adc <__extenddftf2+0x1cc>
   119e4:	fa0504e3          	beq	x10,x0,1198c <__extenddftf2+0x7c>
   119e8:	04078e63          	beq	x15,x0,11a44 <__extenddftf2+0x134>
   119ec:	00078513          	addi	x10,x15,0
   119f0:	200000ef          	jal	x1,11bf0 <__clzsi2>
   119f4:	03150693          	addi	x13,x10,49
   119f8:	4056d713          	srai	x14,x13,0x5
   119fc:	01f6f693          	andi	x13,x13,31
   11a00:	40e007b3          	sub	x15,x0,x14
   11a04:	04068663          	beq	x13,x0,11a50 <__extenddftf2+0x140>
   11a08:	00279793          	slli	x15,x15,0x2
   11a0c:	00c78613          	addi	x12,x15,12
   11a10:	02000813          	addi	x16,x0,32
   11a14:	01010313          	addi	x6,x2,16
   11a18:	40d80833          	sub	x16,x16,x13
   11a1c:	00c30633          	add	x12,x6,x12
   11a20:	40f007b3          	sub	x15,x0,x15
   11a24:	08c31a63          	bne	x6,x12,11ab8 <__extenddftf2+0x1a8>
   11a28:	fff70793          	addi	x15,x14,-1
   11a2c:	00271713          	slli	x14,x14,0x2
   11a30:	02070713          	addi	x14,x14,32
   11a34:	00270733          	add	x14,x14,x2
   11a38:	00d416b3          	sll	x13,x8,x13
   11a3c:	fed72823          	sw	x13,-16(x14)
   11a40:	0380006f          	jal	x0,11a78 <__extenddftf2+0x168>
   11a44:	1ac000ef          	jal	x1,11bf0 <__clzsi2>
   11a48:	02050513          	addi	x10,x10,32
   11a4c:	fa9ff06f          	jal	x0,119f4 <__extenddftf2+0xe4>
   11a50:	01c10693          	addi	x13,x2,28
   11a54:	00279793          	slli	x15,x15,0x2
   11a58:	00300613          	addi	x12,x0,3
   11a5c:	00f685b3          	add	x11,x13,x15
   11a60:	0005a583          	lw	x11,0(x11)
   11a64:	fff60613          	addi	x12,x12,-1
   11a68:	ffc68693          	addi	x13,x13,-4
   11a6c:	00b6a223          	sw	x11,4(x13)
   11a70:	fee656e3          	bge	x12,x14,11a5c <__extenddftf2+0x14c>
   11a74:	fff70793          	addi	x15,x14,-1
   11a78:	00178793          	addi	x15,x15,1
   11a7c:	00279793          	slli	x15,x15,0x2
   11a80:	00800693          	addi	x13,x0,8
   11a84:	01010713          	addi	x14,x2,16
   11a88:	00d7ea63          	bltu	x15,x13,11a9c <__extenddftf2+0x18c>
   11a8c:	00012823          	sw	x0,16(x2)
   11a90:	00072223          	sw	x0,4(x14)
   11a94:	ff878793          	addi	x15,x15,-8
   11a98:	01810713          	addi	x14,x2,24
   11a9c:	00400693          	addi	x13,x0,4
   11aa0:	00d7e463          	bltu	x15,x13,11aa8 <__extenddftf2+0x198>
   11aa4:	00072023          	sw	x0,0(x14)
   11aa8:	00004737          	lui	x14,0x4
   11aac:	c0c70713          	addi	x14,x14,-1012 # 3c0c <_vfprintf_r+0x1d28>
   11ab0:	40a70733          	sub	x14,x14,x10
   11ab4:	ed9ff06f          	jal	x0,1198c <__extenddftf2+0x7c>
   11ab8:	00062583          	lw	x11,0(x12)
   11abc:	ffc62883          	lw	x17,-4(x12)
   11ac0:	00f60e33          	add	x28,x12,x15
   11ac4:	00d595b3          	sll	x11,x11,x13
   11ac8:	0108d8b3          	srl	x17,x17,x16
   11acc:	0115e5b3          	or	x11,x11,x17
   11ad0:	00be2023          	sw	x11,0(x28)
   11ad4:	ffc60613          	addi	x12,x12,-4
   11ad8:	f4dff06f          	jal	x0,11a24 <__extenddftf2+0x114>
   11adc:	02050863          	beq	x10,x0,11b0c <__extenddftf2+0x1fc>
   11ae0:	01c79713          	slli	x14,x15,0x1c
   11ae4:	0045d693          	srli	x13,x11,0x4
   11ae8:	00d76733          	or	x14,x14,x13
   11aec:	00e12c23          	sw	x14,24(x2)
   11af0:	0047d793          	srli	x15,x15,0x4
   11af4:	00008737          	lui	x14,0x8
   11af8:	01c59413          	slli	x8,x11,0x1c
   11afc:	00e7e7b3          	or	x15,x15,x14
   11b00:	00812a23          	sw	x8,20(x2)
   11b04:	00012823          	sw	x0,16(x2)
   11b08:	00f12e23          	sw	x15,28(x2)
   11b0c:	00008737          	lui	x14,0x8
   11b10:	fff70713          	addi	x14,x14,-1 # 7fff <__gdtoa+0x74b>
   11b14:	e79ff06f          	jal	x0,1198c <__extenddftf2+0x7c>

00011b18 <__mulsi3>:
   11b18:	00050613          	addi	x12,x10,0
   11b1c:	00000513          	addi	x10,x0,0
   11b20:	0015f693          	andi	x13,x11,1
   11b24:	00068463          	beq	x13,x0,11b2c <__mulsi3+0x14>
   11b28:	00c50533          	add	x10,x10,x12
   11b2c:	0015d593          	srli	x11,x11,0x1
   11b30:	00161613          	slli	x12,x12,0x1
   11b34:	fe0596e3          	bne	x11,x0,11b20 <__mulsi3+0x8>
   11b38:	00008067          	jalr	x0,0(x1)

00011b3c <__divsi3>:
   11b3c:	06054063          	blt	x10,x0,11b9c <__umodsi3+0x10>
   11b40:	0605c663          	blt	x11,x0,11bac <__umodsi3+0x20>

00011b44 <__hidden___udivsi3>:
   11b44:	00058613          	addi	x12,x11,0
   11b48:	00050593          	addi	x11,x10,0
   11b4c:	fff00513          	addi	x10,x0,-1
   11b50:	02060c63          	beq	x12,x0,11b88 <__hidden___udivsi3+0x44>
   11b54:	00100693          	addi	x13,x0,1
   11b58:	00b67a63          	bgeu	x12,x11,11b6c <__hidden___udivsi3+0x28>
   11b5c:	00c05863          	bge	x0,x12,11b6c <__hidden___udivsi3+0x28>
   11b60:	00161613          	slli	x12,x12,0x1
   11b64:	00169693          	slli	x13,x13,0x1
   11b68:	feb66ae3          	bltu	x12,x11,11b5c <__hidden___udivsi3+0x18>
   11b6c:	00000513          	addi	x10,x0,0
   11b70:	00c5e663          	bltu	x11,x12,11b7c <__hidden___udivsi3+0x38>
   11b74:	40c585b3          	sub	x11,x11,x12
   11b78:	00d56533          	or	x10,x10,x13
   11b7c:	0016d693          	srli	x13,x13,0x1
   11b80:	00165613          	srli	x12,x12,0x1
   11b84:	fe0696e3          	bne	x13,x0,11b70 <__hidden___udivsi3+0x2c>
   11b88:	00008067          	jalr	x0,0(x1)

00011b8c <__umodsi3>:
   11b8c:	00008293          	addi	x5,x1,0
   11b90:	fb5ff0ef          	jal	x1,11b44 <__hidden___udivsi3>
   11b94:	00058513          	addi	x10,x11,0
   11b98:	00028067          	jalr	x0,0(x5)
   11b9c:	40a00533          	sub	x10,x0,x10
   11ba0:	00b04863          	blt	x0,x11,11bb0 <__umodsi3+0x24>
   11ba4:	40b005b3          	sub	x11,x0,x11
   11ba8:	f9dff06f          	jal	x0,11b44 <__hidden___udivsi3>
   11bac:	40b005b3          	sub	x11,x0,x11
   11bb0:	00008293          	addi	x5,x1,0
   11bb4:	f91ff0ef          	jal	x1,11b44 <__hidden___udivsi3>
   11bb8:	40a00533          	sub	x10,x0,x10
   11bbc:	00028067          	jalr	x0,0(x5)

00011bc0 <__modsi3>:
   11bc0:	00008293          	addi	x5,x1,0
   11bc4:	0005ca63          	blt	x11,x0,11bd8 <__modsi3+0x18>
   11bc8:	00054c63          	blt	x10,x0,11be0 <__modsi3+0x20>
   11bcc:	f79ff0ef          	jal	x1,11b44 <__hidden___udivsi3>
   11bd0:	00058513          	addi	x10,x11,0
   11bd4:	00028067          	jalr	x0,0(x5)
   11bd8:	40b005b3          	sub	x11,x0,x11
   11bdc:	fe0558e3          	bge	x10,x0,11bcc <__modsi3+0xc>
   11be0:	40a00533          	sub	x10,x0,x10
   11be4:	f61ff0ef          	jal	x1,11b44 <__hidden___udivsi3>
   11be8:	40b00533          	sub	x10,x0,x11
   11bec:	00028067          	jalr	x0,0(x5)

00011bf0 <__clzsi2>:
   11bf0:	000107b7          	lui	x15,0x10
   11bf4:	02f57a63          	bgeu	x10,x15,11c28 <__clzsi2+0x38>
   11bf8:	10053793          	sltiu	x15,x10,256
   11bfc:	0017b793          	sltiu	x15,x15,1
   11c00:	00379793          	slli	x15,x15,0x3
   11c04:	00012737          	lui	x14,0x12
   11c08:	02000693          	addi	x13,x0,32
   11c0c:	40f686b3          	sub	x13,x13,x15
   11c10:	00f55533          	srl	x10,x10,x15
   11c14:	78870793          	addi	x15,x14,1928 # 12788 <__clz_tab>
   11c18:	00a787b3          	add	x15,x15,x10
   11c1c:	0007c503          	lbu	x10,0(x15) # 10000 <__multf3+0x125c>
   11c20:	40a68533          	sub	x10,x13,x10
   11c24:	00008067          	jalr	x0,0(x1)
   11c28:	01000737          	lui	x14,0x1000
   11c2c:	01800793          	addi	x15,x0,24
   11c30:	fce57ae3          	bgeu	x10,x14,11c04 <__clzsi2+0x14>
   11c34:	01000793          	addi	x15,x0,16
   11c38:	fcdff06f          	jal	x0,11c04 <__clzsi2+0x14>
