
/home/kutaybulun/corev/core-v-verif/cv32e40p/tests/programs/custom/hello-world/hello-world.elf:     file format elf32-littleriscv


Disassembly of section .vectors:

00000000 <__vector_start>:
.section .vectors, "ax"
.option norvc
.global vector_table

vector_table:
	j u_sw_irq_handler
   0:	2380006f          	jal	x0,238 <u_sw_irq_handler>
	j __no_irq_handler
   4:	2000006f          	jal	x0,204 <__no_irq_handler>
	j __no_irq_handler
   8:	1fc0006f          	jal	x0,204 <__no_irq_handler>
	j m_software_irq_handler
   c:	2060006f          	jal	x0,212 <m_software_irq_handler>
	j __no_irq_handler
  10:	1f40006f          	jal	x0,204 <__no_irq_handler>
	j __no_irq_handler
  14:	1f00006f          	jal	x0,204 <__no_irq_handler>
	j __no_irq_handler
  18:	1ec0006f          	jal	x0,204 <__no_irq_handler>
	j m_timer_irq_handler
  1c:	1f80006f          	jal	x0,214 <m_timer_irq_handler>
	j __no_irq_handler
  20:	1e40006f          	jal	x0,204 <__no_irq_handler>
	j __no_irq_handler
  24:	1e00006f          	jal	x0,204 <__no_irq_handler>
	j __no_irq_handler
  28:	1dc0006f          	jal	x0,204 <__no_irq_handler>
	j m_external_irq_handler
  2c:	1ea0006f          	jal	x0,216 <m_external_irq_handler>
	j __no_irq_handler
  30:	1d40006f          	jal	x0,204 <__no_irq_handler>
	j __no_irq_handler
  34:	1d00006f          	jal	x0,204 <__no_irq_handler>
	j __no_irq_handler
  38:	1cc0006f          	jal	x0,204 <__no_irq_handler>
	j __no_irq_handler
  3c:	1c80006f          	jal	x0,204 <__no_irq_handler>
	j m_fast0_irq_handler
  40:	1d80006f          	jal	x0,218 <m_fast0_irq_handler>
	j m_fast1_irq_handler
  44:	1d60006f          	jal	x0,21a <m_fast1_irq_handler>
	j m_fast2_irq_handler
  48:	1d40006f          	jal	x0,21c <m_fast2_irq_handler>
	j m_fast3_irq_handler
  4c:	1d20006f          	jal	x0,21e <m_fast3_irq_handler>
	j m_fast4_irq_handler
  50:	1d00006f          	jal	x0,220 <m_fast4_irq_handler>
	j m_fast5_irq_handler
  54:	1ce0006f          	jal	x0,222 <m_fast5_irq_handler>
	j m_fast6_irq_handler
  58:	1cc0006f          	jal	x0,224 <m_fast6_irq_handler>
	j m_fast7_irq_handler
  5c:	1ca0006f          	jal	x0,226 <m_fast7_irq_handler>
	j m_fast8_irq_handler
  60:	1c80006f          	jal	x0,228 <m_fast8_irq_handler>
	j m_fast9_irq_handler
  64:	1c60006f          	jal	x0,22a <m_fast9_irq_handler>
	j m_fast10_irq_handler
  68:	1c40006f          	jal	x0,22c <m_fast10_irq_handler>
	j m_fast11_irq_handler
  6c:	1c20006f          	jal	x0,22e <m_fast11_irq_handler>
	j m_fast12_irq_handler
  70:	1c00006f          	jal	x0,230 <m_fast12_irq_handler>
	j m_fast13_irq_handler
  74:	1be0006f          	jal	x0,232 <m_fast13_irq_handler>
	j m_fast14_irq_handler
  78:	1bc0006f          	jal	x0,234 <m_fast14_irq_handler>
	j m_fast15_irq_handler
  7c:	1ba0006f          	jal	x0,236 <m_fast15_irq_handler>

Disassembly of section .init:

00000080 <_start>:

_start:
/* initialize global pointer */
.option push
.option norelax
1:	auipc gp, %pcrel_hi(__global_pointer$)
  80:	00013197          	auipc	x3,0x13
	addi  gp, gp, %pcrel_lo(1b)
  84:	0c018193          	addi	x3,x3,192 # 13140 <__global_pointer$>
.option pop

/* initialize stack pointer */
	la sp, __stack_end
  88:	00400117          	auipc	x2,0x400
  8c:	f7810113          	addi	x2,x2,-136 # 400000 <__heap_end>

/* set vector table address */
	la a0, __vector_start
  90:	00000517          	auipc	x10,0x0
  94:	f7050513          	addi	x10,x10,-144 # 0 <__vector_start>
	ori a0, a0, 1 /*vector mode = vectored */
  98:	00156513          	ori	x10,x10,1
	csrw mtvec, a0
  9c:	30551073          	csrrw	x0,mtvec,x10

/* clear the bss segment */
	la a0, _edata
  a0:	f1818513          	addi	x10,x3,-232 # 13058 <__stdio_exit_handler>
	la a2, _end
  a4:	22418613          	addi	x12,x3,548 # 13364 <__bss_end>
	sub a2, a2, a0
  a8:	8e09                	c.sub	x12,x10
	li a1, 0
  aa:	4581                	c.li	x11,0
	call memset
  ac:	705000ef          	jal	x1,fb0 <memset>

/* new-style constructors and destructors */
	la a0, __libc_fini_array
  b0:	00001517          	auipc	x10,0x1
  b4:	ea450513          	addi	x10,x10,-348 # f54 <__libc_fini_array>
	call atexit
  b8:	2961                	c.jal	550 <atexit>
	call __libc_init_array
  ba:	5ff000ef          	jal	x1,eb8 <__libc_init_array>
//	lw a0, 0(sp)                    /* a0 = argc */
//	addi a1, sp, __SIZEOF_POINTER__ /* a1 = argv */
//	li a2, 0                        /* a2 = envp = NULL */
// Initialize these variables to 0. Cannot use argc or argv
// since the stack is not initialized
	li a0, 0
  be:	4501                	c.li	x10,0
	li a1, 0
  c0:	4581                	c.li	x11,0
	li a2, 0
  c2:	4601                	c.li	x12,0

	call main
  c4:	2815                	c.jal	f8 <main>
	tail exit
  c6:	a019                	c.j	cc <exit>

000000c8 <_fini>:
.type   _fini, @function
_init:
_fini:
 /* These don't have to do anything since we use init_array/fini_array. Prevent
    missing symbol error */
	ret
  c8:	8082                	c.jr	x1

Disassembly of section .text:

000000cc <exit>:
      cc:	ff010113          	addi	x2,x2,-16
      d0:	00000593          	addi	x11,x0,0
      d4:	00812423          	sw	x8,8(x2)
      d8:	00112623          	sw	x1,12(x2)
      dc:	00050413          	addi	x8,x10,0
      e0:	0d0010ef          	jal	x1,11b0 <__call_exitprocs>
      e4:	f181a783          	lw	x15,-232(x3) # 13058 <__stdio_exit_handler>
      e8:	00078463          	beq	x15,x0,f0 <exit+0x24>
      ec:	000780e7          	jalr	x1,0(x15)
      f0:	00040513          	addi	x10,x8,0
      f4:	25c000ef          	jal	x1,350 <_exit>

000000f8 <main>:
#define EXP_MISA 0x40801104
#endif


int main(int argc, char *argv[])
{
      f8:	1141                	c.addi	x2,-16
      fa:	c606                	c.swsp	x1,12(x2)
      fc:	c422                	c.swsp	x8,8(x2)
             int reserved, tentative, nonstd, user, super;

    mxl = 0; reserved = 0; tentative = 0; nonstd = 0; user = 0; super = 0;

    /* inline assembly: read mvendorid and misa */
    __asm__ volatile("csrr %0, 0xF11" : "=r"(mvendorid_rval));
      fe:	f11025f3          	csrrs	x11,mvendorid,x0
    __asm__ volatile("csrr %0, 0x301" : "=r"(misa_rval));
     102:	30102473          	csrrs	x8,misa,x0
    __asm__ volatile("csrr %0, 0xF12" : "=r"(marchid_rval));
     106:	f1202773          	csrrs	x14,marchid,x0
    __asm__ volatile("csrr %0, 0xF13" : "=r"(mimpid_rval));
     10a:	f13027f3          	csrrs	x15,mimpid,x0

    /* Check MVENDORID CSR: 0x602 is the value assigned by JEDEC to the OpenHW Group */
    if (mvendorid_rval != 0x00000602) {
     10e:	60200693          	addi	x13,x0,1538
     112:	00d58863          	beq	x11,x13,122 <main+0x2a>
      printf("\tERROR: CSR MVENDORID reads as 0x%x - should be 0x00000602 for the OpenHW Group.\n\n", mvendorid_rval);
     116:	6549                	c.lui	x10,0x12
     118:	c4050513          	addi	x10,x10,-960 # 11c40 <__clzsi2+0x50>
      return EXIT_FAILURE;
    }

    /* Check MARCHID CSR: 0x4 is the value assigned by the RISC-V Foundation to CV32E40P */
    if (marchid_rval != 0x00000004) {
      printf("\tERROR: CSR MARCHID reads as 0x%x - should be 0x00000004 for CV32E40P.\n\n", marchid_rval);
     11c:	095000ef          	jal	x1,9b0 <printf>
      return EXIT_FAILURE;
     120:	a829                	c.j	13a <main+0x42>
    if (misa_rval != EXP_MISA) {
     122:	40001637          	lui	x12,0x40001
     126:	10460613          	addi	x12,x12,260 # 40001104 <__heap_end+0x3fc01104>
     12a:	00c40d63          	beq	x8,x12,144 <main+0x4c>
      printf("\tERROR: CSR MISA reads as 0x%x - should be 0x%x for this release of CV32E40P!\n\n", misa_rval, EXP_MISA);
     12e:	6549                	c.lui	x10,0x12
     130:	85a2                	c.mv	x11,x8
     132:	c9450513          	addi	x10,x10,-876 # 11c94 <__clzsi2+0xa4>
     136:	07b000ef          	jal	x1,9b0 <printf>
      return EXIT_FAILURE;
     13a:	4505                	c.li	x10,1
    }
    else {
      printf("\n");
      return EXIT_SUCCESS;
    }
}
     13c:	40b2                	c.lwsp	x1,12(x2)
     13e:	4422                	c.lwsp	x8,8(x2)
     140:	0141                	c.addi	x2,16
     142:	8082                	c.jr	x1
    if (marchid_rval != 0x00000004) {
     144:	4691                	c.li	x13,4
     146:	00d70763          	beq	x14,x13,154 <main+0x5c>
      printf("\tERROR: CSR MARCHID reads as 0x%x - should be 0x00000004 for CV32E40P.\n\n", marchid_rval);
     14a:	6549                	c.lui	x10,0x12
     14c:	85ba                	c.mv	x11,x14
     14e:	ce450513          	addi	x10,x10,-796 # 11ce4 <__clzsi2+0xf4>
     152:	b7e9                	c.j	11c <main+0x24>
    if (mimpid_rval != 0x00000000) {
     154:	c791                	c.beqz	x15,160 <main+0x68>
      printf("\tERROR: CSR MIMPID reads as 0x%x - should be 0x00000000 for this release of CV32E40P.\n\n", mimpid_rval);
     156:	6549                	c.lui	x10,0x12
     158:	85be                	c.mv	x11,x15
     15a:	d3050513          	addi	x10,x10,-720 # 11d30 <__clzsi2+0x140>
     15e:	bf7d                	c.j	11c <main+0x24>
    printf("\nHELLO WORLD!!!\n");
     160:	6549                	c.lui	x10,0x12
     162:	d8850513          	addi	x10,x10,-632 # 11d88 <__clzsi2+0x198>
     166:	183000ef          	jal	x1,ae8 <puts>
    printf("This is the OpenHW Group CV32E40P CORE-V processor core.\n");
     16a:	6549                	c.lui	x10,0x12
     16c:	d9850513          	addi	x10,x10,-616 # 11d98 <__clzsi2+0x1a8>
     170:	179000ef          	jal	x1,ae8 <puts>
    printf("CV32E40P is a RISC-V ISA compliant core with the following attributes:\n");
     174:	6549                	c.lui	x10,0x12
     176:	dd450513          	addi	x10,x10,-556 # 11dd4 <__clzsi2+0x1e4>
     17a:	16f000ef          	jal	x1,ae8 <puts>
    printf("\tmvendorid = 0x%x\n", mvendorid_rval);
     17e:	6549                	c.lui	x10,0x12
     180:	60200593          	addi	x11,x0,1538
     184:	e1c50513          	addi	x10,x10,-484 # 11e1c <__clzsi2+0x22c>
     188:	029000ef          	jal	x1,9b0 <printf>
    printf("\tmarchid   = 0x%x\n", marchid_rval);
     18c:	6549                	c.lui	x10,0x12
     18e:	4591                	c.li	x11,4
     190:	e3050513          	addi	x10,x10,-464 # 11e30 <__clzsi2+0x240>
     194:	01d000ef          	jal	x1,9b0 <printf>
    printf("\tmimpid    = 0x%x\n", mimpid_rval);
     198:	6549                	c.lui	x10,0x12
     19a:	4581                	c.li	x11,0
     19c:	e4450513          	addi	x10,x10,-444 # 11e44 <__clzsi2+0x254>
     1a0:	011000ef          	jal	x1,9b0 <printf>
    printf("\tmisa      = 0x%x\n", misa_rval);
     1a4:	6549                	c.lui	x10,0x12
     1a6:	85a2                	c.mv	x11,x8
     1a8:	e5850513          	addi	x10,x10,-424 # 11e58 <__clzsi2+0x268>
     1ac:	005000ef          	jal	x1,9b0 <printf>
      case 1:  printf("\tXLEN is 32-bits\n");
     1b0:	6549                	c.lui	x10,0x12
     1b2:	e6c50513          	addi	x10,x10,-404 # 11e6c <__clzsi2+0x27c>
     1b6:	133000ef          	jal	x1,ae8 <puts>
    printf("\tSupported Instructions Extensions: ");
     1ba:	6549                	c.lui	x10,0x12
     1bc:	e8050513          	addi	x10,x10,-384 # 11e80 <__clzsi2+0x290>
     1c0:	7f0000ef          	jal	x1,9b0 <printf>
    if ((misa_rval >> 12) & 0x00000001) printf("M");
     1c4:	04d00513          	addi	x10,x0,77
     1c8:	03d000ef          	jal	x1,a04 <putchar>
    if ((misa_rval >>  8) & 0x00000001) printf("I");
     1cc:	04900513          	addi	x10,x0,73
     1d0:	035000ef          	jal	x1,a04 <putchar>
    if ((misa_rval >>  2) & 0x00000001) printf("C");
     1d4:	04300513          	addi	x10,x0,67
     1d8:	02d000ef          	jal	x1,a04 <putchar>
    printf("\n");
     1dc:	4529                	c.li	x10,10
     1de:	027000ef          	jal	x1,a04 <putchar>
      printf("\n");
     1e2:	4529                	c.li	x10,10
     1e4:	021000ef          	jal	x1,a04 <putchar>
      return EXIT_SUCCESS;
     1e8:	4501                	c.li	x10,0
     1ea:	bf89                	c.j	13c <main+0x44>

000001ec <register_fini>:
     1ec:	00000793          	addi	x15,x0,0
     1f0:	00078863          	beq	x15,x0,200 <register_fini+0x14>
     1f4:	00001537          	lui	x10,0x1
     1f8:	f5450513          	addi	x10,x10,-172 # f54 <__libc_fini_array>
     1fc:	3540006f          	jal	x0,550 <atexit>
     200:	00008067          	jalr	x0,0(x1)

00000204 <__no_irq_handler>:
.weak m_fast15_irq_handler


/* exception handling */
__no_irq_handler:
	la a0, no_exception_handler_msg
     204:	00012517          	auipc	x10,0x12
     208:	ea450513          	addi	x10,x10,-348 # 120a8 <no_exception_handler_msg>
	jal ra, puts
     20c:	0dd000ef          	jal	x1,ae8 <puts>
	j __no_irq_handler
     210:	bfd5                	c.j	204 <__no_irq_handler>

00000212 <m_software_irq_handler>:

m_software_irq_handler:
	j __no_irq_handler
     212:	bfcd                	c.j	204 <__no_irq_handler>

00000214 <m_timer_irq_handler>:

m_timer_irq_handler:
	j __no_irq_handler
     214:	bfc5                	c.j	204 <__no_irq_handler>

00000216 <m_external_irq_handler>:

m_external_irq_handler:
	j __no_irq_handler
     216:	b7fd                	c.j	204 <__no_irq_handler>

00000218 <m_fast0_irq_handler>:

m_fast0_irq_handler:
	j __no_irq_handler
     218:	b7f5                	c.j	204 <__no_irq_handler>

0000021a <m_fast1_irq_handler>:

m_fast1_irq_handler:
	j __no_irq_handler
     21a:	b7ed                	c.j	204 <__no_irq_handler>

0000021c <m_fast2_irq_handler>:

m_fast2_irq_handler:
	j __no_irq_handler
     21c:	b7e5                	c.j	204 <__no_irq_handler>

0000021e <m_fast3_irq_handler>:

m_fast3_irq_handler:
	j __no_irq_handler
     21e:	b7dd                	c.j	204 <__no_irq_handler>

00000220 <m_fast4_irq_handler>:

m_fast4_irq_handler:
	j __no_irq_handler
     220:	b7d5                	c.j	204 <__no_irq_handler>

00000222 <m_fast5_irq_handler>:

m_fast5_irq_handler:
	j __no_irq_handler
     222:	b7cd                	c.j	204 <__no_irq_handler>

00000224 <m_fast6_irq_handler>:

m_fast6_irq_handler:
	j __no_irq_handler
     224:	b7c5                	c.j	204 <__no_irq_handler>

00000226 <m_fast7_irq_handler>:

m_fast7_irq_handler:
	j __no_irq_handler
     226:	bff9                	c.j	204 <__no_irq_handler>

00000228 <m_fast8_irq_handler>:

m_fast8_irq_handler:
	j __no_irq_handler
     228:	bff1                	c.j	204 <__no_irq_handler>

0000022a <m_fast9_irq_handler>:

m_fast9_irq_handler:
	j __no_irq_handler
     22a:	bfe9                	c.j	204 <__no_irq_handler>

0000022c <m_fast10_irq_handler>:

m_fast10_irq_handler:
	j __no_irq_handler
     22c:	bfe1                	c.j	204 <__no_irq_handler>

0000022e <m_fast11_irq_handler>:

m_fast11_irq_handler:
	j __no_irq_handler
     22e:	bfd9                	c.j	204 <__no_irq_handler>

00000230 <m_fast12_irq_handler>:

m_fast12_irq_handler:
	j __no_irq_handler
     230:	bfd1                	c.j	204 <__no_irq_handler>

00000232 <m_fast13_irq_handler>:

m_fast13_irq_handler:
	j __no_irq_handler
     232:	bfc9                	c.j	204 <__no_irq_handler>

00000234 <m_fast14_irq_handler>:

m_fast14_irq_handler:
	j __no_irq_handler
     234:	bfc1                	c.j	204 <__no_irq_handler>

00000236 <m_fast15_irq_handler>:

m_fast15_irq_handler:
	j __no_irq_handler
     236:	b7f9                	c.j	204 <__no_irq_handler>

00000238 <u_sw_irq_handler>:

u_sw_irq_handler:
	/* While we are still using puts in handlers, save all caller saved
	   regs.  Eventually, some of these saves could be deferred.  */
	addi sp,sp,-64
     238:	7139                	c.addi16sp	x2,-64
	sw ra, 0(sp)
     23a:	c006                	c.swsp	x1,0(x2)
	sw a0, 4(sp)
     23c:	c22a                	c.swsp	x10,4(x2)
	sw a1, 8(sp)
     23e:	c42e                	c.swsp	x11,8(x2)
	sw a2, 12(sp)
     240:	c632                	c.swsp	x12,12(x2)
	sw a3, 16(sp)
     242:	c836                	c.swsp	x13,16(x2)
	sw a4, 20(sp)
     244:	ca3a                	c.swsp	x14,20(x2)
	sw a5, 24(sp)
     246:	cc3e                	c.swsp	x15,24(x2)
	sw a6, 28(sp)
     248:	ce42                	c.swsp	x16,28(x2)
	sw a7, 32(sp)
     24a:	d046                	c.swsp	x17,32(x2)
	sw t0, 36(sp)
     24c:	d216                	c.swsp	x5,36(x2)
	sw t1, 40(sp)
     24e:	d41a                	c.swsp	x6,40(x2)
	sw t2, 44(sp)
     250:	d61e                	c.swsp	x7,44(x2)
	sw t3, 48(sp)
     252:	d872                	c.swsp	x28,48(x2)
	sw t4, 52(sp)
     254:	da76                	c.swsp	x29,52(x2)
	sw t5, 56(sp)
     256:	dc7a                	c.swsp	x30,56(x2)
	sw t6, 60(sp)
     258:	de7e                	c.swsp	x31,60(x2)
	csrr t0, mcause
     25a:	342022f3          	csrrs	x5,mcause,x0
	li t1, EXCEPTION_ILLEGAL_INSN
     25e:	4309                	c.li	x6,2
	beq t0, t1, handle_illegal_insn
     260:	02628363          	beq	x5,x6,286 <handle_illegal_insn>
	li t1, EXCEPTION_ECALL_M
     264:	432d                	c.li	x6,11
	beq t0, t1, handle_ecall
     266:	00628663          	beq	x5,x6,272 <handle_ecall>
	li t1, EXCEPTION_BREAKPOINT
     26a:	430d                	c.li	x6,3
	beq t0, t1, handle_ebreak
     26c:	00628663          	beq	x5,x6,278 <handle_ebreak>
	j handle_unknown
     270:	a015                	c.j	294 <handle_unknown>

00000272 <handle_ecall>:

handle_ecall:
	jal ra, handle_syscall
     272:	204000ef          	jal	x1,476 <handle_syscall>
	j end_handler_incr_mepc
     276:	a035                	c.j	2a2 <end_handler_incr_mepc>

00000278 <handle_ebreak>:

handle_ebreak:
	/* TODO support debug handling requirements.  */
	la a0, ebreak_msg
     278:	00012517          	auipc	x10,0x12
     27c:	dcf50513          	addi	x10,x10,-561 # 12047 <ebreak_msg>
	jal ra, puts
     280:	069000ef          	jal	x1,ae8 <puts>
	j end_handler_incr_mepc
     284:	a839                	c.j	2a2 <end_handler_incr_mepc>

00000286 <handle_illegal_insn>:

handle_illegal_insn:
	la a0, illegal_insn_msg
     286:	00012517          	auipc	x10,0x12
     28a:	d5550513          	addi	x10,x10,-683 # 11fdb <illegal_insn_msg>
	jal ra, puts
     28e:	05b000ef          	jal	x1,ae8 <puts>
	j end_handler_incr_mepc
     292:	a801                	c.j	2a2 <end_handler_incr_mepc>

00000294 <handle_unknown>:

handle_unknown:
	la a0, unknown_msg
     294:	00012517          	auipc	x10,0x12
     298:	de350513          	addi	x10,x10,-541 # 12077 <unknown_msg>
	jal ra, puts
     29c:	04d000ef          	jal	x1,ae8 <puts>
	/* We don't know what interrupt/exception is being handled, so don't
	   increment mepc.  */
	j end_handler_ret
     2a0:	a831                	c.j	2bc <end_handler_ret>

000002a2 <end_handler_incr_mepc>:

end_handler_incr_mepc:
	csrr t0, mepc
     2a2:	341022f3          	csrrs	x5,mepc,x0
	lb t1, 0(t0)
     2a6:	00028303          	lb	x6,0(x5)
	li a0, 0x3
     2aa:	450d                	c.li	x10,3
	and t1, t1, a0
     2ac:	00a37333          	and	x6,x6,x10
	/* Increment mepc by 2 or 4 depending on whether the instruction at mepc
	   is compressed or not.  */
	bne t1, a0, end_handler_incr_mepc2
     2b0:	00a31363          	bne	x6,x10,2b6 <end_handler_incr_mepc2>
	addi t0, t0, 2
     2b4:	0289                	c.addi	x5,2

000002b6 <end_handler_incr_mepc2>:
end_handler_incr_mepc2:
	addi t0, t0, 2
     2b6:	0289                	c.addi	x5,2
	csrw mepc, t0
     2b8:	34129073          	csrrw	x0,mepc,x5

000002bc <end_handler_ret>:
end_handler_ret:
	lw ra, 0(sp)
     2bc:	4082                	c.lwsp	x1,0(x2)
	lw a0, 4(sp)
     2be:	4512                	c.lwsp	x10,4(x2)
	lw a1, 8(sp)
     2c0:	45a2                	c.lwsp	x11,8(x2)
	lw a2, 12(sp)
     2c2:	4632                	c.lwsp	x12,12(x2)
	lw a3, 16(sp)
     2c4:	46c2                	c.lwsp	x13,16(x2)
	lw a4, 20(sp)
     2c6:	4752                	c.lwsp	x14,20(x2)
	lw a5, 24(sp)
     2c8:	47e2                	c.lwsp	x15,24(x2)
	lw a6, 28(sp)
     2ca:	4872                	c.lwsp	x16,28(x2)
	lw a7, 32(sp)
     2cc:	5882                	c.lwsp	x17,32(x2)
	lw t0, 36(sp)
     2ce:	5292                	c.lwsp	x5,36(x2)
	lw t1, 40(sp)
     2d0:	5322                	c.lwsp	x6,40(x2)
	lw t2, 44(sp)
     2d2:	53b2                	c.lwsp	x7,44(x2)
	lw t3, 48(sp)
     2d4:	5e42                	c.lwsp	x28,48(x2)
	lw t4, 52(sp)
     2d6:	5ed2                	c.lwsp	x29,52(x2)
	lw t5, 56(sp)
     2d8:	5f62                	c.lwsp	x30,56(x2)
	lw t6, 60(sp)
     2da:	5ff2                	c.lwsp	x31,60(x2)
	addi sp,sp,64
     2dc:	6121                	c.addi16sp	x2,64
	mret
     2de:	30200073          	mret

000002e2 <__syscall_error>:
#endif
/* Upstream newlib now defines this in libgloss/riscv/internal_syscall.h.  */
long
__syscall_error(long a0)
{
  errno = -a0;
     2e2:	40a00533          	sub	x10,x0,x10
     2e6:	f0a1ae23          	sw	x10,-228(x3) # 1305c <errno>
  return -1;
}
     2ea:	557d                	c.li	x10,-1
     2ec:	8082                	c.jr	x1

000002ee <unimplemented_syscall>:

void unimplemented_syscall()
{
  const char *p = "BSP: Unimplemented system call called!\n";
     2ee:	67c9                	c.lui	x15,0x12
     2f0:	ea878793          	addi	x15,x15,-344 # 11ea8 <__clzsi2+0x2b8>
  while (*p)
    *(volatile int *)STDOUT_REG = *(p++);
     2f4:	100006b7          	lui	x13,0x10000
  while (*p)
     2f8:	0007c703          	lbu	x14,0(x15)
     2fc:	e311                	c.bnez	x14,300 <unimplemented_syscall+0x12>
}
     2fe:	8082                	c.jr	x1
    *(volatile int *)STDOUT_REG = *(p++);
     300:	0785                	c.addi	x15,1
     302:	c298                	c.sw	x14,0(x13)
     304:	bfd5                	c.j	2f8 <unimplemented_syscall+0xa>

00000306 <nanosleep>:

int nanosleep(const struct timespec *rqtp, struct timespec *rmtp)
{
  errno = ENOSYS;
     306:	05800713          	addi	x14,x0,88
     30a:	f0e1ae23          	sw	x14,-228(x3) # 1305c <errno>
  return -1;
}
     30e:	557d                	c.li	x10,-1
     310:	8082                	c.jr	x1

00000312 <_access>:

int _access(const char *file, int mode)
{
  errno = ENOSYS;
     312:	05800713          	addi	x14,x0,88
     316:	f0e1ae23          	sw	x14,-228(x3) # 1305c <errno>
  return -1;
}
     31a:	557d                	c.li	x10,-1
     31c:	8082                	c.jr	x1

0000031e <_chdir>:

int _chdir(const char *path)
{
  errno = ENOSYS;
     31e:	05800713          	addi	x14,x0,88
     322:	f0e1ae23          	sw	x14,-228(x3) # 1305c <errno>
  return -1;
}
     326:	557d                	c.li	x10,-1
     328:	8082                	c.jr	x1

0000032a <_chmod>:

int _chmod(const char *path, mode_t mode)
{
  errno = ENOSYS;
     32a:	05800713          	addi	x14,x0,88
     32e:	f0e1ae23          	sw	x14,-228(x3) # 1305c <errno>
  return -1;
}
     332:	557d                	c.li	x10,-1
     334:	8082                	c.jr	x1

00000336 <_chown>:

int _chown(const char *path, uid_t owner, gid_t group)
{
  errno = ENOSYS;
     336:	05800713          	addi	x14,x0,88
     33a:	f0e1ae23          	sw	x14,-228(x3) # 1305c <errno>
  return -1;
}
     33e:	557d                	c.li	x10,-1
     340:	8082                	c.jr	x1

00000342 <_close>:

int _close(int file)
{
  return -1;
}
     342:	557d                	c.li	x10,-1
     344:	8082                	c.jr	x1

00000346 <_execve>:

int _execve(const char *name, char *const argv[], char *const env[])
{
  errno = ENOMEM;
     346:	4731                	c.li	x14,12
     348:	f0e1ae23          	sw	x14,-228(x3) # 1305c <errno>
  return -1;
}
     34c:	557d                	c.li	x10,-1
     34e:	8082                	c.jr	x1

00000350 <_exit>:

void _exit(int exit_status)
{
  *(volatile int *)EXIT_REG = exit_status;
     350:	200007b7          	lui	x15,0x20000
     354:	c3c8                	c.sw	x10,4(x15)
  asm volatile("wfi");
     356:	10500073          	wfi
  /* _exit should not return */
  while (1) {};
     35a:	a001                	c.j	35a <_exit+0xa>

0000035c <_faccessat>:
}

int _faccessat(int dirfd, const char *file, int mode, int flags)
{
  errno = ENOSYS;
     35c:	05800713          	addi	x14,x0,88
     360:	f0e1ae23          	sw	x14,-228(x3) # 1305c <errno>
  return -1;
}
     364:	557d                	c.li	x10,-1
     366:	8082                	c.jr	x1

00000368 <_fork>:

int _fork(void)
{
  errno = EAGAIN;
     368:	472d                	c.li	x14,11
     36a:	f0e1ae23          	sw	x14,-228(x3) # 1305c <errno>
  return -1;
}
     36e:	557d                	c.li	x10,-1
     370:	8082                	c.jr	x1

00000372 <_fstat>:

int _fstat(int file, struct stat *st)
{
  st->st_mode = S_IFCHR;
     372:	6789                	c.lui	x15,0x2
     374:	c1dc                	c.sw	x15,4(x11)
  return 0;
  // errno = -ENOSYS;
  // return -1;
}
     376:	4501                	c.li	x10,0
     378:	8082                	c.jr	x1

0000037a <_fstatat>:

int _fstatat(int dirfd, const char *file, struct stat *st, int flags)
{
  errno = ENOSYS;
     37a:	05800713          	addi	x14,x0,88
     37e:	f0e1ae23          	sw	x14,-228(x3) # 1305c <errno>
  return -1;
}
     382:	557d                	c.li	x10,-1
     384:	8082                	c.jr	x1

00000386 <_ftime>:

int _ftime(struct timeb *tp)
     386:	05800713          	addi	x14,x0,88
     38a:	f0e1ae23          	sw	x14,-228(x3) # 1305c <errno>
     38e:	557d                	c.li	x10,-1
     390:	8082                	c.jr	x1

00000392 <_getcwd>:
  return -1;
}

char *_getcwd(char *buf, size_t size)
{
  errno = -ENOSYS;
     392:	fa800713          	addi	x14,x0,-88
     396:	f0e1ae23          	sw	x14,-228(x3) # 1305c <errno>
  return NULL;
}
     39a:	4501                	c.li	x10,0
     39c:	8082                	c.jr	x1

0000039e <_getpid>:

int _getpid()
{
  return 1;
}
     39e:	4505                	c.li	x10,1
     3a0:	8082                	c.jr	x1

000003a2 <_gettimeofday>:

int _gettimeofday(struct timeval *tp, void *tzp)
{
  errno = -ENOSYS;
     3a2:	fa800713          	addi	x14,x0,-88
     3a6:	f0e1ae23          	sw	x14,-228(x3) # 1305c <errno>
  return -1;
}
     3aa:	557d                	c.li	x10,-1
     3ac:	8082                	c.jr	x1

000003ae <_isatty>:

int _isatty(int file)
{
  return (file == STDOUT_FILENO);
     3ae:	157d                	c.addi	x10,-1
}
     3b0:	00153513          	sltiu	x10,x10,1
     3b4:	8082                	c.jr	x1

000003b6 <_kill>:

int _kill(int pid, int sig)
{
  errno = EINVAL;
     3b6:	4759                	c.li	x14,22
     3b8:	f0e1ae23          	sw	x14,-228(x3) # 1305c <errno>
  return -1;
}
     3bc:	557d                	c.li	x10,-1
     3be:	8082                	c.jr	x1

000003c0 <_link>:

int _link(const char *old_name, const char *new_name)
{
  errno = EMLINK;
     3c0:	477d                	c.li	x14,31
     3c2:	f0e1ae23          	sw	x14,-228(x3) # 1305c <errno>
  return -1;
}
     3c6:	557d                	c.li	x10,-1
     3c8:	8082                	c.jr	x1

000003ca <_lseek>:

off_t _lseek(int file, off_t ptr, int dir)
{
  return 0;
}
     3ca:	4501                	c.li	x10,0
     3cc:	8082                	c.jr	x1

000003ce <_lstat>:

int _lstat(const char *file, struct stat *st)
     3ce:	05800713          	addi	x14,x0,88
     3d2:	f0e1ae23          	sw	x14,-228(x3) # 1305c <errno>
     3d6:	557d                	c.li	x10,-1
     3d8:	8082                	c.jr	x1

000003da <_open>:
}

int _open(const char *name, int flags, int mode)
{
  return -1;
}
     3da:	557d                	c.li	x10,-1
     3dc:	8082                	c.jr	x1

000003de <_openat>:

int _openat(int dirfd, const char *name, int flags, int mode)
     3de:	05800713          	addi	x14,x0,88
     3e2:	f0e1ae23          	sw	x14,-228(x3) # 1305c <errno>
     3e6:	557d                	c.li	x10,-1
     3e8:	8082                	c.jr	x1

000003ea <_read>:
}

ssize_t _read(int file, void *ptr, size_t len)
{
  return 0;
}
     3ea:	4501                	c.li	x10,0
     3ec:	8082                	c.jr	x1

000003ee <_stat>:

int _stat(const char *file, struct stat *st)
{
  st->st_mode = S_IFCHR;
     3ee:	6789                	c.lui	x15,0x2
     3f0:	c1dc                	c.sw	x15,4(x11)
  return 0;
  // errno = ENOSYS;
  // return -1;
}
     3f2:	4501                	c.li	x10,0
     3f4:	8082                	c.jr	x1

000003f6 <_sysconf>:

long _sysconf(int name)
     3f6:	557d                	c.li	x10,-1
     3f8:	8082                	c.jr	x1

000003fa <_times>:
}

clock_t _times(struct tms *buf)
{
  return -1;
}
     3fa:	557d                	c.li	x10,-1
     3fc:	8082                	c.jr	x1

000003fe <_unlink>:

int _unlink(const char *name)
{
  errno = ENOENT;
     3fe:	4709                	c.li	x14,2
     400:	f0e1ae23          	sw	x14,-228(x3) # 1305c <errno>
  return -1;
}
     404:	557d                	c.li	x10,-1
     406:	8082                	c.jr	x1

00000408 <_utime>:

int _utime(const char *path, const struct utimbuf *times)
     408:	05800713          	addi	x14,x0,88
     40c:	f0e1ae23          	sw	x14,-228(x3) # 1305c <errno>
     410:	557d                	c.li	x10,-1
     412:	8082                	c.jr	x1

00000414 <_wait>:
  return -1;
}

int _wait(int *status)
{
  errno = ECHILD;
     414:	4729                	c.li	x14,10
     416:	f0e1ae23          	sw	x14,-228(x3) # 1305c <errno>
  return -1;
}
     41a:	557d                	c.li	x10,-1
     41c:	8082                	c.jr	x1

0000041e <_write>:

ssize_t _write(int file, const void *ptr, size_t len)
{
  const char *cptr = (char *)ptr;
  if (file != STDOUT_FILENO)
     41e:	4685                	c.li	x13,1
    {
      errno = ENOSYS;
      return -1;
    }

  const void *eptr = cptr + len;
     420:	00c587b3          	add	x15,x11,x12
  while (cptr != eptr)
    *(volatile int *)STDOUT_REG = *cptr++;
     424:	10000737          	lui	x14,0x10000
  if (file != STDOUT_FILENO)
     428:	00d50c63          	beq	x10,x13,440 <_write+0x22>
      errno = ENOSYS;
     42c:	05800713          	addi	x14,x0,88
     430:	f0e1ae23          	sw	x14,-228(x3) # 1305c <errno>
      return -1;
     434:	557d                	c.li	x10,-1
     436:	8082                	c.jr	x1
    *(volatile int *)STDOUT_REG = *cptr++;
     438:	0005c683          	lbu	x13,0(x11)
     43c:	0585                	c.addi	x11,1
     43e:	c314                	c.sw	x13,0(x14)
  while (cptr != eptr)
     440:	fef59ce3          	bne	x11,x15,438 <_write+0x1a>
  return len;
     444:	8532                	c.mv	x10,x12
}
     446:	8082                	c.jr	x1

00000448 <_brk>:
extern char __heap_end[];
static char *brk = __heap_start;

int _brk(void *addr)
{
  brk = addr;
     448:	f0a1a423          	sw	x10,-248(x3) # 13048 <brk>
  return 0;
}
     44c:	4501                	c.li	x10,0
     44e:	8082                	c.jr	x1

00000450 <_sbrk>:

void *_sbrk(ptrdiff_t incr)
{
     450:	87aa                	c.mv	x15,x10
  char *old_brk = brk;
     452:	f081a503          	lw	x10,-248(x3) # 13048 <brk>
  register long sp asm("sp");

  char *new_brk = brk += incr;
     456:	97aa                	c.add	x15,x10
     458:	f0f1a423          	sw	x15,-248(x3) # 13048 <brk>
  if (new_brk < (char *) sp && new_brk < __heap_end)
     45c:	0027f863          	bgeu	x15,x2,46c <_sbrk+0x1c>
     460:	00400737          	lui	x14,0x400
     464:	00070713          	addi	x14,x14,0 # 400000 <__heap_end>
     468:	00e7e663          	bltu	x15,x14,474 <_sbrk+0x24>

      return old_brk;
    }
  else
    {
      errno = ENOMEM;
     46c:	4731                	c.li	x14,12
     46e:	f0e1ae23          	sw	x14,-228(x3) # 1305c <errno>
      return (void *) -1;
     472:	557d                	c.li	x10,-1
    }
}
     474:	8082                	c.jr	x1

00000476 <handle_syscall>:
    register long syscall_id asm("t0");
  #else
    long syscall_id = a7;
  #endif

  switch (syscall_id) {
     476:	08100793          	addi	x15,x0,129
     47a:	0af88c63          	beq	x17,x15,532 <handle_syscall+0xbc>
     47e:	0717c763          	blt	x15,x17,4ec <handle_syscall+0x76>
     482:	04000793          	addi	x15,x0,64
     486:	0517c663          	blt	x15,x17,4d2 <handle_syscall+0x5c>
     48a:	02f00793          	addi	x15,x0,47
     48e:	0317c563          	blt	x15,x17,4b8 <handle_syscall+0x42>
     492:	47c5                	c.li	x15,17
     494:	04f89b63          	bne	x17,x15,4ea <handle_syscall+0x74>
  errno = -ENOSYS;
     498:	fa800713          	addi	x14,x0,-88
     49c:	a861                	c.j	534 <handle_syscall+0xbe>
  switch (syscall_id) {
     49e:	c0088893          	addi	x17,x17,-1024
     4a2:	47bd                	c.li	x15,15
     4a4:	0517e363          	bltu	x15,x17,4ea <handle_syscall+0x74>
     4a8:	67c9                	c.lui	x15,0x12
     4aa:	0d878793          	addi	x15,x15,216 # 120d8 <no_exception_handler_msg+0x30>
     4ae:	088a                	c.slli	x17,0x2
     4b0:	98be                	c.add	x17,x15
     4b2:	0008a783          	lw	x15,0(x17)
     4b6:	8782                	c.jr	x15
     4b8:	fd088893          	addi	x17,x17,-48
     4bc:	47c1                	c.li	x15,16
     4be:	0317e663          	bltu	x15,x17,4ea <handle_syscall+0x74>
     4c2:	67c9                	c.lui	x15,0x12
     4c4:	11878793          	addi	x15,x15,280 # 12118 <no_exception_handler_msg+0x70>
     4c8:	088a                	c.slli	x17,0x2
     4ca:	98be                	c.add	x17,x15
     4cc:	0008a783          	lw	x15,0(x17)
     4d0:	8782                	c.jr	x15
     4d2:	05000793          	addi	x15,x0,80
     4d6:	06f88963          	beq	x17,x15,548 <handle_syscall+0xd2>
     4da:	05d00793          	addi	x15,x0,93
     4de:	04f88363          	beq	x17,x15,524 <handle_syscall+0xae>
     4e2:	04f00793          	addi	x15,x0,79
     4e6:	04f88a63          	beq	x17,x15,53a <handle_syscall+0xc4>
      break;
    case SYS_times:
      _times ((struct tms *) a0);
      break;
    default:
      unimplemented_syscall ();
     4ea:	b511                	c.j	2ee <unimplemented_syscall>
  switch (syscall_id) {
     4ec:	40f00793          	addi	x15,x0,1039
     4f0:	ff17cde3          	blt	x15,x17,4ea <handle_syscall+0x74>
     4f4:	3ff00793          	addi	x15,x0,1023
     4f8:	fb17c3e3          	blt	x15,x17,49e <handle_syscall+0x28>
     4fc:	0ac00793          	addi	x15,x0,172
     500:	04f88763          	beq	x17,x15,54e <handle_syscall+0xd8>
     504:	0117c963          	blt	x15,x17,516 <handle_syscall+0xa0>
     508:	09900793          	addi	x15,x0,153
     50c:	04f88163          	beq	x17,x15,54e <handle_syscall+0xd8>
     510:	0a900793          	addi	x15,x0,169
     514:	b741                	c.j	494 <handle_syscall+0x1e>
     516:	0d600793          	addi	x15,x0,214
     51a:	fcf898e3          	bne	x17,x15,4ea <handle_syscall+0x74>
  brk = addr;
     51e:	f0a1a423          	sw	x10,-248(x3) # 13048 <brk>
  return 0;
     522:	8082                	c.jr	x1
  *(volatile int *)EXIT_REG = exit_status;
     524:	200007b7          	lui	x15,0x20000
     528:	c3c8                	c.sw	x10,4(x15)
  asm volatile("wfi");
     52a:	10500073          	wfi
  while (1) {};
     52e:	a001                	c.j	52e <handle_syscall+0xb8>
      _write (a0, (const void *) a1, a2);
     530:	b5fd                	c.j	41e <_write>
  errno = EINVAL;
     532:	4759                	c.li	x14,22
  errno = ENOSYS;
     534:	f0e1ae23          	sw	x14,-228(x3) # 1305c <errno>
  return -1;
     538:	8082                	c.jr	x1
  errno = ENOSYS;
     53a:	05800713          	addi	x14,x0,88
     53e:	bfdd                	c.j	534 <handle_syscall+0xbe>
  errno = EMLINK;
     540:	477d                	c.li	x14,31
     542:	bfcd                	c.j	534 <handle_syscall+0xbe>
  errno = ENOENT;
     544:	4709                	c.li	x14,2
     546:	b7fd                	c.j	534 <handle_syscall+0xbe>
  st->st_mode = S_IFCHR;
     548:	6789                	c.lui	x15,0x2
     54a:	c1dc                	c.sw	x15,4(x11)
  return 0;
     54c:	8082                	c.jr	x1
      break;
  }
}
     54e:	8082                	c.jr	x1

00000550 <atexit>:
     550:	00050593          	addi	x11,x10,0
     554:	00000693          	addi	x13,x0,0
     558:	00000613          	addi	x12,x0,0
     55c:	00000513          	addi	x10,x0,0
     560:	3b90006f          	jal	x0,1118 <__register_exitproc>

00000564 <__fp_lock>:
     564:	00000513          	addi	x10,x0,0
     568:	00008067          	jalr	x0,0(x1)

0000056c <stdio_exit_handler>:
     56c:	00013637          	lui	x12,0x13
     570:	000065b7          	lui	x11,0x6
     574:	00013537          	lui	x10,0x13
     578:	94060613          	addi	x12,x12,-1728 # 12940 <__sglue>
     57c:	d5058593          	addi	x11,x11,-688 # 5d50 <_fclose_r>
     580:	95050513          	addi	x10,x10,-1712 # 12950 <_impure_data>
     584:	3380006f          	jal	x0,8bc <_fwalk_sglue>

00000588 <cleanup_stdio>:
     588:	00452583          	lw	x11,4(x10)
     58c:	ff010113          	addi	x2,x2,-16
     590:	00812423          	sw	x8,8(x2)
     594:	00112623          	sw	x1,12(x2)
     598:	f3418793          	addi	x15,x3,-204 # 13074 <__sf>
     59c:	00050413          	addi	x8,x10,0
     5a0:	00f58463          	beq	x11,x15,5a8 <cleanup_stdio+0x20>
     5a4:	7ac050ef          	jal	x1,5d50 <_fclose_r>
     5a8:	00842583          	lw	x11,8(x8)
     5ac:	f9c18793          	addi	x15,x3,-100 # 130dc <__sf+0x68>
     5b0:	00f58663          	beq	x11,x15,5bc <cleanup_stdio+0x34>
     5b4:	00040513          	addi	x10,x8,0
     5b8:	798050ef          	jal	x1,5d50 <_fclose_r>
     5bc:	00c42583          	lw	x11,12(x8)
     5c0:	00418793          	addi	x15,x3,4 # 13144 <__global_pointer$+0x4>
     5c4:	00f58c63          	beq	x11,x15,5dc <cleanup_stdio+0x54>
     5c8:	00040513          	addi	x10,x8,0
     5cc:	00812403          	lw	x8,8(x2)
     5d0:	00c12083          	lw	x1,12(x2)
     5d4:	01010113          	addi	x2,x2,16
     5d8:	7780506f          	jal	x0,5d50 <_fclose_r>
     5dc:	00c12083          	lw	x1,12(x2)
     5e0:	00812403          	lw	x8,8(x2)
     5e4:	01010113          	addi	x2,x2,16
     5e8:	00008067          	jalr	x0,0(x1)

000005ec <__fp_unlock>:
     5ec:	00000513          	addi	x10,x0,0
     5f0:	00008067          	jalr	x0,0(x1)

000005f4 <global_stdio_init.part.0>:
     5f4:	fe010113          	addi	x2,x2,-32
     5f8:	00812c23          	sw	x8,24(x2)
     5fc:	56c00793          	addi	x15,x0,1388
     600:	f3418413          	addi	x8,x3,-204 # 13074 <__sf>
     604:	00112e23          	sw	x1,28(x2)
     608:	00912a23          	sw	x9,20(x2)
     60c:	01212823          	sw	x18,16(x2)
     610:	01312623          	sw	x19,12(x2)
     614:	01412423          	sw	x20,8(x2)
     618:	f0f1ac23          	sw	x15,-232(x3) # 13058 <__stdio_exit_handler>
     61c:	00800613          	addi	x12,x0,8
     620:	00400793          	addi	x15,x0,4
     624:	00000593          	addi	x11,x0,0
     628:	f9018513          	addi	x10,x3,-112 # 130d0 <__sf+0x5c>
     62c:	00f42623          	sw	x15,12(x8)
     630:	00042023          	sw	x0,0(x8)
     634:	00042223          	sw	x0,4(x8)
     638:	00042423          	sw	x0,8(x8)
     63c:	06042223          	sw	x0,100(x8)
     640:	00042823          	sw	x0,16(x8)
     644:	00042a23          	sw	x0,20(x8)
     648:	00042c23          	sw	x0,24(x8)
     64c:	165000ef          	jal	x1,fb0 <memset>
     650:	000107b7          	lui	x15,0x10
     654:	00001a37          	lui	x20,0x1
     658:	000019b7          	lui	x19,0x1
     65c:	00001937          	lui	x18,0x1
     660:	000014b7          	lui	x9,0x1
     664:	af4a0a13          	addi	x20,x20,-1292 # af4 <__sread>
     668:	b5898993          	addi	x19,x19,-1192 # b58 <__swrite>
     66c:	be090913          	addi	x18,x18,-1056 # be0 <__sseek>
     670:	c5848493          	addi	x9,x9,-936 # c58 <__sclose>
     674:	00978793          	addi	x15,x15,9 # 10009 <__multf3+0x1265>
     678:	00800613          	addi	x12,x0,8
     67c:	00000593          	addi	x11,x0,0
     680:	ff818513          	addi	x10,x3,-8 # 13138 <__sf+0xc4>
     684:	03442023          	sw	x20,32(x8)
     688:	03342223          	sw	x19,36(x8)
     68c:	03242423          	sw	x18,40(x8)
     690:	02942623          	sw	x9,44(x8)
     694:	06f42a23          	sw	x15,116(x8)
     698:	00842e23          	sw	x8,28(x8)
     69c:	06042423          	sw	x0,104(x8)
     6a0:	06042623          	sw	x0,108(x8)
     6a4:	06042823          	sw	x0,112(x8)
     6a8:	0c042623          	sw	x0,204(x8)
     6ac:	06042c23          	sw	x0,120(x8)
     6b0:	06042e23          	sw	x0,124(x8)
     6b4:	08042023          	sw	x0,128(x8)
     6b8:	0f9000ef          	jal	x1,fb0 <memset>
     6bc:	000207b7          	lui	x15,0x20
     6c0:	01278793          	addi	x15,x15,18 # 20012 <__heap_start+0xcca2>
     6c4:	f9c18713          	addi	x14,x3,-100 # 130dc <__sf+0x68>
     6c8:	00800613          	addi	x12,x0,8
     6cc:	00000593          	addi	x11,x0,0
     6d0:	06018513          	addi	x10,x3,96 # 131a0 <__global_pointer$+0x60>
     6d4:	09442423          	sw	x20,136(x8)
     6d8:	09342623          	sw	x19,140(x8)
     6dc:	09242823          	sw	x18,144(x8)
     6e0:	08942a23          	sw	x9,148(x8)
     6e4:	0cf42e23          	sw	x15,220(x8)
     6e8:	08e42223          	sw	x14,132(x8)
     6ec:	0c042823          	sw	x0,208(x8)
     6f0:	0c042a23          	sw	x0,212(x8)
     6f4:	0c042c23          	sw	x0,216(x8)
     6f8:	12042a23          	sw	x0,308(x8)
     6fc:	0e042023          	sw	x0,224(x8)
     700:	0e042223          	sw	x0,228(x8)
     704:	0e042423          	sw	x0,232(x8)
     708:	0a9000ef          	jal	x1,fb0 <memset>
     70c:	00418793          	addi	x15,x3,4 # 13144 <__global_pointer$+0x4>
     710:	0f442823          	sw	x20,240(x8)
     714:	0f342a23          	sw	x19,244(x8)
     718:	0f242c23          	sw	x18,248(x8)
     71c:	0e942e23          	sw	x9,252(x8)
     720:	01c12083          	lw	x1,28(x2)
     724:	0ef42623          	sw	x15,236(x8)
     728:	01812403          	lw	x8,24(x2)
     72c:	01412483          	lw	x9,20(x2)
     730:	01012903          	lw	x18,16(x2)
     734:	00c12983          	lw	x19,12(x2)
     738:	00812a03          	lw	x20,8(x2)
     73c:	02010113          	addi	x2,x2,32
     740:	00008067          	jalr	x0,0(x1)

00000744 <__sfp>:
     744:	f181a783          	lw	x15,-232(x3) # 13058 <__stdio_exit_handler>
     748:	fe010113          	addi	x2,x2,-32
     74c:	01312623          	sw	x19,12(x2)
     750:	00112e23          	sw	x1,28(x2)
     754:	00812c23          	sw	x8,24(x2)
     758:	00912a23          	sw	x9,20(x2)
     75c:	01212823          	sw	x18,16(x2)
     760:	00050993          	addi	x19,x10,0
     764:	0e078863          	beq	x15,x0,854 <__sfp+0x110>
     768:	00013937          	lui	x18,0x13
     76c:	94090913          	addi	x18,x18,-1728 # 12940 <__sglue>
     770:	fff00493          	addi	x9,x0,-1
     774:	00492783          	lw	x15,4(x18)
     778:	00892403          	lw	x8,8(x18)
     77c:	fff78793          	addi	x15,x15,-1
     780:	0007d863          	bge	x15,x0,790 <__sfp+0x4c>
     784:	0800006f          	jal	x0,804 <__sfp+0xc0>
     788:	06840413          	addi	x8,x8,104
     78c:	06978c63          	beq	x15,x9,804 <__sfp+0xc0>
     790:	00c41703          	lh	x14,12(x8)
     794:	fff78793          	addi	x15,x15,-1
     798:	fe0718e3          	bne	x14,x0,788 <__sfp+0x44>
     79c:	ffff07b7          	lui	x15,0xffff0
     7a0:	00178793          	addi	x15,x15,1 # ffff0001 <__heap_end+0xffbf0001>
     7a4:	00f42623          	sw	x15,12(x8)
     7a8:	06042223          	sw	x0,100(x8)
     7ac:	00042023          	sw	x0,0(x8)
     7b0:	00042423          	sw	x0,8(x8)
     7b4:	00042223          	sw	x0,4(x8)
     7b8:	00042823          	sw	x0,16(x8)
     7bc:	00042a23          	sw	x0,20(x8)
     7c0:	00042c23          	sw	x0,24(x8)
     7c4:	00800613          	addi	x12,x0,8
     7c8:	00000593          	addi	x11,x0,0
     7cc:	05c40513          	addi	x10,x8,92
     7d0:	7e0000ef          	jal	x1,fb0 <memset>
     7d4:	02042823          	sw	x0,48(x8)
     7d8:	02042a23          	sw	x0,52(x8)
     7dc:	04042223          	sw	x0,68(x8)
     7e0:	04042423          	sw	x0,72(x8)
     7e4:	01c12083          	lw	x1,28(x2)
     7e8:	00040513          	addi	x10,x8,0
     7ec:	01812403          	lw	x8,24(x2)
     7f0:	01412483          	lw	x9,20(x2)
     7f4:	01012903          	lw	x18,16(x2)
     7f8:	00c12983          	lw	x19,12(x2)
     7fc:	02010113          	addi	x2,x2,32
     800:	00008067          	jalr	x0,0(x1)
     804:	00092403          	lw	x8,0(x18)
     808:	00040663          	beq	x8,x0,814 <__sfp+0xd0>
     80c:	00040913          	addi	x18,x8,0
     810:	f65ff06f          	jal	x0,774 <__sfp+0x30>
     814:	1ac00593          	addi	x11,x0,428
     818:	00098513          	addi	x10,x19,0
     81c:	705000ef          	jal	x1,1720 <_malloc_r>
     820:	00050413          	addi	x8,x10,0
     824:	02050c63          	beq	x10,x0,85c <__sfp+0x118>
     828:	00c50513          	addi	x10,x10,12
     82c:	00400793          	addi	x15,x0,4
     830:	00042023          	sw	x0,0(x8)
     834:	00f42223          	sw	x15,4(x8)
     838:	00a42423          	sw	x10,8(x8)
     83c:	1a000613          	addi	x12,x0,416
     840:	00000593          	addi	x11,x0,0
     844:	76c000ef          	jal	x1,fb0 <memset>
     848:	00892023          	sw	x8,0(x18)
     84c:	00040913          	addi	x18,x8,0
     850:	f25ff06f          	jal	x0,774 <__sfp+0x30>
     854:	da1ff0ef          	jal	x1,5f4 <global_stdio_init.part.0>
     858:	f11ff06f          	jal	x0,768 <__sfp+0x24>
     85c:	00092023          	sw	x0,0(x18)
     860:	00c00793          	addi	x15,x0,12
     864:	00f9a023          	sw	x15,0(x19)
     868:	f7dff06f          	jal	x0,7e4 <__sfp+0xa0>

0000086c <__sinit>:
     86c:	03452783          	lw	x15,52(x10)
     870:	00078463          	beq	x15,x0,878 <__sinit+0xc>
     874:	00008067          	jalr	x0,0(x1)
     878:	f181a703          	lw	x14,-232(x3) # 13058 <__stdio_exit_handler>
     87c:	58800793          	addi	x15,x0,1416
     880:	02f52a23          	sw	x15,52(x10)
     884:	fe0718e3          	bne	x14,x0,874 <__sinit+0x8>
     888:	d6dff06f          	jal	x0,5f4 <global_stdio_init.part.0>

0000088c <__sfp_lock_acquire>:
     88c:	00008067          	jalr	x0,0(x1)

00000890 <__sfp_lock_release>:
     890:	00008067          	jalr	x0,0(x1)

00000894 <__fp_lock_all>:
     894:	00013637          	lui	x12,0x13
     898:	94060613          	addi	x12,x12,-1728 # 12940 <__sglue>
     89c:	56400593          	addi	x11,x0,1380
     8a0:	00000513          	addi	x10,x0,0
     8a4:	0180006f          	jal	x0,8bc <_fwalk_sglue>

000008a8 <__fp_unlock_all>:
     8a8:	00013637          	lui	x12,0x13
     8ac:	94060613          	addi	x12,x12,-1728 # 12940 <__sglue>
     8b0:	5ec00593          	addi	x11,x0,1516
     8b4:	00000513          	addi	x10,x0,0
     8b8:	0040006f          	jal	x0,8bc <_fwalk_sglue>

000008bc <_fwalk_sglue>:
     8bc:	fd010113          	addi	x2,x2,-48
     8c0:	03212023          	sw	x18,32(x2)
     8c4:	01312e23          	sw	x19,28(x2)
     8c8:	01412c23          	sw	x20,24(x2)
     8cc:	01512a23          	sw	x21,20(x2)
     8d0:	01612823          	sw	x22,16(x2)
     8d4:	01712623          	sw	x23,12(x2)
     8d8:	02112623          	sw	x1,44(x2)
     8dc:	02812423          	sw	x8,40(x2)
     8e0:	02912223          	sw	x9,36(x2)
     8e4:	00050b13          	addi	x22,x10,0
     8e8:	00058b93          	addi	x23,x11,0
     8ec:	00060a93          	addi	x21,x12,0
     8f0:	00000a13          	addi	x20,x0,0
     8f4:	00100993          	addi	x19,x0,1
     8f8:	fff00913          	addi	x18,x0,-1
     8fc:	004aa483          	lw	x9,4(x21)
     900:	008aa403          	lw	x8,8(x21)
     904:	fff48493          	addi	x9,x9,-1
     908:	0204c863          	blt	x9,x0,938 <_fwalk_sglue+0x7c>
     90c:	00c45783          	lhu	x15,12(x8)
     910:	00f9fe63          	bgeu	x19,x15,92c <_fwalk_sglue+0x70>
     914:	00e41783          	lh	x15,14(x8)
     918:	00040593          	addi	x11,x8,0
     91c:	000b0513          	addi	x10,x22,0
     920:	01278663          	beq	x15,x18,92c <_fwalk_sglue+0x70>
     924:	000b80e7          	jalr	x1,0(x23)
     928:	00aa6a33          	or	x20,x20,x10
     92c:	fff48493          	addi	x9,x9,-1
     930:	06840413          	addi	x8,x8,104
     934:	fd249ce3          	bne	x9,x18,90c <_fwalk_sglue+0x50>
     938:	000aaa83          	lw	x21,0(x21)
     93c:	fc0a90e3          	bne	x21,x0,8fc <_fwalk_sglue+0x40>
     940:	02c12083          	lw	x1,44(x2)
     944:	02812403          	lw	x8,40(x2)
     948:	02412483          	lw	x9,36(x2)
     94c:	02012903          	lw	x18,32(x2)
     950:	01c12983          	lw	x19,28(x2)
     954:	01412a83          	lw	x21,20(x2)
     958:	01012b03          	lw	x22,16(x2)
     95c:	00c12b83          	lw	x23,12(x2)
     960:	000a0513          	addi	x10,x20,0
     964:	01812a03          	lw	x20,24(x2)
     968:	03010113          	addi	x2,x2,48
     96c:	00008067          	jalr	x0,0(x1)

00000970 <_printf_r>:
     970:	fc010113          	addi	x2,x2,-64
     974:	02c12423          	sw	x12,40(x2)
     978:	02d12623          	sw	x13,44(x2)
     97c:	02e12823          	sw	x14,48(x2)
     980:	02f12a23          	sw	x15,52(x2)
     984:	03012c23          	sw	x16,56(x2)
     988:	03112e23          	sw	x17,60(x2)
     98c:	00058613          	addi	x12,x11,0
     990:	00852583          	lw	x11,8(x10)
     994:	02810693          	addi	x13,x2,40
     998:	00112e23          	sw	x1,28(x2)
     99c:	00d12623          	sw	x13,12(x2)
     9a0:	544010ef          	jal	x1,1ee4 <_vfprintf_r>
     9a4:	01c12083          	lw	x1,28(x2)
     9a8:	04010113          	addi	x2,x2,64
     9ac:	00008067          	jalr	x0,0(x1)

000009b0 <printf>:
     9b0:	f0c1a303          	lw	x6,-244(x3) # 1304c <_impure_ptr>
     9b4:	fc010113          	addi	x2,x2,-64
     9b8:	02c12423          	sw	x12,40(x2)
     9bc:	02d12623          	sw	x13,44(x2)
     9c0:	02b12223          	sw	x11,36(x2)
     9c4:	02e12823          	sw	x14,48(x2)
     9c8:	02f12a23          	sw	x15,52(x2)
     9cc:	03012c23          	sw	x16,56(x2)
     9d0:	03112e23          	sw	x17,60(x2)
     9d4:	00832583          	lw	x11,8(x6)
     9d8:	02410693          	addi	x13,x2,36
     9dc:	00050613          	addi	x12,x10,0
     9e0:	00030513          	addi	x10,x6,0
     9e4:	00112e23          	sw	x1,28(x2)
     9e8:	00d12623          	sw	x13,12(x2)
     9ec:	4f8010ef          	jal	x1,1ee4 <_vfprintf_r>
     9f0:	01c12083          	lw	x1,28(x2)
     9f4:	04010113          	addi	x2,x2,64
     9f8:	00008067          	jalr	x0,0(x1)

000009fc <_putchar_r>:
     9fc:	00852603          	lw	x12,8(x10)
     a00:	4a90506f          	jal	x0,66a8 <_putc_r>

00000a04 <putchar>:
     a04:	f0c1a783          	lw	x15,-244(x3) # 1304c <_impure_ptr>
     a08:	00050593          	addi	x11,x10,0
     a0c:	0087a603          	lw	x12,8(x15)
     a10:	00078513          	addi	x10,x15,0
     a14:	4950506f          	jal	x0,66a8 <_putc_r>

00000a18 <_puts_r>:
     a18:	fc010113          	addi	x2,x2,-64
     a1c:	02812c23          	sw	x8,56(x2)
     a20:	00050413          	addi	x8,x10,0
     a24:	00058513          	addi	x10,x11,0
     a28:	02912a23          	sw	x9,52(x2)
     a2c:	02112e23          	sw	x1,60(x2)
     a30:	00058493          	addi	x9,x11,0
     a34:	658000ef          	jal	x1,108c <strlen>
     a38:	000127b7          	lui	x15,0x12
     a3c:	ed078793          	addi	x15,x15,-304 # 11ed0 <__clzsi2+0x2e0>
     a40:	02f12423          	sw	x15,40(x2)
     a44:	00100793          	addi	x15,x0,1
     a48:	02f12623          	sw	x15,44(x2)
     a4c:	03442703          	lw	x14,52(x8)
     a50:	02010793          	addi	x15,x2,32
     a54:	00150693          	addi	x13,x10,1
     a58:	00f12a23          	sw	x15,20(x2)
     a5c:	00200793          	addi	x15,x0,2
     a60:	02912023          	sw	x9,32(x2)
     a64:	02a12223          	sw	x10,36(x2)
     a68:	00d12e23          	sw	x13,28(x2)
     a6c:	00f12c23          	sw	x15,24(x2)
     a70:	00842583          	lw	x11,8(x8)
     a74:	06070063          	beq	x14,x0,ad4 <_puts_r+0xbc>
     a78:	00c59783          	lh	x15,12(x11)
     a7c:	01279713          	slli	x14,x15,0x12
     a80:	02074263          	blt	x14,x0,aa4 <_puts_r+0x8c>
     a84:	0645a703          	lw	x14,100(x11)
     a88:	ffffe6b7          	lui	x13,0xffffe
     a8c:	fff68693          	addi	x13,x13,-1 # ffffdfff <__heap_end+0xffbfdfff>
     a90:	00002637          	lui	x12,0x2
     a94:	00c7e7b3          	or	x15,x15,x12
     a98:	00d77733          	and	x14,x14,x13
     a9c:	00f59623          	sh	x15,12(x11)
     aa0:	06e5a223          	sw	x14,100(x11)
     aa4:	01410613          	addi	x12,x2,20
     aa8:	00040513          	addi	x10,x8,0
     aac:	6e8050ef          	jal	x1,6194 <__sfvwrite_r>
     ab0:	03c12083          	lw	x1,60(x2)
     ab4:	03812403          	lw	x8,56(x2)
     ab8:	00153513          	sltiu	x10,x10,1
     abc:	40a00533          	sub	x10,x0,x10
     ac0:	00b57513          	andi	x10,x10,11
     ac4:	03412483          	lw	x9,52(x2)
     ac8:	fff50513          	addi	x10,x10,-1
     acc:	04010113          	addi	x2,x2,64
     ad0:	00008067          	jalr	x0,0(x1)
     ad4:	00040513          	addi	x10,x8,0
     ad8:	00b12623          	sw	x11,12(x2)
     adc:	d91ff0ef          	jal	x1,86c <__sinit>
     ae0:	00c12583          	lw	x11,12(x2)
     ae4:	f95ff06f          	jal	x0,a78 <_puts_r+0x60>

00000ae8 <puts>:
     ae8:	00050593          	addi	x11,x10,0
     aec:	f0c1a503          	lw	x10,-244(x3) # 1304c <_impure_ptr>
     af0:	f29ff06f          	jal	x0,a18 <_puts_r>

00000af4 <__sread>:
     af4:	ff010113          	addi	x2,x2,-16
     af8:	00812423          	sw	x8,8(x2)
     afc:	00058413          	addi	x8,x11,0
     b00:	00e59583          	lh	x11,14(x11)
     b04:	00112623          	sw	x1,12(x2)
     b08:	2e0000ef          	jal	x1,de8 <_read_r>
     b0c:	02054063          	blt	x10,x0,b2c <__sread+0x38>
     b10:	05042783          	lw	x15,80(x8)
     b14:	00c12083          	lw	x1,12(x2)
     b18:	00a787b3          	add	x15,x15,x10
     b1c:	04f42823          	sw	x15,80(x8)
     b20:	00812403          	lw	x8,8(x2)
     b24:	01010113          	addi	x2,x2,16
     b28:	00008067          	jalr	x0,0(x1)
     b2c:	00c45783          	lhu	x15,12(x8)
     b30:	fffff737          	lui	x14,0xfffff
     b34:	fff70713          	addi	x14,x14,-1 # ffffefff <__heap_end+0xffbfefff>
     b38:	00e7f7b3          	and	x15,x15,x14
     b3c:	00c12083          	lw	x1,12(x2)
     b40:	00f41623          	sh	x15,12(x8)
     b44:	00812403          	lw	x8,8(x2)
     b48:	01010113          	addi	x2,x2,16
     b4c:	00008067          	jalr	x0,0(x1)

00000b50 <__seofread>:
     b50:	00000513          	addi	x10,x0,0
     b54:	00008067          	jalr	x0,0(x1)

00000b58 <__swrite>:
     b58:	00c59783          	lh	x15,12(x11)
     b5c:	fe010113          	addi	x2,x2,-32
     b60:	00812c23          	sw	x8,24(x2)
     b64:	00912a23          	sw	x9,20(x2)
     b68:	01212823          	sw	x18,16(x2)
     b6c:	01312623          	sw	x19,12(x2)
     b70:	00112e23          	sw	x1,28(x2)
     b74:	1007f713          	andi	x14,x15,256
     b78:	00058413          	addi	x8,x11,0
     b7c:	00050493          	addi	x9,x10,0
     b80:	00060913          	addi	x18,x12,0 # 2000 <_vfprintf_r+0x11c>
     b84:	00068993          	addi	x19,x13,0
     b88:	04071063          	bne	x14,x0,bc8 <__swrite+0x70>
     b8c:	fffff737          	lui	x14,0xfffff
     b90:	fff70713          	addi	x14,x14,-1 # ffffefff <__heap_end+0xffbfefff>
     b94:	00e7f7b3          	and	x15,x15,x14
     b98:	00e41583          	lh	x11,14(x8)
     b9c:	00f41623          	sh	x15,12(x8)
     ba0:	01812403          	lw	x8,24(x2)
     ba4:	01c12083          	lw	x1,28(x2)
     ba8:	00098693          	addi	x13,x19,0
     bac:	00090613          	addi	x12,x18,0
     bb0:	00c12983          	lw	x19,12(x2)
     bb4:	01012903          	lw	x18,16(x2)
     bb8:	00048513          	addi	x10,x9,0
     bbc:	01412483          	lw	x9,20(x2)
     bc0:	02010113          	addi	x2,x2,32
     bc4:	28c0006f          	jal	x0,e50 <_write_r>
     bc8:	00e59583          	lh	x11,14(x11)
     bcc:	00200693          	addi	x13,x0,2
     bd0:	00000613          	addi	x12,x0,0
     bd4:	1ac000ef          	jal	x1,d80 <_lseek_r>
     bd8:	00c41783          	lh	x15,12(x8)
     bdc:	fb1ff06f          	jal	x0,b8c <__swrite+0x34>

00000be0 <__sseek>:
     be0:	ff010113          	addi	x2,x2,-16
     be4:	00812423          	sw	x8,8(x2)
     be8:	00058413          	addi	x8,x11,0
     bec:	00e59583          	lh	x11,14(x11)
     bf0:	00112623          	sw	x1,12(x2)
     bf4:	18c000ef          	jal	x1,d80 <_lseek_r>
     bf8:	fff00793          	addi	x15,x0,-1
     bfc:	02f50863          	beq	x10,x15,c2c <__sseek+0x4c>
     c00:	00c45783          	lhu	x15,12(x8)
     c04:	00001737          	lui	x14,0x1
     c08:	00c12083          	lw	x1,12(x2)
     c0c:	00e7e7b3          	or	x15,x15,x14
     c10:	01079793          	slli	x15,x15,0x10
     c14:	4107d793          	srai	x15,x15,0x10
     c18:	04a42823          	sw	x10,80(x8)
     c1c:	00f41623          	sh	x15,12(x8)
     c20:	00812403          	lw	x8,8(x2)
     c24:	01010113          	addi	x2,x2,16
     c28:	00008067          	jalr	x0,0(x1)
     c2c:	00c45783          	lhu	x15,12(x8)
     c30:	fffff737          	lui	x14,0xfffff
     c34:	fff70713          	addi	x14,x14,-1 # ffffefff <__heap_end+0xffbfefff>
     c38:	00e7f7b3          	and	x15,x15,x14
     c3c:	01079793          	slli	x15,x15,0x10
     c40:	4107d793          	srai	x15,x15,0x10
     c44:	00c12083          	lw	x1,12(x2)
     c48:	00f41623          	sh	x15,12(x8)
     c4c:	00812403          	lw	x8,8(x2)
     c50:	01010113          	addi	x2,x2,16
     c54:	00008067          	jalr	x0,0(x1)

00000c58 <__sclose>:
     c58:	00e59583          	lh	x11,14(x11)
     c5c:	0040006f          	jal	x0,c60 <_close_r>

00000c60 <_close_r>:
     c60:	ff010113          	addi	x2,x2,-16
     c64:	00812423          	sw	x8,8(x2)
     c68:	00912223          	sw	x9,4(x2)
     c6c:	00050413          	addi	x8,x10,0
     c70:	00058513          	addi	x10,x11,0
     c74:	00112623          	sw	x1,12(x2)
     c78:	f001ae23          	sw	x0,-228(x3) # 1305c <errno>
     c7c:	ec6ff0ef          	jal	x1,342 <_close>
     c80:	fff00793          	addi	x15,x0,-1
     c84:	00f50c63          	beq	x10,x15,c9c <_close_r+0x3c>
     c88:	00c12083          	lw	x1,12(x2)
     c8c:	00812403          	lw	x8,8(x2)
     c90:	00412483          	lw	x9,4(x2)
     c94:	01010113          	addi	x2,x2,16
     c98:	00008067          	jalr	x0,0(x1)
     c9c:	f1c1a783          	lw	x15,-228(x3) # 1305c <errno>
     ca0:	fe0784e3          	beq	x15,x0,c88 <_close_r+0x28>
     ca4:	00c12083          	lw	x1,12(x2)
     ca8:	00f42023          	sw	x15,0(x8)
     cac:	00812403          	lw	x8,8(x2)
     cb0:	00412483          	lw	x9,4(x2)
     cb4:	01010113          	addi	x2,x2,16
     cb8:	00008067          	jalr	x0,0(x1)

00000cbc <_reclaim_reent>:
     cbc:	f0c1a783          	lw	x15,-244(x3) # 1304c <_impure_ptr>
     cc0:	0aa78e63          	beq	x15,x10,d7c <_reclaim_reent+0xc0>
     cc4:	04452583          	lw	x11,68(x10)
     cc8:	fe010113          	addi	x2,x2,-32
     ccc:	00912a23          	sw	x9,20(x2)
     cd0:	00112e23          	sw	x1,28(x2)
     cd4:	00050493          	addi	x9,x10,0
     cd8:	04058c63          	beq	x11,x0,d30 <_reclaim_reent+0x74>
     cdc:	01212823          	sw	x18,16(x2)
     ce0:	01312623          	sw	x19,12(x2)
     ce4:	00812c23          	sw	x8,24(x2)
     ce8:	00000913          	addi	x18,x0,0
     cec:	08000993          	addi	x19,x0,128
     cf0:	012587b3          	add	x15,x11,x18
     cf4:	0007a403          	lw	x8,0(x15)
     cf8:	00040e63          	beq	x8,x0,d14 <_reclaim_reent+0x58>
     cfc:	00040593          	addi	x11,x8,0
     d00:	00042403          	lw	x8,0(x8)
     d04:	00048513          	addi	x10,x9,0
     d08:	714000ef          	jal	x1,141c <_free_r>
     d0c:	fe0418e3          	bne	x8,x0,cfc <_reclaim_reent+0x40>
     d10:	0444a583          	lw	x11,68(x9)
     d14:	00490913          	addi	x18,x18,4
     d18:	fd391ce3          	bne	x18,x19,cf0 <_reclaim_reent+0x34>
     d1c:	00048513          	addi	x10,x9,0
     d20:	6fc000ef          	jal	x1,141c <_free_r>
     d24:	01812403          	lw	x8,24(x2)
     d28:	01012903          	lw	x18,16(x2)
     d2c:	00c12983          	lw	x19,12(x2)
     d30:	0384a583          	lw	x11,56(x9)
     d34:	00058663          	beq	x11,x0,d40 <_reclaim_reent+0x84>
     d38:	00048513          	addi	x10,x9,0
     d3c:	6e0000ef          	jal	x1,141c <_free_r>
     d40:	04c4a583          	lw	x11,76(x9)
     d44:	00058663          	beq	x11,x0,d50 <_reclaim_reent+0x94>
     d48:	00048513          	addi	x10,x9,0
     d4c:	6d0000ef          	jal	x1,141c <_free_r>
     d50:	0344a783          	lw	x15,52(x9)
     d54:	00078c63          	beq	x15,x0,d6c <_reclaim_reent+0xb0>
     d58:	01c12083          	lw	x1,28(x2)
     d5c:	00048513          	addi	x10,x9,0
     d60:	01412483          	lw	x9,20(x2)
     d64:	02010113          	addi	x2,x2,32
     d68:	00078067          	jalr	x0,0(x15)
     d6c:	01c12083          	lw	x1,28(x2)
     d70:	01412483          	lw	x9,20(x2)
     d74:	02010113          	addi	x2,x2,32
     d78:	00008067          	jalr	x0,0(x1)
     d7c:	00008067          	jalr	x0,0(x1)

00000d80 <_lseek_r>:
     d80:	ff010113          	addi	x2,x2,-16
     d84:	00058713          	addi	x14,x11,0
     d88:	00812423          	sw	x8,8(x2)
     d8c:	00912223          	sw	x9,4(x2)
     d90:	00060593          	addi	x11,x12,0
     d94:	00050413          	addi	x8,x10,0
     d98:	00068613          	addi	x12,x13,0
     d9c:	00070513          	addi	x10,x14,0
     da0:	00112623          	sw	x1,12(x2)
     da4:	f001ae23          	sw	x0,-228(x3) # 1305c <errno>
     da8:	e22ff0ef          	jal	x1,3ca <_lseek>
     dac:	fff00793          	addi	x15,x0,-1
     db0:	00f50c63          	beq	x10,x15,dc8 <_lseek_r+0x48>
     db4:	00c12083          	lw	x1,12(x2)
     db8:	00812403          	lw	x8,8(x2)
     dbc:	00412483          	lw	x9,4(x2)
     dc0:	01010113          	addi	x2,x2,16
     dc4:	00008067          	jalr	x0,0(x1)
     dc8:	f1c1a783          	lw	x15,-228(x3) # 1305c <errno>
     dcc:	fe0784e3          	beq	x15,x0,db4 <_lseek_r+0x34>
     dd0:	00c12083          	lw	x1,12(x2)
     dd4:	00f42023          	sw	x15,0(x8)
     dd8:	00812403          	lw	x8,8(x2)
     ddc:	00412483          	lw	x9,4(x2)
     de0:	01010113          	addi	x2,x2,16
     de4:	00008067          	jalr	x0,0(x1)

00000de8 <_read_r>:
     de8:	ff010113          	addi	x2,x2,-16
     dec:	00058713          	addi	x14,x11,0
     df0:	00812423          	sw	x8,8(x2)
     df4:	00912223          	sw	x9,4(x2)
     df8:	00060593          	addi	x11,x12,0
     dfc:	00050413          	addi	x8,x10,0
     e00:	00068613          	addi	x12,x13,0
     e04:	00070513          	addi	x10,x14,0
     e08:	00112623          	sw	x1,12(x2)
     e0c:	f001ae23          	sw	x0,-228(x3) # 1305c <errno>
     e10:	ddaff0ef          	jal	x1,3ea <_read>
     e14:	fff00793          	addi	x15,x0,-1
     e18:	00f50c63          	beq	x10,x15,e30 <_read_r+0x48>
     e1c:	00c12083          	lw	x1,12(x2)
     e20:	00812403          	lw	x8,8(x2)
     e24:	00412483          	lw	x9,4(x2)
     e28:	01010113          	addi	x2,x2,16
     e2c:	00008067          	jalr	x0,0(x1)
     e30:	f1c1a783          	lw	x15,-228(x3) # 1305c <errno>
     e34:	fe0784e3          	beq	x15,x0,e1c <_read_r+0x34>
     e38:	00c12083          	lw	x1,12(x2)
     e3c:	00f42023          	sw	x15,0(x8)
     e40:	00812403          	lw	x8,8(x2)
     e44:	00412483          	lw	x9,4(x2)
     e48:	01010113          	addi	x2,x2,16
     e4c:	00008067          	jalr	x0,0(x1)

00000e50 <_write_r>:
     e50:	ff010113          	addi	x2,x2,-16
     e54:	00058713          	addi	x14,x11,0
     e58:	00812423          	sw	x8,8(x2)
     e5c:	00912223          	sw	x9,4(x2)
     e60:	00060593          	addi	x11,x12,0
     e64:	00050413          	addi	x8,x10,0
     e68:	00068613          	addi	x12,x13,0
     e6c:	00070513          	addi	x10,x14,0
     e70:	00112623          	sw	x1,12(x2)
     e74:	f001ae23          	sw	x0,-228(x3) # 1305c <errno>
     e78:	da6ff0ef          	jal	x1,41e <_write>
     e7c:	fff00793          	addi	x15,x0,-1
     e80:	00f50c63          	beq	x10,x15,e98 <_write_r+0x48>
     e84:	00c12083          	lw	x1,12(x2)
     e88:	00812403          	lw	x8,8(x2)
     e8c:	00412483          	lw	x9,4(x2)
     e90:	01010113          	addi	x2,x2,16
     e94:	00008067          	jalr	x0,0(x1)
     e98:	f1c1a783          	lw	x15,-228(x3) # 1305c <errno>
     e9c:	fe0784e3          	beq	x15,x0,e84 <_write_r+0x34>
     ea0:	00c12083          	lw	x1,12(x2)
     ea4:	00f42023          	sw	x15,0(x8)
     ea8:	00812403          	lw	x8,8(x2)
     eac:	00412483          	lw	x9,4(x2)
     eb0:	01010113          	addi	x2,x2,16
     eb4:	00008067          	jalr	x0,0(x1)

00000eb8 <__libc_init_array>:
     eb8:	ff010113          	addi	x2,x2,-16
     ebc:	00812423          	sw	x8,8(x2)
     ec0:	000137b7          	lui	x15,0x13
     ec4:	00013437          	lui	x8,0x13
     ec8:	01212023          	sw	x18,0(x2)
     ecc:	93878793          	addi	x15,x15,-1736 # 12938 <__init_array_start>
     ed0:	93840713          	addi	x14,x8,-1736 # 12938 <__init_array_start>
     ed4:	00112623          	sw	x1,12(x2)
     ed8:	00912223          	sw	x9,4(x2)
     edc:	40e78933          	sub	x18,x15,x14
     ee0:	02e78263          	beq	x15,x14,f04 <__libc_init_array+0x4c>
     ee4:	40295913          	srai	x18,x18,0x2
     ee8:	93840413          	addi	x8,x8,-1736
     eec:	00000493          	addi	x9,x0,0
     ef0:	00042783          	lw	x15,0(x8)
     ef4:	00148493          	addi	x9,x9,1
     ef8:	00440413          	addi	x8,x8,4
     efc:	000780e7          	jalr	x1,0(x15)
     f00:	ff24e8e3          	bltu	x9,x18,ef0 <__libc_init_array+0x38>
     f04:	00013437          	lui	x8,0x13
     f08:	000137b7          	lui	x15,0x13
     f0c:	93c78793          	addi	x15,x15,-1732 # 1293c <__fini_array_end>
     f10:	93840713          	addi	x14,x8,-1736 # 12938 <__init_array_start>
     f14:	40e78933          	sub	x18,x15,x14
     f18:	40295913          	srai	x18,x18,0x2
     f1c:	02e78063          	beq	x15,x14,f3c <__libc_init_array+0x84>
     f20:	93840413          	addi	x8,x8,-1736
     f24:	00000493          	addi	x9,x0,0
     f28:	00042783          	lw	x15,0(x8)
     f2c:	00148493          	addi	x9,x9,1
     f30:	00440413          	addi	x8,x8,4
     f34:	000780e7          	jalr	x1,0(x15)
     f38:	ff24e8e3          	bltu	x9,x18,f28 <__libc_init_array+0x70>
     f3c:	00c12083          	lw	x1,12(x2)
     f40:	00812403          	lw	x8,8(x2)
     f44:	00412483          	lw	x9,4(x2)
     f48:	00012903          	lw	x18,0(x2)
     f4c:	01010113          	addi	x2,x2,16
     f50:	00008067          	jalr	x0,0(x1)

00000f54 <__libc_fini_array>:
     f54:	ff010113          	addi	x2,x2,-16
     f58:	00812423          	sw	x8,8(x2)
     f5c:	000137b7          	lui	x15,0x13
     f60:	00013437          	lui	x8,0x13
     f64:	93c78793          	addi	x15,x15,-1732 # 1293c <__fini_array_end>
     f68:	93c40413          	addi	x8,x8,-1732 # 1293c <__fini_array_end>
     f6c:	40f40433          	sub	x8,x8,x15
     f70:	00912223          	sw	x9,4(x2)
     f74:	00112623          	sw	x1,12(x2)
     f78:	40245493          	srai	x9,x8,0x2
     f7c:	02048063          	beq	x9,x0,f9c <__libc_fini_array+0x48>
     f80:	ffc40413          	addi	x8,x8,-4
     f84:	00f40433          	add	x8,x8,x15
     f88:	00042783          	lw	x15,0(x8)
     f8c:	fff48493          	addi	x9,x9,-1
     f90:	ffc40413          	addi	x8,x8,-4
     f94:	000780e7          	jalr	x1,0(x15)
     f98:	fe0498e3          	bne	x9,x0,f88 <__libc_fini_array+0x34>
     f9c:	00c12083          	lw	x1,12(x2)
     fa0:	00812403          	lw	x8,8(x2)
     fa4:	00412483          	lw	x9,4(x2)
     fa8:	01010113          	addi	x2,x2,16
     fac:	00008067          	jalr	x0,0(x1)

00000fb0 <memset>:
     fb0:	00f00313          	addi	x6,x0,15
     fb4:	00050713          	addi	x14,x10,0
     fb8:	02c37e63          	bgeu	x6,x12,ff4 <memset+0x44>
     fbc:	00f77793          	andi	x15,x14,15
     fc0:	0a079063          	bne	x15,x0,1060 <memset+0xb0>
     fc4:	08059263          	bne	x11,x0,1048 <memset+0x98>
     fc8:	ff067693          	andi	x13,x12,-16
     fcc:	00f67613          	andi	x12,x12,15
     fd0:	00e686b3          	add	x13,x13,x14
     fd4:	00b72023          	sw	x11,0(x14)
     fd8:	00b72223          	sw	x11,4(x14)
     fdc:	00b72423          	sw	x11,8(x14)
     fe0:	00b72623          	sw	x11,12(x14)
     fe4:	01070713          	addi	x14,x14,16
     fe8:	fed766e3          	bltu	x14,x13,fd4 <memset+0x24>
     fec:	00061463          	bne	x12,x0,ff4 <memset+0x44>
     ff0:	00008067          	jalr	x0,0(x1)
     ff4:	40c306b3          	sub	x13,x6,x12
     ff8:	00269693          	slli	x13,x13,0x2
     ffc:	00000297          	auipc	x5,0x0
    1000:	005686b3          	add	x13,x13,x5
    1004:	00c68067          	jalr	x0,12(x13)
    1008:	00b70723          	sb	x11,14(x14)
    100c:	00b706a3          	sb	x11,13(x14)
    1010:	00b70623          	sb	x11,12(x14)
    1014:	00b705a3          	sb	x11,11(x14)
    1018:	00b70523          	sb	x11,10(x14)
    101c:	00b704a3          	sb	x11,9(x14)
    1020:	00b70423          	sb	x11,8(x14)
    1024:	00b703a3          	sb	x11,7(x14)
    1028:	00b70323          	sb	x11,6(x14)
    102c:	00b702a3          	sb	x11,5(x14)
    1030:	00b70223          	sb	x11,4(x14)
    1034:	00b701a3          	sb	x11,3(x14)
    1038:	00b70123          	sb	x11,2(x14)
    103c:	00b700a3          	sb	x11,1(x14)
    1040:	00b70023          	sb	x11,0(x14)
    1044:	00008067          	jalr	x0,0(x1)
    1048:	0ff5f593          	andi	x11,x11,255
    104c:	00859693          	slli	x13,x11,0x8
    1050:	00d5e5b3          	or	x11,x11,x13
    1054:	01059693          	slli	x13,x11,0x10
    1058:	00d5e5b3          	or	x11,x11,x13
    105c:	f6dff06f          	jal	x0,fc8 <memset+0x18>
    1060:	00279693          	slli	x13,x15,0x2
    1064:	00000297          	auipc	x5,0x0
    1068:	005686b3          	add	x13,x13,x5
    106c:	00008293          	addi	x5,x1,0
    1070:	fa0680e7          	jalr	x1,-96(x13)
    1074:	00028093          	addi	x1,x5,0 # 1064 <memset+0xb4>
    1078:	ff078793          	addi	x15,x15,-16
    107c:	40f70733          	sub	x14,x14,x15
    1080:	00f60633          	add	x12,x12,x15
    1084:	f6c378e3          	bgeu	x6,x12,ff4 <memset+0x44>
    1088:	f3dff06f          	jal	x0,fc4 <memset+0x14>

0000108c <strlen>:
    108c:	00357793          	andi	x15,x10,3
    1090:	00050713          	addi	x14,x10,0
    1094:	04079c63          	bne	x15,x0,10ec <strlen+0x60>
    1098:	7f7f86b7          	lui	x13,0x7f7f8
    109c:	f7f68693          	addi	x13,x13,-129 # 7f7f7f7f <__heap_end+0x7f3f7f7f>
    10a0:	fff00593          	addi	x11,x0,-1
    10a4:	00072603          	lw	x12,0(x14)
    10a8:	00470713          	addi	x14,x14,4
    10ac:	00d677b3          	and	x15,x12,x13
    10b0:	00d787b3          	add	x15,x15,x13
    10b4:	00c7e7b3          	or	x15,x15,x12
    10b8:	00d7e7b3          	or	x15,x15,x13
    10bc:	feb784e3          	beq	x15,x11,10a4 <strlen+0x18>
    10c0:	ffc74683          	lbu	x13,-4(x14)
    10c4:	40a707b3          	sub	x15,x14,x10
    10c8:	04068463          	beq	x13,x0,1110 <strlen+0x84>
    10cc:	ffd74683          	lbu	x13,-3(x14)
    10d0:	02068c63          	beq	x13,x0,1108 <strlen+0x7c>
    10d4:	ffe74503          	lbu	x10,-2(x14)
    10d8:	00a03533          	sltu	x10,x0,x10
    10dc:	00f50533          	add	x10,x10,x15
    10e0:	ffe50513          	addi	x10,x10,-2
    10e4:	00008067          	jalr	x0,0(x1)
    10e8:	fa0688e3          	beq	x13,x0,1098 <strlen+0xc>
    10ec:	00074783          	lbu	x15,0(x14)
    10f0:	00170713          	addi	x14,x14,1
    10f4:	00377693          	andi	x13,x14,3
    10f8:	fe0798e3          	bne	x15,x0,10e8 <strlen+0x5c>
    10fc:	40a70733          	sub	x14,x14,x10
    1100:	fff70513          	addi	x10,x14,-1
    1104:	00008067          	jalr	x0,0(x1)
    1108:	ffd78513          	addi	x10,x15,-3
    110c:	00008067          	jalr	x0,0(x1)
    1110:	ffc78513          	addi	x10,x15,-4
    1114:	00008067          	jalr	x0,0(x1)

00001118 <__register_exitproc>:
    1118:	f201a783          	lw	x15,-224(x3) # 13060 <__atexit>
    111c:	04078c63          	beq	x15,x0,1174 <__register_exitproc+0x5c>
    1120:	0047a703          	lw	x14,4(x15)
    1124:	01f00813          	addi	x16,x0,31
    1128:	08e84063          	blt	x16,x14,11a8 <__register_exitproc+0x90>
    112c:	00271813          	slli	x16,x14,0x2
    1130:	02050663          	beq	x10,x0,115c <__register_exitproc+0x44>
    1134:	01078333          	add	x6,x15,x16
    1138:	08c32423          	sw	x12,136(x6)
    113c:	1887a883          	lw	x17,392(x15)
    1140:	00100613          	addi	x12,x0,1
    1144:	00e61633          	sll	x12,x12,x14
    1148:	00c8e8b3          	or	x17,x17,x12
    114c:	1917a423          	sw	x17,392(x15)
    1150:	10d32423          	sw	x13,264(x6)
    1154:	00200693          	addi	x13,x0,2
    1158:	02d50663          	beq	x10,x13,1184 <__register_exitproc+0x6c>
    115c:	00170713          	addi	x14,x14,1
    1160:	00e7a223          	sw	x14,4(x15)
    1164:	010787b3          	add	x15,x15,x16
    1168:	00b7a423          	sw	x11,8(x15)
    116c:	00000513          	addi	x10,x0,0
    1170:	00008067          	jalr	x0,0(x1)
    1174:	06c18813          	addi	x16,x3,108 # 131ac <__atexit0>
    1178:	f301a023          	sw	x16,-224(x3) # 13060 <__atexit>
    117c:	06c18793          	addi	x15,x3,108 # 131ac <__atexit0>
    1180:	fa1ff06f          	jal	x0,1120 <__register_exitproc+0x8>
    1184:	18c7a683          	lw	x13,396(x15)
    1188:	00170713          	addi	x14,x14,1
    118c:	00e7a223          	sw	x14,4(x15)
    1190:	00c6e6b3          	or	x13,x13,x12
    1194:	18d7a623          	sw	x13,396(x15)
    1198:	010787b3          	add	x15,x15,x16
    119c:	00b7a423          	sw	x11,8(x15)
    11a0:	00000513          	addi	x10,x0,0
    11a4:	00008067          	jalr	x0,0(x1)
    11a8:	fff00513          	addi	x10,x0,-1
    11ac:	00008067          	jalr	x0,0(x1)

000011b0 <__call_exitprocs>:
    11b0:	fd010113          	addi	x2,x2,-48
    11b4:	01412c23          	sw	x20,24(x2)
    11b8:	03212023          	sw	x18,32(x2)
    11bc:	f201a903          	lw	x18,-224(x3) # 13060 <__atexit>
    11c0:	02112623          	sw	x1,44(x2)
    11c4:	0a090863          	beq	x18,x0,1274 <__call_exitprocs+0xc4>
    11c8:	01312e23          	sw	x19,28(x2)
    11cc:	01512a23          	sw	x21,20(x2)
    11d0:	01612823          	sw	x22,16(x2)
    11d4:	01712623          	sw	x23,12(x2)
    11d8:	02812423          	sw	x8,40(x2)
    11dc:	02912223          	sw	x9,36(x2)
    11e0:	01812423          	sw	x24,8(x2)
    11e4:	00050b13          	addi	x22,x10,0
    11e8:	00058b93          	addi	x23,x11,0
    11ec:	fff00993          	addi	x19,x0,-1
    11f0:	00100a93          	addi	x21,x0,1
    11f4:	00492483          	lw	x9,4(x18)
    11f8:	fff48413          	addi	x8,x9,-1
    11fc:	04044e63          	blt	x8,x0,1258 <__call_exitprocs+0xa8>
    1200:	00249493          	slli	x9,x9,0x2
    1204:	009904b3          	add	x9,x18,x9
    1208:	080b9063          	bne	x23,x0,1288 <__call_exitprocs+0xd8>
    120c:	00492783          	lw	x15,4(x18)
    1210:	0044a683          	lw	x13,4(x9)
    1214:	fff78793          	addi	x15,x15,-1
    1218:	0a878c63          	beq	x15,x8,12d0 <__call_exitprocs+0x120>
    121c:	0004a223          	sw	x0,4(x9)
    1220:	02068663          	beq	x13,x0,124c <__call_exitprocs+0x9c>
    1224:	18892783          	lw	x15,392(x18)
    1228:	008a9733          	sll	x14,x21,x8
    122c:	00492c03          	lw	x24,4(x18)
    1230:	00f777b3          	and	x15,x14,x15
    1234:	06079663          	bne	x15,x0,12a0 <__call_exitprocs+0xf0>
    1238:	000680e7          	jalr	x1,0(x13)
    123c:	00492703          	lw	x14,4(x18)
    1240:	f201a783          	lw	x15,-224(x3) # 13060 <__atexit>
    1244:	09871063          	bne	x14,x24,12c4 <__call_exitprocs+0x114>
    1248:	07279e63          	bne	x15,x18,12c4 <__call_exitprocs+0x114>
    124c:	fff40413          	addi	x8,x8,-1
    1250:	ffc48493          	addi	x9,x9,-4
    1254:	fb341ae3          	bne	x8,x19,1208 <__call_exitprocs+0x58>
    1258:	02812403          	lw	x8,40(x2)
    125c:	02412483          	lw	x9,36(x2)
    1260:	01c12983          	lw	x19,28(x2)
    1264:	01412a83          	lw	x21,20(x2)
    1268:	01012b03          	lw	x22,16(x2)
    126c:	00c12b83          	lw	x23,12(x2)
    1270:	00812c03          	lw	x24,8(x2)
    1274:	02c12083          	lw	x1,44(x2)
    1278:	02012903          	lw	x18,32(x2)
    127c:	01812a03          	lw	x20,24(x2)
    1280:	03010113          	addi	x2,x2,48
    1284:	00008067          	jalr	x0,0(x1)
    1288:	1044a783          	lw	x15,260(x9)
    128c:	f97780e3          	beq	x15,x23,120c <__call_exitprocs+0x5c>
    1290:	fff40413          	addi	x8,x8,-1
    1294:	ffc48493          	addi	x9,x9,-4
    1298:	ff3418e3          	bne	x8,x19,1288 <__call_exitprocs+0xd8>
    129c:	fbdff06f          	jal	x0,1258 <__call_exitprocs+0xa8>
    12a0:	18c92783          	lw	x15,396(x18)
    12a4:	0844a583          	lw	x11,132(x9)
    12a8:	00f77733          	and	x14,x14,x15
    12ac:	02071663          	bne	x14,x0,12d8 <__call_exitprocs+0x128>
    12b0:	000b0513          	addi	x10,x22,0
    12b4:	000680e7          	jalr	x1,0(x13)
    12b8:	00492703          	lw	x14,4(x18)
    12bc:	f201a783          	lw	x15,-224(x3) # 13060 <__atexit>
    12c0:	f98704e3          	beq	x14,x24,1248 <__call_exitprocs+0x98>
    12c4:	f8078ae3          	beq	x15,x0,1258 <__call_exitprocs+0xa8>
    12c8:	00078913          	addi	x18,x15,0
    12cc:	f29ff06f          	jal	x0,11f4 <__call_exitprocs+0x44>
    12d0:	00892223          	sw	x8,4(x18)
    12d4:	f4dff06f          	jal	x0,1220 <__call_exitprocs+0x70>
    12d8:	00058513          	addi	x10,x11,0
    12dc:	000680e7          	jalr	x1,0(x13)
    12e0:	f5dff06f          	jal	x0,123c <__call_exitprocs+0x8c>

000012e4 <_malloc_trim_r>:
    12e4:	fe010113          	addi	x2,x2,-32
    12e8:	01312623          	sw	x19,12(x2)
    12ec:	000139b7          	lui	x19,0x13
    12f0:	00812c23          	sw	x8,24(x2)
    12f4:	00912a23          	sw	x9,20(x2)
    12f8:	01212823          	sw	x18,16(x2)
    12fc:	01412423          	sw	x20,8(x2)
    1300:	00112e23          	sw	x1,28(x2)
    1304:	00058a13          	addi	x20,x11,0
    1308:	00050913          	addi	x18,x10,0
    130c:	a7098993          	addi	x19,x19,-1424 # 12a70 <__malloc_av_>
    1310:	3cd000ef          	jal	x1,1edc <__malloc_lock>
    1314:	0089a703          	lw	x14,8(x19)
    1318:	000017b7          	lui	x15,0x1
    131c:	fef78793          	addi	x15,x15,-17 # fef <memset+0x3f>
    1320:	00472483          	lw	x9,4(x14)
    1324:	00001737          	lui	x14,0x1
    1328:	ffc4f493          	andi	x9,x9,-4
    132c:	00f48433          	add	x8,x9,x15
    1330:	41440433          	sub	x8,x8,x20
    1334:	00c45413          	srli	x8,x8,0xc
    1338:	fff40413          	addi	x8,x8,-1
    133c:	00c41413          	slli	x8,x8,0xc
    1340:	00e44e63          	blt	x8,x14,135c <_malloc_trim_r+0x78>
    1344:	00000593          	addi	x11,x0,0
    1348:	00090513          	addi	x10,x18,0
    134c:	3a1050ef          	jal	x1,6eec <_sbrk_r>
    1350:	0089a783          	lw	x15,8(x19)
    1354:	009787b3          	add	x15,x15,x9
    1358:	02f50863          	beq	x10,x15,1388 <_malloc_trim_r+0xa4>
    135c:	00090513          	addi	x10,x18,0
    1360:	381000ef          	jal	x1,1ee0 <__malloc_unlock>
    1364:	01c12083          	lw	x1,28(x2)
    1368:	01812403          	lw	x8,24(x2)
    136c:	01412483          	lw	x9,20(x2)
    1370:	01012903          	lw	x18,16(x2)
    1374:	00c12983          	lw	x19,12(x2)
    1378:	00812a03          	lw	x20,8(x2)
    137c:	00000513          	addi	x10,x0,0
    1380:	02010113          	addi	x2,x2,32
    1384:	00008067          	jalr	x0,0(x1)
    1388:	408005b3          	sub	x11,x0,x8
    138c:	00090513          	addi	x10,x18,0
    1390:	35d050ef          	jal	x1,6eec <_sbrk_r>
    1394:	fff00793          	addi	x15,x0,-1
    1398:	04f50863          	beq	x10,x15,13e8 <_malloc_trim_r+0x104>
    139c:	1fc18793          	addi	x15,x3,508 # 1333c <__malloc_current_mallinfo>
    13a0:	0007a703          	lw	x14,0(x15)
    13a4:	0089a683          	lw	x13,8(x19)
    13a8:	408484b3          	sub	x9,x9,x8
    13ac:	0014e493          	ori	x9,x9,1
    13b0:	40870733          	sub	x14,x14,x8
    13b4:	00090513          	addi	x10,x18,0
    13b8:	0096a223          	sw	x9,4(x13)
    13bc:	00e7a023          	sw	x14,0(x15)
    13c0:	321000ef          	jal	x1,1ee0 <__malloc_unlock>
    13c4:	01c12083          	lw	x1,28(x2)
    13c8:	01812403          	lw	x8,24(x2)
    13cc:	01412483          	lw	x9,20(x2)
    13d0:	01012903          	lw	x18,16(x2)
    13d4:	00c12983          	lw	x19,12(x2)
    13d8:	00812a03          	lw	x20,8(x2)
    13dc:	00100513          	addi	x10,x0,1
    13e0:	02010113          	addi	x2,x2,32
    13e4:	00008067          	jalr	x0,0(x1)
    13e8:	00000593          	addi	x11,x0,0
    13ec:	00090513          	addi	x10,x18,0
    13f0:	2fd050ef          	jal	x1,6eec <_sbrk_r>
    13f4:	0089a703          	lw	x14,8(x19)
    13f8:	00f00693          	addi	x13,x0,15
    13fc:	40e507b3          	sub	x15,x10,x14
    1400:	f4f6dee3          	bge	x13,x15,135c <_malloc_trim_r+0x78>
    1404:	f101a683          	lw	x13,-240(x3) # 13050 <__malloc_sbrk_base>
    1408:	0017e793          	ori	x15,x15,1
    140c:	00f72223          	sw	x15,4(x14) # 1004 <memset+0x54>
    1410:	40d50533          	sub	x10,x10,x13
    1414:	1ea1ae23          	sw	x10,508(x3) # 1333c <__malloc_current_mallinfo>
    1418:	f45ff06f          	jal	x0,135c <_malloc_trim_r+0x78>

0000141c <_free_r>:
    141c:	18058263          	beq	x11,x0,15a0 <_free_r+0x184>
    1420:	ff010113          	addi	x2,x2,-16
    1424:	00812423          	sw	x8,8(x2)
    1428:	00912223          	sw	x9,4(x2)
    142c:	00058413          	addi	x8,x11,0
    1430:	00050493          	addi	x9,x10,0
    1434:	00112623          	sw	x1,12(x2)
    1438:	2a5000ef          	jal	x1,1edc <__malloc_lock>
    143c:	ffc42503          	lw	x10,-4(x8)
    1440:	ff840713          	addi	x14,x8,-8
    1444:	000135b7          	lui	x11,0x13
    1448:	ffe57793          	andi	x15,x10,-2
    144c:	00f70633          	add	x12,x14,x15
    1450:	a7058593          	addi	x11,x11,-1424 # 12a70 <__malloc_av_>
    1454:	00462683          	lw	x13,4(x12)
    1458:	0085a803          	lw	x16,8(x11)
    145c:	ffc6f693          	andi	x13,x13,-4
    1460:	1ac80263          	beq	x16,x12,1604 <_free_r+0x1e8>
    1464:	00d62223          	sw	x13,4(x12)
    1468:	00157513          	andi	x10,x10,1
    146c:	00d60833          	add	x16,x12,x13
    1470:	0a051063          	bne	x10,x0,1510 <_free_r+0xf4>
    1474:	ff842303          	lw	x6,-8(x8)
    1478:	00482803          	lw	x16,4(x16)
    147c:	00013537          	lui	x10,0x13
    1480:	40670733          	sub	x14,x14,x6
    1484:	00872883          	lw	x17,8(x14)
    1488:	a7850513          	addi	x10,x10,-1416 # 12a78 <__malloc_av_+0x8>
    148c:	006787b3          	add	x15,x15,x6
    1490:	00187813          	andi	x16,x16,1
    1494:	14a88263          	beq	x17,x10,15d8 <_free_r+0x1bc>
    1498:	00c72303          	lw	x6,12(x14)
    149c:	0068a623          	sw	x6,12(x17)
    14a0:	01132423          	sw	x17,8(x6)
    14a4:	1a080663          	beq	x16,x0,1650 <_free_r+0x234>
    14a8:	0017e693          	ori	x13,x15,1
    14ac:	00d72223          	sw	x13,4(x14)
    14b0:	00f62023          	sw	x15,0(x12)
    14b4:	1ff00693          	addi	x13,x0,511
    14b8:	06f6ec63          	bltu	x13,x15,1530 <_free_r+0x114>
    14bc:	ff87f693          	andi	x13,x15,-8
    14c0:	00868693          	addi	x13,x13,8
    14c4:	0045a503          	lw	x10,4(x11)
    14c8:	00d586b3          	add	x13,x11,x13
    14cc:	0006a603          	lw	x12,0(x13)
    14d0:	0057d813          	srli	x16,x15,0x5
    14d4:	00100793          	addi	x15,x0,1
    14d8:	010797b3          	sll	x15,x15,x16
    14dc:	00a7e7b3          	or	x15,x15,x10
    14e0:	ff868513          	addi	x10,x13,-8
    14e4:	00a72623          	sw	x10,12(x14)
    14e8:	00c72423          	sw	x12,8(x14)
    14ec:	00f5a223          	sw	x15,4(x11)
    14f0:	00e6a023          	sw	x14,0(x13)
    14f4:	00e62623          	sw	x14,12(x12)
    14f8:	00812403          	lw	x8,8(x2)
    14fc:	00c12083          	lw	x1,12(x2)
    1500:	00048513          	addi	x10,x9,0
    1504:	00412483          	lw	x9,4(x2)
    1508:	01010113          	addi	x2,x2,16
    150c:	1d50006f          	jal	x0,1ee0 <__malloc_unlock>
    1510:	00482503          	lw	x10,4(x16)
    1514:	00157513          	andi	x10,x10,1
    1518:	08050663          	beq	x10,x0,15a4 <_free_r+0x188>
    151c:	0017e693          	ori	x13,x15,1
    1520:	fed42e23          	sw	x13,-4(x8)
    1524:	00f62023          	sw	x15,0(x12)
    1528:	1ff00693          	addi	x13,x0,511
    152c:	f8f6f8e3          	bgeu	x13,x15,14bc <_free_r+0xa0>
    1530:	0097d693          	srli	x13,x15,0x9
    1534:	00400613          	addi	x12,x0,4
    1538:	12d66063          	bltu	x12,x13,1658 <_free_r+0x23c>
    153c:	0067d693          	srli	x13,x15,0x6
    1540:	03968513          	addi	x10,x13,57
    1544:	03868613          	addi	x12,x13,56
    1548:	00351513          	slli	x10,x10,0x3
    154c:	00a58533          	add	x10,x11,x10
    1550:	00052683          	lw	x13,0(x10)
    1554:	ff850513          	addi	x10,x10,-8
    1558:	00d51863          	bne	x10,x13,1568 <_free_r+0x14c>
    155c:	1540006f          	jal	x0,16b0 <_free_r+0x294>
    1560:	0086a683          	lw	x13,8(x13)
    1564:	00d50863          	beq	x10,x13,1574 <_free_r+0x158>
    1568:	0046a603          	lw	x12,4(x13)
    156c:	ffc67613          	andi	x12,x12,-4
    1570:	fec7e8e3          	bltu	x15,x12,1560 <_free_r+0x144>
    1574:	00c6a503          	lw	x10,12(x13)
    1578:	00a72623          	sw	x10,12(x14)
    157c:	00d72423          	sw	x13,8(x14)
    1580:	00812403          	lw	x8,8(x2)
    1584:	00e52423          	sw	x14,8(x10)
    1588:	00c12083          	lw	x1,12(x2)
    158c:	00048513          	addi	x10,x9,0
    1590:	00412483          	lw	x9,4(x2)
    1594:	00e6a623          	sw	x14,12(x13)
    1598:	01010113          	addi	x2,x2,16
    159c:	1450006f          	jal	x0,1ee0 <__malloc_unlock>
    15a0:	00008067          	jalr	x0,0(x1)
    15a4:	00013537          	lui	x10,0x13
    15a8:	00d787b3          	add	x15,x15,x13
    15ac:	a7850513          	addi	x10,x10,-1416 # 12a78 <__malloc_av_+0x8>
    15b0:	00862683          	lw	x13,8(x12)
    15b4:	0ca68c63          	beq	x13,x10,168c <_free_r+0x270>
    15b8:	00c62803          	lw	x16,12(x12)
    15bc:	0017e513          	ori	x10,x15,1
    15c0:	00f70633          	add	x12,x14,x15
    15c4:	0106a623          	sw	x16,12(x13)
    15c8:	00d82423          	sw	x13,8(x16)
    15cc:	00a72223          	sw	x10,4(x14)
    15d0:	00f62023          	sw	x15,0(x12)
    15d4:	ee1ff06f          	jal	x0,14b4 <_free_r+0x98>
    15d8:	12081c63          	bne	x16,x0,1710 <_free_r+0x2f4>
    15dc:	00862583          	lw	x11,8(x12)
    15e0:	00c62603          	lw	x12,12(x12)
    15e4:	00f686b3          	add	x13,x13,x15
    15e8:	0016e793          	ori	x15,x13,1
    15ec:	00c5a623          	sw	x12,12(x11)
    15f0:	00b62423          	sw	x11,8(x12)
    15f4:	00f72223          	sw	x15,4(x14)
    15f8:	00d70733          	add	x14,x14,x13
    15fc:	00d72023          	sw	x13,0(x14)
    1600:	ef9ff06f          	jal	x0,14f8 <_free_r+0xdc>
    1604:	00157513          	andi	x10,x10,1
    1608:	00d786b3          	add	x13,x15,x13
    160c:	02051063          	bne	x10,x0,162c <_free_r+0x210>
    1610:	ff842503          	lw	x10,-8(x8)
    1614:	40a70733          	sub	x14,x14,x10
    1618:	00c72783          	lw	x15,12(x14)
    161c:	00872603          	lw	x12,8(x14)
    1620:	00a686b3          	add	x13,x13,x10
    1624:	00f62623          	sw	x15,12(x12)
    1628:	00c7a423          	sw	x12,8(x15)
    162c:	0016e613          	ori	x12,x13,1
    1630:	f141a783          	lw	x15,-236(x3) # 13054 <__malloc_trim_threshold>
    1634:	00c72223          	sw	x12,4(x14)
    1638:	00e5a423          	sw	x14,8(x11)
    163c:	eaf6eee3          	bltu	x13,x15,14f8 <_free_r+0xdc>
    1640:	f2c1a583          	lw	x11,-212(x3) # 1306c <__malloc_top_pad>
    1644:	00048513          	addi	x10,x9,0
    1648:	c9dff0ef          	jal	x1,12e4 <_malloc_trim_r>
    164c:	eadff06f          	jal	x0,14f8 <_free_r+0xdc>
    1650:	00d787b3          	add	x15,x15,x13
    1654:	f5dff06f          	jal	x0,15b0 <_free_r+0x194>
    1658:	01400613          	addi	x12,x0,20
    165c:	02d67063          	bgeu	x12,x13,167c <_free_r+0x260>
    1660:	05400613          	addi	x12,x0,84
    1664:	06d66463          	bltu	x12,x13,16cc <_free_r+0x2b0>
    1668:	00c7d693          	srli	x13,x15,0xc
    166c:	06f68513          	addi	x10,x13,111
    1670:	06e68613          	addi	x12,x13,110
    1674:	00351513          	slli	x10,x10,0x3
    1678:	ed5ff06f          	jal	x0,154c <_free_r+0x130>
    167c:	05c68513          	addi	x10,x13,92
    1680:	05b68613          	addi	x12,x13,91
    1684:	00351513          	slli	x10,x10,0x3
    1688:	ec5ff06f          	jal	x0,154c <_free_r+0x130>
    168c:	00e5aa23          	sw	x14,20(x11)
    1690:	00e5a823          	sw	x14,16(x11)
    1694:	0017e693          	ori	x13,x15,1
    1698:	00a72623          	sw	x10,12(x14)
    169c:	00a72423          	sw	x10,8(x14)
    16a0:	00d72223          	sw	x13,4(x14)
    16a4:	00f70733          	add	x14,x14,x15
    16a8:	00f72023          	sw	x15,0(x14)
    16ac:	e4dff06f          	jal	x0,14f8 <_free_r+0xdc>
    16b0:	0045a803          	lw	x16,4(x11)
    16b4:	40265613          	srai	x12,x12,0x2
    16b8:	00100793          	addi	x15,x0,1
    16bc:	00c797b3          	sll	x15,x15,x12
    16c0:	0107e7b3          	or	x15,x15,x16
    16c4:	00f5a223          	sw	x15,4(x11)
    16c8:	eb1ff06f          	jal	x0,1578 <_free_r+0x15c>
    16cc:	15400613          	addi	x12,x0,340
    16d0:	00d66c63          	bltu	x12,x13,16e8 <_free_r+0x2cc>
    16d4:	00f7d693          	srli	x13,x15,0xf
    16d8:	07868513          	addi	x10,x13,120
    16dc:	07768613          	addi	x12,x13,119
    16e0:	00351513          	slli	x10,x10,0x3
    16e4:	e69ff06f          	jal	x0,154c <_free_r+0x130>
    16e8:	55400613          	addi	x12,x0,1364
    16ec:	00d66c63          	bltu	x12,x13,1704 <_free_r+0x2e8>
    16f0:	0127d693          	srli	x13,x15,0x12
    16f4:	07d68513          	addi	x10,x13,125
    16f8:	07c68613          	addi	x12,x13,124
    16fc:	00351513          	slli	x10,x10,0x3
    1700:	e4dff06f          	jal	x0,154c <_free_r+0x130>
    1704:	3f800513          	addi	x10,x0,1016
    1708:	07e00613          	addi	x12,x0,126
    170c:	e41ff06f          	jal	x0,154c <_free_r+0x130>
    1710:	0017e693          	ori	x13,x15,1
    1714:	00d72223          	sw	x13,4(x14)
    1718:	00f62023          	sw	x15,0(x12)
    171c:	dddff06f          	jal	x0,14f8 <_free_r+0xdc>

00001720 <_malloc_r>:
    1720:	fd010113          	addi	x2,x2,-48
    1724:	01312e23          	sw	x19,28(x2)
    1728:	02112623          	sw	x1,44(x2)
    172c:	02812423          	sw	x8,40(x2)
    1730:	02912223          	sw	x9,36(x2)
    1734:	03212023          	sw	x18,32(x2)
    1738:	00b58793          	addi	x15,x11,11
    173c:	01600713          	addi	x14,x0,22
    1740:	00050993          	addi	x19,x10,0
    1744:	08f76263          	bltu	x14,x15,17c8 <_malloc_r+0xa8>
    1748:	01000793          	addi	x15,x0,16
    174c:	20b7e663          	bltu	x15,x11,1958 <_malloc_r+0x238>
    1750:	78c000ef          	jal	x1,1edc <__malloc_lock>
    1754:	01800793          	addi	x15,x0,24
    1758:	00200593          	addi	x11,x0,2
    175c:	01000493          	addi	x9,x0,16
    1760:	00013937          	lui	x18,0x13
    1764:	a7090913          	addi	x18,x18,-1424 # 12a70 <__malloc_av_>
    1768:	00f907b3          	add	x15,x18,x15
    176c:	0047a403          	lw	x8,4(x15)
    1770:	ff878713          	addi	x14,x15,-8
    1774:	34e40463          	beq	x8,x14,1abc <_malloc_r+0x39c>
    1778:	00442783          	lw	x15,4(x8)
    177c:	00c42683          	lw	x13,12(x8)
    1780:	00842603          	lw	x12,8(x8)
    1784:	ffc7f793          	andi	x15,x15,-4
    1788:	00f407b3          	add	x15,x8,x15
    178c:	0047a703          	lw	x14,4(x15)
    1790:	00d62623          	sw	x13,12(x12)
    1794:	00c6a423          	sw	x12,8(x13)
    1798:	00176713          	ori	x14,x14,1
    179c:	00098513          	addi	x10,x19,0
    17a0:	00e7a223          	sw	x14,4(x15)
    17a4:	73c000ef          	jal	x1,1ee0 <__malloc_unlock>
    17a8:	00840513          	addi	x10,x8,8
    17ac:	02c12083          	lw	x1,44(x2)
    17b0:	02812403          	lw	x8,40(x2)
    17b4:	02412483          	lw	x9,36(x2)
    17b8:	02012903          	lw	x18,32(x2)
    17bc:	01c12983          	lw	x19,28(x2)
    17c0:	03010113          	addi	x2,x2,48
    17c4:	00008067          	jalr	x0,0(x1)
    17c8:	ff87f493          	andi	x9,x15,-8
    17cc:	1807c663          	blt	x15,x0,1958 <_malloc_r+0x238>
    17d0:	18b4e463          	bltu	x9,x11,1958 <_malloc_r+0x238>
    17d4:	708000ef          	jal	x1,1edc <__malloc_lock>
    17d8:	1f700793          	addi	x15,x0,503
    17dc:	3e97fa63          	bgeu	x15,x9,1bd0 <_malloc_r+0x4b0>
    17e0:	0094d793          	srli	x15,x9,0x9
    17e4:	18078263          	beq	x15,x0,1968 <_malloc_r+0x248>
    17e8:	00400713          	addi	x14,x0,4
    17ec:	34f76063          	bltu	x14,x15,1b2c <_malloc_r+0x40c>
    17f0:	0064d793          	srli	x15,x9,0x6
    17f4:	03978593          	addi	x11,x15,57
    17f8:	03878813          	addi	x16,x15,56
    17fc:	00359613          	slli	x12,x11,0x3
    1800:	00013937          	lui	x18,0x13
    1804:	a7090913          	addi	x18,x18,-1424 # 12a70 <__malloc_av_>
    1808:	00c90633          	add	x12,x18,x12
    180c:	00462403          	lw	x8,4(x12)
    1810:	ff860613          	addi	x12,x12,-8
    1814:	02860863          	beq	x12,x8,1844 <_malloc_r+0x124>
    1818:	00f00513          	addi	x10,x0,15
    181c:	0140006f          	jal	x0,1830 <_malloc_r+0x110>
    1820:	00c42683          	lw	x13,12(x8)
    1824:	28075863          	bge	x14,x0,1ab4 <_malloc_r+0x394>
    1828:	00d60e63          	beq	x12,x13,1844 <_malloc_r+0x124>
    182c:	00068413          	addi	x8,x13,0
    1830:	00442783          	lw	x15,4(x8)
    1834:	ffc7f793          	andi	x15,x15,-4
    1838:	40978733          	sub	x14,x15,x9
    183c:	fee552e3          	bge	x10,x14,1820 <_malloc_r+0x100>
    1840:	00080593          	addi	x11,x16,0
    1844:	01092403          	lw	x8,16(x18)
    1848:	00013837          	lui	x16,0x13
    184c:	a7880813          	addi	x16,x16,-1416 # 12a78 <__malloc_av_+0x8>
    1850:	25040e63          	beq	x8,x16,1aac <_malloc_r+0x38c>
    1854:	00442783          	lw	x15,4(x8)
    1858:	00f00693          	addi	x13,x0,15
    185c:	ffc7f793          	andi	x15,x15,-4
    1860:	40978733          	sub	x14,x15,x9
    1864:	36e6cc63          	blt	x13,x14,1bdc <_malloc_r+0x4bc>
    1868:	01092a23          	sw	x16,20(x18)
    186c:	01092823          	sw	x16,16(x18)
    1870:	34075063          	bge	x14,x0,1bb0 <_malloc_r+0x490>
    1874:	1ff00713          	addi	x14,x0,511
    1878:	00492503          	lw	x10,4(x18)
    187c:	24f76863          	bltu	x14,x15,1acc <_malloc_r+0x3ac>
    1880:	ff87f713          	andi	x14,x15,-8
    1884:	00870713          	addi	x14,x14,8
    1888:	00e90733          	add	x14,x18,x14
    188c:	00072683          	lw	x13,0(x14)
    1890:	0057d613          	srli	x12,x15,0x5
    1894:	00100793          	addi	x15,x0,1
    1898:	00c797b3          	sll	x15,x15,x12
    189c:	00f56533          	or	x10,x10,x15
    18a0:	ff870793          	addi	x15,x14,-8
    18a4:	00f42623          	sw	x15,12(x8)
    18a8:	00d42423          	sw	x13,8(x8)
    18ac:	00a92223          	sw	x10,4(x18)
    18b0:	00872023          	sw	x8,0(x14)
    18b4:	0086a623          	sw	x8,12(x13)
    18b8:	4025d793          	srai	x15,x11,0x2
    18bc:	00100613          	addi	x12,x0,1
    18c0:	00f61633          	sll	x12,x12,x15
    18c4:	0ac56a63          	bltu	x10,x12,1978 <_malloc_r+0x258>
    18c8:	00a677b3          	and	x15,x12,x10
    18cc:	02079463          	bne	x15,x0,18f4 <_malloc_r+0x1d4>
    18d0:	00161613          	slli	x12,x12,0x1
    18d4:	ffc5f593          	andi	x11,x11,-4
    18d8:	00a677b3          	and	x15,x12,x10
    18dc:	00458593          	addi	x11,x11,4
    18e0:	00079a63          	bne	x15,x0,18f4 <_malloc_r+0x1d4>
    18e4:	00161613          	slli	x12,x12,0x1
    18e8:	00a677b3          	and	x15,x12,x10
    18ec:	00458593          	addi	x11,x11,4
    18f0:	fe078ae3          	beq	x15,x0,18e4 <_malloc_r+0x1c4>
    18f4:	00f00893          	addi	x17,x0,15
    18f8:	00359313          	slli	x6,x11,0x3
    18fc:	00690333          	add	x6,x18,x6
    1900:	00030513          	addi	x10,x6,0
    1904:	00c52783          	lw	x15,12(x10)
    1908:	00058e13          	addi	x28,x11,0
    190c:	24f50263          	beq	x10,x15,1b50 <_malloc_r+0x430>
    1910:	0047a703          	lw	x14,4(x15)
    1914:	00078413          	addi	x8,x15,0
    1918:	00c7a783          	lw	x15,12(x15)
    191c:	ffc77713          	andi	x14,x14,-4
    1920:	409706b3          	sub	x13,x14,x9
    1924:	24d8c263          	blt	x17,x13,1b68 <_malloc_r+0x448>
    1928:	fe06c2e3          	blt	x13,x0,190c <_malloc_r+0x1ec>
    192c:	00e40733          	add	x14,x8,x14
    1930:	00472683          	lw	x13,4(x14)
    1934:	00842603          	lw	x12,8(x8)
    1938:	00098513          	addi	x10,x19,0
    193c:	0016e693          	ori	x13,x13,1
    1940:	00d72223          	sw	x13,4(x14)
    1944:	00f62623          	sw	x15,12(x12)
    1948:	00c7a423          	sw	x12,8(x15)
    194c:	594000ef          	jal	x1,1ee0 <__malloc_unlock>
    1950:	00840513          	addi	x10,x8,8
    1954:	e59ff06f          	jal	x0,17ac <_malloc_r+0x8c>
    1958:	00c00793          	addi	x15,x0,12
    195c:	00f9a023          	sw	x15,0(x19)
    1960:	00000513          	addi	x10,x0,0
    1964:	e49ff06f          	jal	x0,17ac <_malloc_r+0x8c>
    1968:	20000613          	addi	x12,x0,512
    196c:	04000593          	addi	x11,x0,64
    1970:	03f00813          	addi	x16,x0,63
    1974:	e8dff06f          	jal	x0,1800 <_malloc_r+0xe0>
    1978:	00892403          	lw	x8,8(x18)
    197c:	01612823          	sw	x22,16(x2)
    1980:	00442783          	lw	x15,4(x8)
    1984:	ffc7fb13          	andi	x22,x15,-4
    1988:	009b6863          	bltu	x22,x9,1998 <_malloc_r+0x278>
    198c:	409b0733          	sub	x14,x22,x9
    1990:	00f00793          	addi	x15,x0,15
    1994:	0ce7ca63          	blt	x15,x14,1a68 <_malloc_r+0x348>
    1998:	01912223          	sw	x25,4(x2)
    199c:	01512a23          	sw	x21,20(x2)
    19a0:	f101a703          	lw	x14,-240(x3) # 13050 <__malloc_sbrk_base>
    19a4:	f2c1aa83          	lw	x21,-212(x3) # 1306c <__malloc_top_pad>
    19a8:	01412c23          	sw	x20,24(x2)
    19ac:	01712623          	sw	x23,12(x2)
    19b0:	fff00793          	addi	x15,x0,-1
    19b4:	01640a33          	add	x20,x8,x22
    19b8:	01548ab3          	add	x21,x9,x21
    19bc:	3cf70663          	beq	x14,x15,1d88 <_malloc_r+0x668>
    19c0:	000017b7          	lui	x15,0x1
    19c4:	00f78793          	addi	x15,x15,15 # 100f <memset+0x5f>
    19c8:	00fa8ab3          	add	x21,x21,x15
    19cc:	fffff7b7          	lui	x15,0xfffff
    19d0:	00fafab3          	and	x21,x21,x15
    19d4:	000a8593          	addi	x11,x21,0
    19d8:	00098513          	addi	x10,x19,0
    19dc:	510050ef          	jal	x1,6eec <_sbrk_r>
    19e0:	fff00793          	addi	x15,x0,-1
    19e4:	00050b93          	addi	x23,x10,0
    19e8:	44f50a63          	beq	x10,x15,1e3c <_malloc_r+0x71c>
    19ec:	01812423          	sw	x24,8(x2)
    19f0:	23456e63          	bltu	x10,x20,1c2c <_malloc_r+0x50c>
    19f4:	1fc18c13          	addi	x24,x3,508 # 1333c <__malloc_current_mallinfo>
    19f8:	000c2583          	lw	x11,0(x24)
    19fc:	00ba85b3          	add	x11,x21,x11
    1a00:	00bc2023          	sw	x11,0(x24)
    1a04:	00058713          	addi	x14,x11,0
    1a08:	2aaa1663          	bne	x20,x10,1cb4 <_malloc_r+0x594>
    1a0c:	01451793          	slli	x15,x10,0x14
    1a10:	2a079263          	bne	x15,x0,1cb4 <_malloc_r+0x594>
    1a14:	00892b83          	lw	x23,8(x18)
    1a18:	015b07b3          	add	x15,x22,x21
    1a1c:	0017e793          	ori	x15,x15,1
    1a20:	00fba223          	sw	x15,4(x23)
    1a24:	f281a683          	lw	x13,-216(x3) # 13068 <__malloc_max_sbrked_mem>
    1a28:	00b6f463          	bgeu	x13,x11,1a30 <_malloc_r+0x310>
    1a2c:	f2b1a423          	sw	x11,-216(x3) # 13068 <__malloc_max_sbrked_mem>
    1a30:	f241a683          	lw	x13,-220(x3) # 13064 <__malloc_max_total_mem>
    1a34:	00b6f463          	bgeu	x13,x11,1a3c <_malloc_r+0x31c>
    1a38:	f2b1a223          	sw	x11,-220(x3) # 13064 <__malloc_max_total_mem>
    1a3c:	00812c03          	lw	x24,8(x2)
    1a40:	000b8413          	addi	x8,x23,0
    1a44:	ffc7f793          	andi	x15,x15,-4
    1a48:	40978733          	sub	x14,x15,x9
    1a4c:	3897ea63          	bltu	x15,x9,1de0 <_malloc_r+0x6c0>
    1a50:	00f00793          	addi	x15,x0,15
    1a54:	38e7d663          	bge	x15,x14,1de0 <_malloc_r+0x6c0>
    1a58:	01812a03          	lw	x20,24(x2)
    1a5c:	01412a83          	lw	x21,20(x2)
    1a60:	00c12b83          	lw	x23,12(x2)
    1a64:	00412c83          	lw	x25,4(x2)
    1a68:	0014e793          	ori	x15,x9,1
    1a6c:	00f42223          	sw	x15,4(x8)
    1a70:	009404b3          	add	x9,x8,x9
    1a74:	00992423          	sw	x9,8(x18)
    1a78:	00176713          	ori	x14,x14,1
    1a7c:	00098513          	addi	x10,x19,0
    1a80:	00e4a223          	sw	x14,4(x9)
    1a84:	45c000ef          	jal	x1,1ee0 <__malloc_unlock>
    1a88:	02c12083          	lw	x1,44(x2)
    1a8c:	00840513          	addi	x10,x8,8
    1a90:	02812403          	lw	x8,40(x2)
    1a94:	01012b03          	lw	x22,16(x2)
    1a98:	02412483          	lw	x9,36(x2)
    1a9c:	02012903          	lw	x18,32(x2)
    1aa0:	01c12983          	lw	x19,28(x2)
    1aa4:	03010113          	addi	x2,x2,48
    1aa8:	00008067          	jalr	x0,0(x1)
    1aac:	00492503          	lw	x10,4(x18)
    1ab0:	e09ff06f          	jal	x0,18b8 <_malloc_r+0x198>
    1ab4:	00842603          	lw	x12,8(x8)
    1ab8:	cd1ff06f          	jal	x0,1788 <_malloc_r+0x68>
    1abc:	00c7a403          	lw	x8,12(x15) # fffff00c <__heap_end+0xffbff00c>
    1ac0:	00258593          	addi	x11,x11,2
    1ac4:	d88780e3          	beq	x15,x8,1844 <_malloc_r+0x124>
    1ac8:	cb1ff06f          	jal	x0,1778 <_malloc_r+0x58>
    1acc:	0097d713          	srli	x14,x15,0x9
    1ad0:	00400693          	addi	x13,x0,4
    1ad4:	14e6f263          	bgeu	x13,x14,1c18 <_malloc_r+0x4f8>
    1ad8:	01400693          	addi	x13,x0,20
    1adc:	32e6e463          	bltu	x13,x14,1e04 <_malloc_r+0x6e4>
    1ae0:	05c70613          	addi	x12,x14,92
    1ae4:	05b70693          	addi	x13,x14,91
    1ae8:	00361613          	slli	x12,x12,0x3
    1aec:	00c90633          	add	x12,x18,x12
    1af0:	00062703          	lw	x14,0(x12)
    1af4:	ff860613          	addi	x12,x12,-8
    1af8:	00e61863          	bne	x12,x14,1b08 <_malloc_r+0x3e8>
    1afc:	2940006f          	jal	x0,1d90 <_malloc_r+0x670>
    1b00:	00872703          	lw	x14,8(x14)
    1b04:	00e60863          	beq	x12,x14,1b14 <_malloc_r+0x3f4>
    1b08:	00472683          	lw	x13,4(x14)
    1b0c:	ffc6f693          	andi	x13,x13,-4
    1b10:	fed7e8e3          	bltu	x15,x13,1b00 <_malloc_r+0x3e0>
    1b14:	00c72603          	lw	x12,12(x14)
    1b18:	00c42623          	sw	x12,12(x8)
    1b1c:	00e42423          	sw	x14,8(x8)
    1b20:	00862423          	sw	x8,8(x12)
    1b24:	00872623          	sw	x8,12(x14)
    1b28:	d91ff06f          	jal	x0,18b8 <_malloc_r+0x198>
    1b2c:	01400713          	addi	x14,x0,20
    1b30:	10f77863          	bgeu	x14,x15,1c40 <_malloc_r+0x520>
    1b34:	05400713          	addi	x14,x0,84
    1b38:	2ef76463          	bltu	x14,x15,1e20 <_malloc_r+0x700>
    1b3c:	00c4d793          	srli	x15,x9,0xc
    1b40:	06f78593          	addi	x11,x15,111
    1b44:	06e78813          	addi	x16,x15,110
    1b48:	00359613          	slli	x12,x11,0x3
    1b4c:	cb5ff06f          	jal	x0,1800 <_malloc_r+0xe0>
    1b50:	001e0e13          	addi	x28,x28,1
    1b54:	003e7793          	andi	x15,x28,3
    1b58:	00850513          	addi	x10,x10,8
    1b5c:	10078063          	beq	x15,x0,1c5c <_malloc_r+0x53c>
    1b60:	00c52783          	lw	x15,12(x10)
    1b64:	da9ff06f          	jal	x0,190c <_malloc_r+0x1ec>
    1b68:	00842603          	lw	x12,8(x8)
    1b6c:	0014e593          	ori	x11,x9,1
    1b70:	00b42223          	sw	x11,4(x8)
    1b74:	00f62623          	sw	x15,12(x12)
    1b78:	00c7a423          	sw	x12,8(x15)
    1b7c:	009404b3          	add	x9,x8,x9
    1b80:	00992a23          	sw	x9,20(x18)
    1b84:	00992823          	sw	x9,16(x18)
    1b88:	0016e793          	ori	x15,x13,1
    1b8c:	0104a623          	sw	x16,12(x9)
    1b90:	0104a423          	sw	x16,8(x9)
    1b94:	00f4a223          	sw	x15,4(x9)
    1b98:	00e40733          	add	x14,x8,x14
    1b9c:	00098513          	addi	x10,x19,0
    1ba0:	00d72023          	sw	x13,0(x14)
    1ba4:	33c000ef          	jal	x1,1ee0 <__malloc_unlock>
    1ba8:	00840513          	addi	x10,x8,8
    1bac:	c01ff06f          	jal	x0,17ac <_malloc_r+0x8c>
    1bb0:	00f407b3          	add	x15,x8,x15
    1bb4:	0047a703          	lw	x14,4(x15)
    1bb8:	00098513          	addi	x10,x19,0
    1bbc:	00176713          	ori	x14,x14,1
    1bc0:	00e7a223          	sw	x14,4(x15)
    1bc4:	31c000ef          	jal	x1,1ee0 <__malloc_unlock>
    1bc8:	00840513          	addi	x10,x8,8
    1bcc:	be1ff06f          	jal	x0,17ac <_malloc_r+0x8c>
    1bd0:	0034d593          	srli	x11,x9,0x3
    1bd4:	00848793          	addi	x15,x9,8
    1bd8:	b89ff06f          	jal	x0,1760 <_malloc_r+0x40>
    1bdc:	0014e693          	ori	x13,x9,1
    1be0:	00d42223          	sw	x13,4(x8)
    1be4:	009404b3          	add	x9,x8,x9
    1be8:	00992a23          	sw	x9,20(x18)
    1bec:	00992823          	sw	x9,16(x18)
    1bf0:	00176693          	ori	x13,x14,1
    1bf4:	0104a623          	sw	x16,12(x9)
    1bf8:	0104a423          	sw	x16,8(x9)
    1bfc:	00d4a223          	sw	x13,4(x9)
    1c00:	00f407b3          	add	x15,x8,x15
    1c04:	00098513          	addi	x10,x19,0
    1c08:	00e7a023          	sw	x14,0(x15)
    1c0c:	2d4000ef          	jal	x1,1ee0 <__malloc_unlock>
    1c10:	00840513          	addi	x10,x8,8
    1c14:	b99ff06f          	jal	x0,17ac <_malloc_r+0x8c>
    1c18:	0067d713          	srli	x14,x15,0x6
    1c1c:	03970613          	addi	x12,x14,57
    1c20:	03870693          	addi	x13,x14,56
    1c24:	00361613          	slli	x12,x12,0x3
    1c28:	ec5ff06f          	jal	x0,1aec <_malloc_r+0x3cc>
    1c2c:	07240c63          	beq	x8,x18,1ca4 <_malloc_r+0x584>
    1c30:	00892403          	lw	x8,8(x18)
    1c34:	00812c03          	lw	x24,8(x2)
    1c38:	00442783          	lw	x15,4(x8)
    1c3c:	e09ff06f          	jal	x0,1a44 <_malloc_r+0x324>
    1c40:	05c78593          	addi	x11,x15,92
    1c44:	05b78813          	addi	x16,x15,91
    1c48:	00359613          	slli	x12,x11,0x3
    1c4c:	bb5ff06f          	jal	x0,1800 <_malloc_r+0xe0>
    1c50:	00832783          	lw	x15,8(x6)
    1c54:	fff58593          	addi	x11,x11,-1
    1c58:	26679e63          	bne	x15,x6,1ed4 <_malloc_r+0x7b4>
    1c5c:	0035f793          	andi	x15,x11,3
    1c60:	ff830313          	addi	x6,x6,-8
    1c64:	fe0796e3          	bne	x15,x0,1c50 <_malloc_r+0x530>
    1c68:	00492703          	lw	x14,4(x18)
    1c6c:	fff64793          	xori	x15,x12,-1
    1c70:	00e7f7b3          	and	x15,x15,x14
    1c74:	00f92223          	sw	x15,4(x18)
    1c78:	00161613          	slli	x12,x12,0x1
    1c7c:	cec7eee3          	bltu	x15,x12,1978 <_malloc_r+0x258>
    1c80:	ce060ce3          	beq	x12,x0,1978 <_malloc_r+0x258>
    1c84:	00f67733          	and	x14,x12,x15
    1c88:	00071a63          	bne	x14,x0,1c9c <_malloc_r+0x57c>
    1c8c:	00161613          	slli	x12,x12,0x1
    1c90:	00f67733          	and	x14,x12,x15
    1c94:	004e0e13          	addi	x28,x28,4
    1c98:	fe070ae3          	beq	x14,x0,1c8c <_malloc_r+0x56c>
    1c9c:	000e0593          	addi	x11,x28,0
    1ca0:	c59ff06f          	jal	x0,18f8 <_malloc_r+0x1d8>
    1ca4:	1fc18c13          	addi	x24,x3,508 # 1333c <__malloc_current_mallinfo>
    1ca8:	000c2703          	lw	x14,0(x24)
    1cac:	00ea8733          	add	x14,x21,x14
    1cb0:	00ec2023          	sw	x14,0(x24)
    1cb4:	f101a683          	lw	x13,-240(x3) # 13050 <__malloc_sbrk_base>
    1cb8:	fff00793          	addi	x15,x0,-1
    1cbc:	18f68663          	beq	x13,x15,1e48 <_malloc_r+0x728>
    1cc0:	414b87b3          	sub	x15,x23,x20
    1cc4:	00e787b3          	add	x15,x15,x14
    1cc8:	00fc2023          	sw	x15,0(x24)
    1ccc:	007bfc93          	andi	x25,x23,7
    1cd0:	0c0c8c63          	beq	x25,x0,1da8 <_malloc_r+0x688>
    1cd4:	419b8bb3          	sub	x23,x23,x25
    1cd8:	000017b7          	lui	x15,0x1
    1cdc:	00878793          	addi	x15,x15,8 # 1008 <memset+0x58>
    1ce0:	008b8b93          	addi	x23,x23,8
    1ce4:	419785b3          	sub	x11,x15,x25
    1ce8:	015b8ab3          	add	x21,x23,x21
    1cec:	415585b3          	sub	x11,x11,x21
    1cf0:	01459593          	slli	x11,x11,0x14
    1cf4:	0145da13          	srli	x20,x11,0x14
    1cf8:	000a0593          	addi	x11,x20,0
    1cfc:	00098513          	addi	x10,x19,0
    1d00:	1ec050ef          	jal	x1,6eec <_sbrk_r>
    1d04:	fff00793          	addi	x15,x0,-1
    1d08:	18f50063          	beq	x10,x15,1e88 <_malloc_r+0x768>
    1d0c:	41750533          	sub	x10,x10,x23
    1d10:	01450ab3          	add	x21,x10,x20
    1d14:	000c2703          	lw	x14,0(x24)
    1d18:	01792423          	sw	x23,8(x18)
    1d1c:	001ae793          	ori	x15,x21,1
    1d20:	00ea05b3          	add	x11,x20,x14
    1d24:	00bc2023          	sw	x11,0(x24)
    1d28:	00fba223          	sw	x15,4(x23)
    1d2c:	cf240ce3          	beq	x8,x18,1a24 <_malloc_r+0x304>
    1d30:	00f00693          	addi	x13,x0,15
    1d34:	0b66f063          	bgeu	x13,x22,1dd4 <_malloc_r+0x6b4>
    1d38:	00442703          	lw	x14,4(x8)
    1d3c:	ff4b0793          	addi	x15,x22,-12
    1d40:	ff87f793          	andi	x15,x15,-8
    1d44:	00177713          	andi	x14,x14,1
    1d48:	00f76733          	or	x14,x14,x15
    1d4c:	00e42223          	sw	x14,4(x8)
    1d50:	00500613          	addi	x12,x0,5
    1d54:	00f40733          	add	x14,x8,x15
    1d58:	00c72223          	sw	x12,4(x14)
    1d5c:	00c72423          	sw	x12,8(x14)
    1d60:	00f6e663          	bltu	x13,x15,1d6c <_malloc_r+0x64c>
    1d64:	004ba783          	lw	x15,4(x23)
    1d68:	cbdff06f          	jal	x0,1a24 <_malloc_r+0x304>
    1d6c:	00840593          	addi	x11,x8,8
    1d70:	00098513          	addi	x10,x19,0
    1d74:	ea8ff0ef          	jal	x1,141c <_free_r>
    1d78:	00892b83          	lw	x23,8(x18)
    1d7c:	000c2583          	lw	x11,0(x24)
    1d80:	004ba783          	lw	x15,4(x23)
    1d84:	ca1ff06f          	jal	x0,1a24 <_malloc_r+0x304>
    1d88:	010a8a93          	addi	x21,x21,16
    1d8c:	c49ff06f          	jal	x0,19d4 <_malloc_r+0x2b4>
    1d90:	4026d693          	srai	x13,x13,0x2
    1d94:	00100793          	addi	x15,x0,1
    1d98:	00d797b3          	sll	x15,x15,x13
    1d9c:	00f56533          	or	x10,x10,x15
    1da0:	00a92223          	sw	x10,4(x18)
    1da4:	d75ff06f          	jal	x0,1b18 <_malloc_r+0x3f8>
    1da8:	015b85b3          	add	x11,x23,x21
    1dac:	40b005b3          	sub	x11,x0,x11
    1db0:	01459593          	slli	x11,x11,0x14
    1db4:	0145da13          	srli	x20,x11,0x14
    1db8:	000a0593          	addi	x11,x20,0
    1dbc:	00098513          	addi	x10,x19,0
    1dc0:	12c050ef          	jal	x1,6eec <_sbrk_r>
    1dc4:	fff00793          	addi	x15,x0,-1
    1dc8:	f4f512e3          	bne	x10,x15,1d0c <_malloc_r+0x5ec>
    1dcc:	00000a13          	addi	x20,x0,0
    1dd0:	f45ff06f          	jal	x0,1d14 <_malloc_r+0x5f4>
    1dd4:	00812c03          	lw	x24,8(x2)
    1dd8:	00100793          	addi	x15,x0,1
    1ddc:	00fba223          	sw	x15,4(x23)
    1de0:	00098513          	addi	x10,x19,0
    1de4:	0fc000ef          	jal	x1,1ee0 <__malloc_unlock>
    1de8:	00000513          	addi	x10,x0,0
    1dec:	01812a03          	lw	x20,24(x2)
    1df0:	01412a83          	lw	x21,20(x2)
    1df4:	01012b03          	lw	x22,16(x2)
    1df8:	00c12b83          	lw	x23,12(x2)
    1dfc:	00412c83          	lw	x25,4(x2)
    1e00:	9adff06f          	jal	x0,17ac <_malloc_r+0x8c>
    1e04:	05400693          	addi	x13,x0,84
    1e08:	04e6e463          	bltu	x13,x14,1e50 <_malloc_r+0x730>
    1e0c:	00c7d713          	srli	x14,x15,0xc
    1e10:	06f70613          	addi	x12,x14,111
    1e14:	06e70693          	addi	x13,x14,110
    1e18:	00361613          	slli	x12,x12,0x3
    1e1c:	cd1ff06f          	jal	x0,1aec <_malloc_r+0x3cc>
    1e20:	15400713          	addi	x14,x0,340
    1e24:	04f76463          	bltu	x14,x15,1e6c <_malloc_r+0x74c>
    1e28:	00f4d793          	srli	x15,x9,0xf
    1e2c:	07878593          	addi	x11,x15,120
    1e30:	07778813          	addi	x16,x15,119
    1e34:	00359613          	slli	x12,x11,0x3
    1e38:	9c9ff06f          	jal	x0,1800 <_malloc_r+0xe0>
    1e3c:	00892403          	lw	x8,8(x18)
    1e40:	00442783          	lw	x15,4(x8)
    1e44:	c01ff06f          	jal	x0,1a44 <_malloc_r+0x324>
    1e48:	f171a823          	sw	x23,-240(x3) # 13050 <__malloc_sbrk_base>
    1e4c:	e81ff06f          	jal	x0,1ccc <_malloc_r+0x5ac>
    1e50:	15400693          	addi	x13,x0,340
    1e54:	04e6e463          	bltu	x13,x14,1e9c <_malloc_r+0x77c>
    1e58:	00f7d713          	srli	x14,x15,0xf
    1e5c:	07870613          	addi	x12,x14,120
    1e60:	07770693          	addi	x13,x14,119
    1e64:	00361613          	slli	x12,x12,0x3
    1e68:	c85ff06f          	jal	x0,1aec <_malloc_r+0x3cc>
    1e6c:	55400713          	addi	x14,x0,1364
    1e70:	04f76463          	bltu	x14,x15,1eb8 <_malloc_r+0x798>
    1e74:	0124d793          	srli	x15,x9,0x12
    1e78:	07d78593          	addi	x11,x15,125
    1e7c:	07c78813          	addi	x16,x15,124
    1e80:	00359613          	slli	x12,x11,0x3
    1e84:	97dff06f          	jal	x0,1800 <_malloc_r+0xe0>
    1e88:	ff8c8c93          	addi	x25,x25,-8
    1e8c:	019a8ab3          	add	x21,x21,x25
    1e90:	417a8ab3          	sub	x21,x21,x23
    1e94:	00000a13          	addi	x20,x0,0
    1e98:	e7dff06f          	jal	x0,1d14 <_malloc_r+0x5f4>
    1e9c:	55400693          	addi	x13,x0,1364
    1ea0:	02e6e463          	bltu	x13,x14,1ec8 <_malloc_r+0x7a8>
    1ea4:	0127d713          	srli	x14,x15,0x12
    1ea8:	07d70613          	addi	x12,x14,125
    1eac:	07c70693          	addi	x13,x14,124
    1eb0:	00361613          	slli	x12,x12,0x3
    1eb4:	c39ff06f          	jal	x0,1aec <_malloc_r+0x3cc>
    1eb8:	3f800613          	addi	x12,x0,1016
    1ebc:	07f00593          	addi	x11,x0,127
    1ec0:	07e00813          	addi	x16,x0,126
    1ec4:	93dff06f          	jal	x0,1800 <_malloc_r+0xe0>
    1ec8:	3f800613          	addi	x12,x0,1016
    1ecc:	07e00693          	addi	x13,x0,126
    1ed0:	c1dff06f          	jal	x0,1aec <_malloc_r+0x3cc>
    1ed4:	00492783          	lw	x15,4(x18)
    1ed8:	da1ff06f          	jal	x0,1c78 <_malloc_r+0x558>

00001edc <__malloc_lock>:
    1edc:	00008067          	jalr	x0,0(x1)

00001ee0 <__malloc_unlock>:
    1ee0:	00008067          	jalr	x0,0(x1)

00001ee4 <_vfprintf_r>:
    1ee4:	e3010113          	addi	x2,x2,-464
    1ee8:	1c112623          	sw	x1,460(x2)
    1eec:	1c812423          	sw	x8,456(x2)
    1ef0:	1c912223          	sw	x9,452(x2)
    1ef4:	1b612823          	sw	x22,432(x2)
    1ef8:	00058493          	addi	x9,x11,0
    1efc:	00060b13          	addi	x22,x12,0
    1f00:	00d12623          	sw	x13,12(x2)
    1f04:	00050413          	addi	x8,x10,0
    1f08:	02a12223          	sw	x10,36(x2)
    1f0c:	7d1040ef          	jal	x1,6edc <_localeconv_r>
    1f10:	00052703          	lw	x14,0(x10)
    1f14:	00070513          	addi	x10,x14,0
    1f18:	02e12623          	sw	x14,44(x2)
    1f1c:	970ff0ef          	jal	x1,108c <strlen>
    1f20:	02a12423          	sw	x10,40(x2)
    1f24:	0c012823          	sw	x0,208(x2)
    1f28:	0c012a23          	sw	x0,212(x2)
    1f2c:	0c012c23          	sw	x0,216(x2)
    1f30:	0c012e23          	sw	x0,220(x2)
    1f34:	00040863          	beq	x8,x0,1f44 <_vfprintf_r+0x60>
    1f38:	03442703          	lw	x14,52(x8)
    1f3c:	00071463          	bne	x14,x0,1f44 <_vfprintf_r+0x60>
    1f40:	1150106f          	jal	x0,3854 <_vfprintf_r+0x1970>
    1f44:	00c49703          	lh	x14,12(x9)
    1f48:	01271693          	slli	x13,x14,0x12
    1f4c:	0206c663          	blt	x13,x0,1f78 <_vfprintf_r+0x94>
    1f50:	0644a683          	lw	x13,100(x9)
    1f54:	000025b7          	lui	x11,0x2
    1f58:	ffffe637          	lui	x12,0xffffe
    1f5c:	00b76733          	or	x14,x14,x11
    1f60:	fff60613          	addi	x12,x12,-1 # ffffdfff <__heap_end+0xffbfdfff>
    1f64:	01071713          	slli	x14,x14,0x10
    1f68:	41075713          	srai	x14,x14,0x10
    1f6c:	00c6f6b3          	and	x13,x13,x12
    1f70:	00e49623          	sh	x14,12(x9)
    1f74:	06d4a223          	sw	x13,100(x9)
    1f78:	00877693          	andi	x13,x14,8
    1f7c:	30068463          	beq	x13,x0,2284 <_vfprintf_r+0x3a0>
    1f80:	0104a683          	lw	x13,16(x9)
    1f84:	30068063          	beq	x13,x0,2284 <_vfprintf_r+0x3a0>
    1f88:	01a77713          	andi	x14,x14,26
    1f8c:	00a00693          	addi	x13,x0,10
    1f90:	30d70c63          	beq	x14,x13,22a8 <_vfprintf_r+0x3c4>
    1f94:	1b312e23          	sw	x19,444(x2)
    1f98:	1b512a23          	sw	x21,436(x2)
    1f9c:	1b712623          	sw	x23,428(x2)
    1fa0:	1ba12023          	sw	x26,416(x2)
    1fa4:	00012737          	lui	x14,0x12
    1fa8:	1d212023          	sw	x18,448(x2)
    1fac:	1b412c23          	sw	x20,440(x2)
    1fb0:	1b812423          	sw	x24,424(x2)
    1fb4:	1b912223          	sw	x25,420(x2)
    1fb8:	19b12e23          	sw	x27,412(x2)
    1fbc:	000b0d13          	addi	x26,x22,0
    1fc0:	15c70793          	addi	x15,x14,348 # 1215c <no_exception_handler_msg+0xb4>
    1fc4:	000d4703          	lbu	x14,0(x26)
    1fc8:	0ec10993          	addi	x19,x2,236
    1fcc:	00012ab7          	lui	x21,0x12
    1fd0:	0d312223          	sw	x19,196(x2)
    1fd4:	0c012623          	sw	x0,204(x2)
    1fd8:	0c012423          	sw	x0,200(x2)
    1fdc:	00012c23          	sw	x0,24(x2)
    1fe0:	02012823          	sw	x0,48(x2)
    1fe4:	02012e23          	sw	x0,60(x2)
    1fe8:	02012c23          	sw	x0,56(x2)
    1fec:	04012023          	sw	x0,64(x2)
    1ff0:	04012223          	sw	x0,68(x2)
    1ff4:	00012223          	sw	x0,4(x2)
    1ff8:	00f12823          	sw	x15,16(x2)
    1ffc:	02412b83          	lw	x23,36(x2)
    2000:	00098413          	addi	x8,x19,0
    2004:	360a8a93          	addi	x21,x21,864 # 12360 <zeroes.0>
    2008:	22070063          	beq	x14,x0,2228 <_vfprintf_r+0x344>
    200c:	000d0913          	addi	x18,x26,0
    2010:	02500693          	addi	x13,x0,37
    2014:	3ed70863          	beq	x14,x13,2404 <_vfprintf_r+0x520>
    2018:	00194703          	lbu	x14,1(x18)
    201c:	00190913          	addi	x18,x18,1
    2020:	fe071ae3          	bne	x14,x0,2014 <_vfprintf_r+0x130>
    2024:	41a90a33          	sub	x20,x18,x26
    2028:	21a90063          	beq	x18,x26,2228 <_vfprintf_r+0x344>
    202c:	0cc12683          	lw	x13,204(x2)
    2030:	0c812703          	lw	x14,200(x2)
    2034:	01a42023          	sw	x26,0(x8)
    2038:	014686b3          	add	x13,x13,x20
    203c:	00170713          	addi	x14,x14,1
    2040:	01442223          	sw	x20,4(x8)
    2044:	0cd12623          	sw	x13,204(x2)
    2048:	0ce12423          	sw	x14,200(x2)
    204c:	00700693          	addi	x13,x0,7
    2050:	00840413          	addi	x8,x8,8
    2054:	3ce6c063          	blt	x13,x14,2414 <_vfprintf_r+0x530>
    2058:	00412783          	lw	x15,4(x2)
    205c:	00094703          	lbu	x14,0(x18)
    2060:	014787b3          	add	x15,x15,x20
    2064:	00f12223          	sw	x15,4(x2)
    2068:	1c070063          	beq	x14,x0,2228 <_vfprintf_r+0x344>
    206c:	00194883          	lbu	x17,1(x18)
    2070:	0a0103a3          	sb	x0,167(x2)
    2074:	00190913          	addi	x18,x18,1
    2078:	fff00a13          	addi	x20,x0,-1
    207c:	00000c93          	addi	x25,x0,0
    2080:	00000d93          	addi	x27,x0,0
    2084:	05a00b13          	addi	x22,x0,90
    2088:	00190913          	addi	x18,x18,1
    208c:	fe088793          	addi	x15,x17,-32
    2090:	04fb6663          	bltu	x22,x15,20dc <_vfprintf_r+0x1f8>
    2094:	01012703          	lw	x14,16(x2)
    2098:	00279793          	slli	x15,x15,0x2
    209c:	00e787b3          	add	x15,x15,x14
    20a0:	0007a783          	lw	x15,0(x15)
    20a4:	00078067          	jalr	x0,0(x15)
    20a8:	00000c93          	addi	x25,x0,0
    20ac:	fd088793          	addi	x15,x17,-48
    20b0:	00900693          	addi	x13,x0,9
    20b4:	00094883          	lbu	x17,0(x18)
    20b8:	002c9713          	slli	x14,x25,0x2
    20bc:	01970cb3          	add	x25,x14,x25
    20c0:	001c9c93          	slli	x25,x25,0x1
    20c4:	01978cb3          	add	x25,x15,x25
    20c8:	fd088793          	addi	x15,x17,-48
    20cc:	00190913          	addi	x18,x18,1
    20d0:	fef6f2e3          	bgeu	x13,x15,20b4 <_vfprintf_r+0x1d0>
    20d4:	fe088793          	addi	x15,x17,-32
    20d8:	fafb7ee3          	bgeu	x22,x15,2094 <_vfprintf_r+0x1b0>
    20dc:	14088663          	beq	x17,x0,2228 <_vfprintf_r+0x344>
    20e0:	13110623          	sb	x17,300(x2)
    20e4:	0a0103a3          	sb	x0,167(x2)
    20e8:	00100c13          	addi	x24,x0,1
    20ec:	00100b13          	addi	x22,x0,1
    20f0:	12c10d13          	addi	x26,x2,300
    20f4:	00012423          	sw	x0,8(x2)
    20f8:	00000a13          	addi	x20,x0,0
    20fc:	02012023          	sw	x0,32(x2)
    2100:	00012e23          	sw	x0,28(x2)
    2104:	00012a23          	sw	x0,20(x2)
    2108:	002df293          	andi	x5,x27,2
    210c:	00028463          	beq	x5,x0,2114 <_vfprintf_r+0x230>
    2110:	002c0c13          	addi	x24,x24,2
    2114:	084dff93          	andi	x31,x27,132
    2118:	0cc12603          	lw	x12,204(x2)
    211c:	000f9663          	bne	x31,x0,2128 <_vfprintf_r+0x244>
    2120:	418c8733          	sub	x14,x25,x24
    2124:	46e04ce3          	blt	x0,x14,2d9c <_vfprintf_r+0xeb8>
    2128:	0a714703          	lbu	x14,167(x2)
    212c:	02070a63          	beq	x14,x0,2160 <_vfprintf_r+0x27c>
    2130:	0c812703          	lw	x14,200(x2)
    2134:	0a710593          	addi	x11,x2,167
    2138:	00b42023          	sw	x11,0(x8)
    213c:	00160613          	addi	x12,x12,1
    2140:	00100593          	addi	x11,x0,1
    2144:	00170713          	addi	x14,x14,1
    2148:	00b42223          	sw	x11,4(x8)
    214c:	0cc12623          	sw	x12,204(x2)
    2150:	0ce12423          	sw	x14,200(x2)
    2154:	00700593          	addi	x11,x0,7
    2158:	00840413          	addi	x8,x8,8
    215c:	3ee5c463          	blt	x11,x14,2544 <_vfprintf_r+0x660>
    2160:	02028a63          	beq	x5,x0,2194 <_vfprintf_r+0x2b0>
    2164:	0c812703          	lw	x14,200(x2)
    2168:	00200593          	addi	x11,x0,2
    216c:	00260613          	addi	x12,x12,2
    2170:	00170713          	addi	x14,x14,1
    2174:	0a810793          	addi	x15,x2,168
    2178:	00b42223          	sw	x11,4(x8)
    217c:	00f42023          	sw	x15,0(x8)
    2180:	0cc12623          	sw	x12,204(x2)
    2184:	0ce12423          	sw	x14,200(x2)
    2188:	00700593          	addi	x11,x0,7
    218c:	00840413          	addi	x8,x8,8
    2190:	50e5cce3          	blt	x11,x14,2ea8 <_vfprintf_r+0xfc4>
    2194:	08000713          	addi	x14,x0,128
    2198:	1eef8ee3          	beq	x31,x14,2b94 <_vfprintf_r+0xcb0>
    219c:	416a0a33          	sub	x20,x20,x22
    21a0:	2f4044e3          	blt	x0,x20,2c88 <_vfprintf_r+0xda4>
    21a4:	100df713          	andi	x14,x27,256
    21a8:	040718e3          	bne	x14,x0,29f8 <_vfprintf_r+0xb14>
    21ac:	0c812783          	lw	x15,200(x2)
    21b0:	01660633          	add	x12,x12,x22
    21b4:	01a42023          	sw	x26,0(x8)
    21b8:	00178793          	addi	x15,x15,1
    21bc:	01642223          	sw	x22,4(x8)
    21c0:	0cc12623          	sw	x12,204(x2)
    21c4:	0cf12423          	sw	x15,200(x2)
    21c8:	00700713          	addi	x14,x0,7
    21cc:	4cf74063          	blt	x14,x15,268c <_vfprintf_r+0x7a8>
    21d0:	00840413          	addi	x8,x8,8
    21d4:	004dfe13          	andi	x28,x27,4
    21d8:	000e0663          	beq	x28,x0,21e4 <_vfprintf_r+0x300>
    21dc:	418c8a33          	sub	x20,x25,x24
    21e0:	4f404ce3          	blt	x0,x20,2ed8 <_vfprintf_r+0xff4>
    21e4:	000c8313          	addi	x6,x25,0
    21e8:	018cd463          	bge	x25,x24,21f0 <_vfprintf_r+0x30c>
    21ec:	000c0313          	addi	x6,x24,0
    21f0:	00412783          	lw	x15,4(x2)
    21f4:	006787b3          	add	x15,x15,x6
    21f8:	00f12223          	sw	x15,4(x2)
    21fc:	360618e3          	bne	x12,x0,2d6c <_vfprintf_r+0xe88>
    2200:	00812783          	lw	x15,8(x2)
    2204:	0c012423          	sw	x0,200(x2)
    2208:	00078863          	beq	x15,x0,2218 <_vfprintf_r+0x334>
    220c:	00812583          	lw	x11,8(x2)
    2210:	000b8513          	addi	x10,x23,0
    2214:	a08ff0ef          	jal	x1,141c <_free_r>
    2218:	00098413          	addi	x8,x19,0
    221c:	00090d13          	addi	x26,x18,0
    2220:	000d4703          	lbu	x14,0(x26)
    2224:	de0714e3          	bne	x14,x0,200c <_vfprintf_r+0x128>
    2228:	0cc12783          	lw	x15,204(x2)
    222c:	00078463          	beq	x15,x0,2234 <_vfprintf_r+0x350>
    2230:	3890106f          	jal	x0,3db8 <_vfprintf_r+0x1ed4>
    2234:	00c4d783          	lhu	x15,12(x9)
    2238:	1c012903          	lw	x18,448(x2)
    223c:	1bc12983          	lw	x19,444(x2)
    2240:	0407f793          	andi	x15,x15,64
    2244:	1b812a03          	lw	x20,440(x2)
    2248:	1b412a83          	lw	x21,436(x2)
    224c:	1ac12b83          	lw	x23,428(x2)
    2250:	1a812c03          	lw	x24,424(x2)
    2254:	1a412c83          	lw	x25,420(x2)
    2258:	1a012d03          	lw	x26,416(x2)
    225c:	19c12d83          	lw	x27,412(x2)
    2260:	00078463          	beq	x15,x0,2268 <_vfprintf_r+0x384>
    2264:	1640206f          	jal	x0,43c8 <_vfprintf_r+0x24e4>
    2268:	1cc12083          	lw	x1,460(x2)
    226c:	1c812403          	lw	x8,456(x2)
    2270:	00412503          	lw	x10,4(x2)
    2274:	1c412483          	lw	x9,452(x2)
    2278:	1b012b03          	lw	x22,432(x2)
    227c:	1d010113          	addi	x2,x2,464
    2280:	00008067          	jalr	x0,0(x1)
    2284:	02412503          	lw	x10,36(x2)
    2288:	00048593          	addi	x11,x9,0
    228c:	6f4040ef          	jal	x1,6980 <__swsetup_r>
    2290:	00050463          	beq	x10,x0,2298 <_vfprintf_r+0x3b4>
    2294:	1340206f          	jal	x0,43c8 <_vfprintf_r+0x24e4>
    2298:	00c49703          	lh	x14,12(x9)
    229c:	00a00693          	addi	x13,x0,10
    22a0:	01a77713          	andi	x14,x14,26
    22a4:	ced718e3          	bne	x14,x13,1f94 <_vfprintf_r+0xb0>
    22a8:	00e49703          	lh	x14,14(x9)
    22ac:	ce0744e3          	blt	x14,x0,1f94 <_vfprintf_r+0xb0>
    22b0:	00c12683          	lw	x13,12(x2)
    22b4:	02412503          	lw	x10,36(x2)
    22b8:	000b0613          	addi	x12,x22,0
    22bc:	00048593          	addi	x11,x9,0
    22c0:	4c4020ef          	jal	x1,4784 <__sbprintf>
    22c4:	00a12223          	sw	x10,4(x2)
    22c8:	fa1ff06f          	jal	x0,2268 <_vfprintf_r+0x384>
    22cc:	000b8513          	addi	x10,x23,0
    22d0:	40d040ef          	jal	x1,6edc <_localeconv_r>
    22d4:	00452783          	lw	x15,4(x10)
    22d8:	00078513          	addi	x10,x15,0
    22dc:	04f12223          	sw	x15,68(x2)
    22e0:	dadfe0ef          	jal	x1,108c <strlen>
    22e4:	00050793          	addi	x15,x10,0
    22e8:	000b8513          	addi	x10,x23,0
    22ec:	00078c13          	addi	x24,x15,0
    22f0:	04f12023          	sw	x15,64(x2)
    22f4:	3e9040ef          	jal	x1,6edc <_localeconv_r>
    22f8:	00852703          	lw	x14,8(x10)
    22fc:	02e12c23          	sw	x14,56(x2)
    2300:	760c10e3          	bne	x24,x0,3260 <_vfprintf_r+0x137c>
    2304:	00094883          	lbu	x17,0(x18)
    2308:	d81ff06f          	jal	x0,2088 <_vfprintf_r+0x1a4>
    230c:	00094883          	lbu	x17,0(x18)
    2310:	020ded93          	ori	x27,x27,32
    2314:	d75ff06f          	jal	x0,2088 <_vfprintf_r+0x1a4>
    2318:	010ded93          	ori	x27,x27,16
    231c:	020df793          	andi	x15,x27,32
    2320:	3a078e63          	beq	x15,x0,26dc <_vfprintf_r+0x7f8>
    2324:	00c12783          	lw	x15,12(x2)
    2328:	00778c13          	addi	x24,x15,7
    232c:	ff8c7c13          	andi	x24,x24,-8
    2330:	004c2783          	lw	x15,4(x24)
    2334:	000c2b03          	lw	x22,0(x24)
    2338:	008c0713          	addi	x14,x24,8
    233c:	00e12623          	sw	x14,12(x2)
    2340:	00078813          	addi	x16,x15,0
    2344:	3c07c663          	blt	x15,x0,2710 <_vfprintf_r+0x82c>
    2348:	000d8613          	addi	x12,x27,0
    234c:	4e0a4e63          	blt	x20,x0,2848 <_vfprintf_r+0x964>
    2350:	010b67b3          	or	x15,x22,x16
    2354:	f7fdf613          	andi	x12,x27,-129
    2358:	4e079863          	bne	x15,x0,2848 <_vfprintf_r+0x964>
    235c:	4e0a1c63          	bne	x20,x0,2854 <_vfprintf_r+0x970>
    2360:	00000b13          	addi	x22,x0,0
    2364:	00060d93          	addi	x27,x12,0
    2368:	19010d13          	addi	x26,x2,400
    236c:	0a714703          	lbu	x14,167(x2)
    2370:	000a0c13          	addi	x24,x20,0
    2374:	016a5463          	bge	x20,x22,237c <_vfprintf_r+0x498>
    2378:	000b0c13          	addi	x24,x22,0
    237c:	00012423          	sw	x0,8(x2)
    2380:	02012023          	sw	x0,32(x2)
    2384:	00012e23          	sw	x0,28(x2)
    2388:	00012a23          	sw	x0,20(x2)
    238c:	d6070ee3          	beq	x14,x0,2108 <_vfprintf_r+0x224>
    2390:	001c0c13          	addi	x24,x24,1
    2394:	d75ff06f          	jal	x0,2108 <_vfprintf_r+0x224>
    2398:	010ded93          	ori	x27,x27,16
    239c:	020df793          	andi	x15,x27,32
    23a0:	30078663          	beq	x15,x0,26ac <_vfprintf_r+0x7c8>
    23a4:	00c12783          	lw	x15,12(x2)
    23a8:	00778c13          	addi	x24,x15,7
    23ac:	ff8c7c13          	andi	x24,x24,-8
    23b0:	000c2b03          	lw	x22,0(x24)
    23b4:	004c2803          	lw	x16,4(x24)
    23b8:	008c0793          	addi	x15,x24,8
    23bc:	00f12623          	sw	x15,12(x2)
    23c0:	bffdf613          	andi	x12,x27,-1025
    23c4:	00000793          	addi	x15,x0,0
    23c8:	00000693          	addi	x13,x0,0
    23cc:	0ad103a3          	sb	x13,167(x2)
    23d0:	360a4263          	blt	x20,x0,2734 <_vfprintf_r+0x850>
    23d4:	010b66b3          	or	x13,x22,x16
    23d8:	f7f67d93          	andi	x27,x12,-129
    23dc:	1a069ce3          	bne	x13,x0,2d94 <_vfprintf_r+0xeb0>
    23e0:	740a1c63          	bne	x20,x0,2b38 <_vfprintf_r+0xc54>
    23e4:	5e0796e3          	bne	x15,x0,31d0 <_vfprintf_r+0x12ec>
    23e8:	00167b13          	andi	x22,x12,1
    23ec:	19010d13          	addi	x26,x2,400
    23f0:	f60b0ee3          	beq	x22,x0,236c <_vfprintf_r+0x488>
    23f4:	03000793          	addi	x15,x0,48
    23f8:	18f107a3          	sb	x15,399(x2)
    23fc:	18f10d13          	addi	x26,x2,399
    2400:	f6dff06f          	jal	x0,236c <_vfprintf_r+0x488>
    2404:	41a90a33          	sub	x20,x18,x26
    2408:	c3a912e3          	bne	x18,x26,202c <_vfprintf_r+0x148>
    240c:	00094703          	lbu	x14,0(x18)
    2410:	c59ff06f          	jal	x0,2068 <_vfprintf_r+0x184>
    2414:	0c410613          	addi	x12,x2,196
    2418:	00048593          	addi	x11,x9,0
    241c:	000b8513          	addi	x10,x23,0
    2420:	554020ef          	jal	x1,4974 <__sprint_r>
    2424:	e00518e3          	bne	x10,x0,2234 <_vfprintf_r+0x350>
    2428:	00098413          	addi	x8,x19,0
    242c:	c2dff06f          	jal	x0,2058 <_vfprintf_r+0x174>
    2430:	008df713          	andi	x14,x27,8
    2434:	600714e3          	bne	x14,x0,323c <_vfprintf_r+0x1358>
    2438:	00c12783          	lw	x15,12(x2)
    243c:	09010513          	addi	x10,x2,144
    2440:	01112423          	sw	x17,8(x2)
    2444:	00778c13          	addi	x24,x15,7
    2448:	ff8c7c13          	andi	x24,x24,-8
    244c:	000c2583          	lw	x11,0(x24)
    2450:	004c2603          	lw	x12,4(x24)
    2454:	008c0793          	addi	x15,x24,8
    2458:	00f12623          	sw	x15,12(x2)
    245c:	4b40f0ef          	jal	x1,11910 <__extenddftf2>
    2460:	09012583          	lw	x11,144(x2)
    2464:	09412603          	lw	x12,148(x2)
    2468:	09812683          	lw	x13,152(x2)
    246c:	09c12703          	lw	x14,156(x2)
    2470:	00812883          	lw	x17,8(x2)
    2474:	0d010513          	addi	x10,x2,208
    2478:	01112423          	sw	x17,8(x2)
    247c:	0ce12e23          	sw	x14,220(x2)
    2480:	0cb12823          	sw	x11,208(x2)
    2484:	0cc12a23          	sw	x12,212(x2)
    2488:	0cd12c23          	sw	x13,216(x2)
    248c:	324050ef          	jal	x1,77b0 <_ldcheck>
    2490:	0aa12623          	sw	x10,172(x2)
    2494:	00200713          	addi	x14,x0,2
    2498:	00812883          	lw	x17,8(x2)
    249c:	00e51463          	bne	x10,x14,24a4 <_vfprintf_r+0x5c0>
    24a0:	4100106f          	jal	x0,38b0 <_vfprintf_r+0x19cc>
    24a4:	00100713          	addi	x14,x0,1
    24a8:	00e51463          	bne	x10,x14,24b0 <_vfprintf_r+0x5cc>
    24ac:	5640106f          	jal	x0,3a10 <_vfprintf_r+0x1b2c>
    24b0:	06100713          	addi	x14,x0,97
    24b4:	00e89463          	bne	x17,x14,24bc <_vfprintf_r+0x5d8>
    24b8:	7b10006f          	jal	x0,3468 <_vfprintf_r+0x1584>
    24bc:	04100713          	addi	x14,x0,65
    24c0:	05800793          	addi	x15,x0,88
    24c4:	00e89463          	bne	x17,x14,24cc <_vfprintf_r+0x5e8>
    24c8:	7a50006f          	jal	x0,346c <_vfprintf_r+0x1588>
    24cc:	fff00713          	addi	x14,x0,-1
    24d0:	00ea1463          	bne	x20,x14,24d8 <_vfprintf_r+0x5f4>
    24d4:	0ec0206f          	jal	x0,45c0 <_vfprintf_r+0x26dc>
    24d8:	fdf8f713          	andi	x14,x17,-33
    24dc:	04700693          	addi	x13,x0,71
    24e0:	00012423          	sw	x0,8(x2)
    24e4:	00d71663          	bne	x14,x13,24f0 <_vfprintf_r+0x60c>
    24e8:	000a1463          	bne	x20,x0,24f0 <_vfprintf_r+0x60c>
    24ec:	00100a13          	addi	x20,x0,1
    24f0:	0dc12c03          	lw	x24,220(x2)
    24f4:	100de793          	ori	x15,x27,256
    24f8:	04f12423          	sw	x15,72(x2)
    24fc:	02012a23          	sw	x0,52(x2)
    2500:	0d012f83          	lw	x31,208(x2)
    2504:	0d412f03          	lw	x30,212(x2)
    2508:	0d812e83          	lw	x29,216(x2)
    250c:	000c5a63          	bge	x24,x0,2520 <_vfprintf_r+0x63c>
    2510:	80000737          	lui	x14,0x80000
    2514:	02d00793          	addi	x15,x0,45
    2518:	01874c33          	xor	x24,x14,x24
    251c:	02f12a23          	sw	x15,52(x2)
    2520:	fbf88713          	addi	x14,x17,-65
    2524:	02500693          	addi	x13,x0,37
    2528:	78e6e6e3          	bltu	x13,x14,34b4 <_vfprintf_r+0x15d0>
    252c:	000126b7          	lui	x13,0x12
    2530:	00271713          	slli	x14,x14,0x2
    2534:	2c868693          	addi	x13,x13,712 # 122c8 <no_exception_handler_msg+0x220>
    2538:	00d70733          	add	x14,x14,x13
    253c:	00072703          	lw	x14,0(x14) # 80000000 <__heap_end+0x7fc00000>
    2540:	00070067          	jalr	x0,0(x14)
    2544:	0c410613          	addi	x12,x2,196
    2548:	00048593          	addi	x11,x9,0
    254c:	000b8513          	addi	x10,x23,0
    2550:	05112623          	sw	x17,76(x2)
    2554:	05f12423          	sw	x31,72(x2)
    2558:	02512a23          	sw	x5,52(x2)
    255c:	418020ef          	jal	x1,4974 <__sprint_r>
    2560:	020510e3          	bne	x10,x0,2d80 <_vfprintf_r+0xe9c>
    2564:	0cc12603          	lw	x12,204(x2)
    2568:	04c12883          	lw	x17,76(x2)
    256c:	04812f83          	lw	x31,72(x2)
    2570:	03412283          	lw	x5,52(x2)
    2574:	00098413          	addi	x8,x19,0
    2578:	be9ff06f          	jal	x0,2160 <_vfprintf_r+0x27c>
    257c:	0c812a03          	lw	x20,200(x2)
    2580:	01812783          	lw	x15,24(x2)
    2584:	00100713          	addi	x14,x0,1
    2588:	01a42023          	sw	x26,0(x8)
    258c:	00160613          	addi	x12,x12,1
    2590:	001a0a13          	addi	x20,x20,1
    2594:	00840b13          	addi	x22,x8,8
    2598:	34f752e3          	bge	x14,x15,30dc <_vfprintf_r+0x11f8>
    259c:	00100713          	addi	x14,x0,1
    25a0:	00e42223          	sw	x14,4(x8)
    25a4:	0cc12623          	sw	x12,204(x2)
    25a8:	0d412423          	sw	x20,200(x2)
    25ac:	00700713          	addi	x14,x0,7
    25b0:	01475463          	bge	x14,x20,25b8 <_vfprintf_r+0x6d4>
    25b4:	0fc0106f          	jal	x0,36b0 <_vfprintf_r+0x17cc>
    25b8:	02812783          	lw	x15,40(x2)
    25bc:	02c12703          	lw	x14,44(x2)
    25c0:	001a0a13          	addi	x20,x20,1
    25c4:	00f60633          	add	x12,x12,x15
    25c8:	00eb2023          	sw	x14,0(x22)
    25cc:	00fb2223          	sw	x15,4(x22)
    25d0:	0cc12623          	sw	x12,204(x2)
    25d4:	0d412423          	sw	x20,200(x2)
    25d8:	00700713          	addi	x14,x0,7
    25dc:	008b0b13          	addi	x22,x22,8
    25e0:	01475463          	bge	x14,x20,25e8 <_vfprintf_r+0x704>
    25e4:	0f00106f          	jal	x0,36d4 <_vfprintf_r+0x17f0>
    25e8:	0d012703          	lw	x14,208(x2)
    25ec:	01812783          	lw	x15,24(x2)
    25f0:	08010593          	addi	x11,x2,128
    25f4:	08e12823          	sw	x14,144(x2)
    25f8:	0d412703          	lw	x14,212(x2)
    25fc:	09010513          	addi	x10,x2,144
    2600:	00c12a23          	sw	x12,20(x2)
    2604:	08e12a23          	sw	x14,148(x2)
    2608:	0d812703          	lw	x14,216(x2)
    260c:	08012023          	sw	x0,128(x2)
    2610:	08012223          	sw	x0,132(x2)
    2614:	08e12c23          	sw	x14,152(x2)
    2618:	0dc12703          	lw	x14,220(x2)
    261c:	08012423          	sw	x0,136(x2)
    2620:	08012623          	sw	x0,140(x2)
    2624:	08e12e23          	sw	x14,156(x2)
    2628:	fff78413          	addi	x8,x15,-1
    262c:	44c0c0ef          	jal	x1,ea78 <__eqtf2>
    2630:	01412603          	lw	x12,20(x2)
    2634:	2e0504e3          	beq	x10,x0,311c <_vfprintf_r+0x1238>
    2638:	001d0793          	addi	x15,x26,1
    263c:	001a0a13          	addi	x20,x20,1
    2640:	00860633          	add	x12,x12,x8
    2644:	00fb2023          	sw	x15,0(x22)
    2648:	008b2223          	sw	x8,4(x22)
    264c:	0cc12623          	sw	x12,204(x2)
    2650:	0d412423          	sw	x20,200(x2)
    2654:	00700793          	addi	x15,x0,7
    2658:	008b0b13          	addi	x22,x22,8
    265c:	2947cee3          	blt	x15,x20,30f8 <_vfprintf_r+0x1214>
    2660:	03c12683          	lw	x13,60(x2)
    2664:	0b410713          	addi	x14,x2,180
    2668:	001a0793          	addi	x15,x20,1
    266c:	00c68633          	add	x12,x13,x12
    2670:	00eb2023          	sw	x14,0(x22)
    2674:	00db2223          	sw	x13,4(x22)
    2678:	0cc12623          	sw	x12,204(x2)
    267c:	0cf12423          	sw	x15,200(x2)
    2680:	00700713          	addi	x14,x0,7
    2684:	008b0413          	addi	x8,x22,8
    2688:	b4f756e3          	bge	x14,x15,21d4 <_vfprintf_r+0x2f0>
    268c:	0c410613          	addi	x12,x2,196
    2690:	00048593          	addi	x11,x9,0
    2694:	000b8513          	addi	x10,x23,0
    2698:	2dc020ef          	jal	x1,4974 <__sprint_r>
    269c:	6e051263          	bne	x10,x0,2d80 <_vfprintf_r+0xe9c>
    26a0:	0cc12603          	lw	x12,204(x2)
    26a4:	00098413          	addi	x8,x19,0
    26a8:	b2dff06f          	jal	x0,21d4 <_vfprintf_r+0x2f0>
    26ac:	00c12683          	lw	x13,12(x2)
    26b0:	010df793          	andi	x15,x27,16
    26b4:	0006a703          	lw	x14,0(x13)
    26b8:	00468693          	addi	x13,x13,4
    26bc:	00d12623          	sw	x13,12(x2)
    26c0:	360798e3          	bne	x15,x0,3230 <_vfprintf_r+0x134c>
    26c4:	040df793          	andi	x15,x27,64
    26c8:	360780e3          	beq	x15,x0,3228 <_vfprintf_r+0x1344>
    26cc:	01071b13          	slli	x22,x14,0x10
    26d0:	010b5b13          	srli	x22,x22,0x10
    26d4:	00000813          	addi	x16,x0,0
    26d8:	ce9ff06f          	jal	x0,23c0 <_vfprintf_r+0x4dc>
    26dc:	00c12683          	lw	x13,12(x2)
    26e0:	010df793          	andi	x15,x27,16
    26e4:	0006a703          	lw	x14,0(x13)
    26e8:	00468693          	addi	x13,x13,4
    26ec:	00d12623          	sw	x13,12(x2)
    26f0:	320794e3          	bne	x15,x0,3218 <_vfprintf_r+0x1334>
    26f4:	040df793          	andi	x15,x27,64
    26f8:	30078ce3          	beq	x15,x0,3210 <_vfprintf_r+0x132c>
    26fc:	01071b13          	slli	x22,x14,0x10
    2700:	410b5b13          	srai	x22,x22,0x10
    2704:	41fb5813          	srai	x16,x22,0x1f
    2708:	00080793          	addi	x15,x16,0
    270c:	c207dee3          	bge	x15,x0,2348 <_vfprintf_r+0x464>
    2710:	02d00693          	addi	x13,x0,45
    2714:	016037b3          	sltu	x15,x0,x22
    2718:	41000833          	sub	x16,x0,x16
    271c:	0ad103a3          	sb	x13,167(x2)
    2720:	40f80833          	sub	x16,x16,x15
    2724:	41600b33          	sub	x22,x0,x22
    2728:	000d8613          	addi	x12,x27,0
    272c:	00100793          	addi	x15,x0,1
    2730:	ca0a52e3          	bge	x20,x0,23d4 <_vfprintf_r+0x4f0>
    2734:	00100693          	addi	x13,x0,1
    2738:	10d78863          	beq	x15,x13,2848 <_vfprintf_r+0x964>
    273c:	00200693          	addi	x13,x0,2
    2740:	40d78863          	beq	x15,x13,2b50 <_vfprintf_r+0xc6c>
    2744:	19010d13          	addi	x26,x2,400
    2748:	01d81793          	slli	x15,x16,0x1d
    274c:	007b7693          	andi	x13,x22,7
    2750:	003b5b13          	srli	x22,x22,0x3
    2754:	03068693          	addi	x13,x13,48
    2758:	0167eb33          	or	x22,x15,x22
    275c:	00385813          	srli	x16,x16,0x3
    2760:	fedd0fa3          	sb	x13,-1(x26)
    2764:	010b67b3          	or	x15,x22,x16
    2768:	000d0513          	addi	x10,x26,0
    276c:	fffd0d13          	addi	x26,x26,-1
    2770:	fc079ce3          	bne	x15,x0,2748 <_vfprintf_r+0x864>
    2774:	00167713          	andi	x14,x12,1
    2778:	40070663          	beq	x14,x0,2b84 <_vfprintf_r+0xca0>
    277c:	03000713          	addi	x14,x0,48
    2780:	40e68263          	beq	x13,x14,2b84 <_vfprintf_r+0xca0>
    2784:	ffe50513          	addi	x10,x10,-2
    2788:	19010793          	addi	x15,x2,400
    278c:	feed0fa3          	sb	x14,-1(x26)
    2790:	40a78b33          	sub	x22,x15,x10
    2794:	00060d93          	addi	x27,x12,0
    2798:	00050d13          	addi	x26,x10,0
    279c:	bd1ff06f          	jal	x0,236c <_vfprintf_r+0x488>
    27a0:	00c12703          	lw	x14,12(x2)
    27a4:	0a0103a3          	sb	x0,167(x2)
    27a8:	00100c13          	addi	x24,x0,1
    27ac:	00072783          	lw	x15,0(x14)
    27b0:	00470713          	addi	x14,x14,4
    27b4:	00e12623          	sw	x14,12(x2)
    27b8:	12f10623          	sb	x15,300(x2)
    27bc:	00100b13          	addi	x22,x0,1
    27c0:	12c10d13          	addi	x26,x2,300
    27c4:	931ff06f          	jal	x0,20f4 <_vfprintf_r+0x210>
    27c8:	00c12783          	lw	x15,12(x2)
    27cc:	0a0103a3          	sb	x0,167(x2)
    27d0:	0007ad03          	lw	x26,0(x15)
    27d4:	00478813          	addi	x16,x15,4
    27d8:	3a0d02e3          	beq	x26,x0,337c <_vfprintf_r+0x1498>
    27dc:	000a5463          	bge	x20,x0,27e4 <_vfprintf_r+0x900>
    27e0:	1c80106f          	jal	x0,39a8 <_vfprintf_r+0x1ac4>
    27e4:	000a0613          	addi	x12,x20,0
    27e8:	00000593          	addi	x11,x0,0
    27ec:	000d0513          	addi	x10,x26,0
    27f0:	01012a23          	sw	x16,20(x2)
    27f4:	01112623          	sw	x17,12(x2)
    27f8:	464040ef          	jal	x1,6c5c <memchr>
    27fc:	00a12423          	sw	x10,8(x2)
    2800:	00c12883          	lw	x17,12(x2)
    2804:	01412803          	lw	x16,20(x2)
    2808:	00051463          	bne	x10,x0,2810 <_vfprintf_r+0x92c>
    280c:	3450106f          	jal	x0,4350 <_vfprintf_r+0x246c>
    2810:	00812783          	lw	x15,8(x2)
    2814:	0a714703          	lbu	x14,167(x2)
    2818:	01012623          	sw	x16,12(x2)
    281c:	41a78b33          	sub	x22,x15,x26
    2820:	fffb4693          	xori	x13,x22,-1
    2824:	41f6d693          	srai	x13,x13,0x1f
    2828:	00012423          	sw	x0,8(x2)
    282c:	02012023          	sw	x0,32(x2)
    2830:	00012e23          	sw	x0,28(x2)
    2834:	00012a23          	sw	x0,20(x2)
    2838:	00db7c33          	and	x24,x22,x13
    283c:	00000a13          	addi	x20,x0,0
    2840:	b40718e3          	bne	x14,x0,2390 <_vfprintf_r+0x4ac>
    2844:	8c5ff06f          	jal	x0,2108 <_vfprintf_r+0x224>
    2848:	6c0812e3          	bne	x16,x0,370c <_vfprintf_r+0x1828>
    284c:	00900793          	addi	x15,x0,9
    2850:	6b67eee3          	bltu	x15,x22,370c <_vfprintf_r+0x1828>
    2854:	030b0713          	addi	x14,x22,48
    2858:	18e107a3          	sb	x14,399(x2)
    285c:	00060d93          	addi	x27,x12,0
    2860:	00100b13          	addi	x22,x0,1
    2864:	18f10d13          	addi	x26,x2,399
    2868:	b05ff06f          	jal	x0,236c <_vfprintf_r+0x488>
    286c:	00c12783          	lw	x15,12(x2)
    2870:	0007ac83          	lw	x25,0(x15)
    2874:	00478793          	addi	x15,x15,4
    2878:	160cdae3          	bge	x25,x0,31ec <_vfprintf_r+0x1308>
    287c:	41900cb3          	sub	x25,x0,x25
    2880:	00f12623          	sw	x15,12(x2)
    2884:	00094883          	lbu	x17,0(x18)
    2888:	004ded93          	ori	x27,x27,4
    288c:	ffcff06f          	jal	x0,2088 <_vfprintf_r+0x1a4>
    2890:	010de613          	ori	x12,x27,16
    2894:	02067793          	andi	x15,x12,32
    2898:	100782e3          	beq	x15,x0,319c <_vfprintf_r+0x12b8>
    289c:	00c12783          	lw	x15,12(x2)
    28a0:	00778c13          	addi	x24,x15,7
    28a4:	ff8c7c13          	andi	x24,x24,-8
    28a8:	008c0793          	addi	x15,x24,8
    28ac:	00f12623          	sw	x15,12(x2)
    28b0:	000c2b03          	lw	x22,0(x24)
    28b4:	004c2803          	lw	x16,4(x24)
    28b8:	00100793          	addi	x15,x0,1
    28bc:	b0dff06f          	jal	x0,23c8 <_vfprintf_r+0x4e4>
    28c0:	02b00793          	addi	x15,x0,43
    28c4:	00094883          	lbu	x17,0(x18)
    28c8:	0af103a3          	sb	x15,167(x2)
    28cc:	fbcff06f          	jal	x0,2088 <_vfprintf_r+0x1a4>
    28d0:	00c12703          	lw	x14,12(x2)
    28d4:	000087b7          	lui	x15,0x8
    28d8:	83078793          	addi	x15,x15,-2000 # 7830 <_ldcheck+0x80>
    28dc:	0af11423          	sh	x15,168(x2)
    28e0:	00470793          	addi	x15,x14,4
    28e4:	00f12623          	sw	x15,12(x2)
    28e8:	000127b7          	lui	x15,0x12
    28ec:	ee478793          	addi	x15,x15,-284 # 11ee4 <__clzsi2+0x2f4>
    28f0:	02f12823          	sw	x15,48(x2)
    28f4:	00072b03          	lw	x22,0(x14)
    28f8:	00000813          	addi	x16,x0,0
    28fc:	002de613          	ori	x12,x27,2
    2900:	00200793          	addi	x15,x0,2
    2904:	07800893          	addi	x17,x0,120
    2908:	ac1ff06f          	jal	x0,23c8 <_vfprintf_r+0x4e4>
    290c:	020df793          	andi	x15,x27,32
    2910:	16078ae3          	beq	x15,x0,3284 <_vfprintf_r+0x13a0>
    2914:	00c12783          	lw	x15,12(x2)
    2918:	00412683          	lw	x13,4(x2)
    291c:	0007a783          	lw	x15,0(x15)
    2920:	41f6d713          	srai	x14,x13,0x1f
    2924:	00d7a023          	sw	x13,0(x15)
    2928:	00e7a223          	sw	x14,4(x15)
    292c:	00c12783          	lw	x15,12(x2)
    2930:	00090d13          	addi	x26,x18,0
    2934:	00478793          	addi	x15,x15,4
    2938:	00f12623          	sw	x15,12(x2)
    293c:	8e5ff06f          	jal	x0,2220 <_vfprintf_r+0x33c>
    2940:	00094883          	lbu	x17,0(x18)
    2944:	06c00793          	addi	x15,x0,108
    2948:	22f882e3          	beq	x17,x15,336c <_vfprintf_r+0x1488>
    294c:	010ded93          	ori	x27,x27,16
    2950:	f38ff06f          	jal	x0,2088 <_vfprintf_r+0x1a4>
    2954:	00094883          	lbu	x17,0(x18)
    2958:	06800793          	addi	x15,x0,104
    295c:	20f880e3          	beq	x17,x15,335c <_vfprintf_r+0x1478>
    2960:	040ded93          	ori	x27,x27,64
    2964:	f24ff06f          	jal	x0,2088 <_vfprintf_r+0x1a4>
    2968:	00094883          	lbu	x17,0(x18)
    296c:	008ded93          	ori	x27,x27,8
    2970:	f18ff06f          	jal	x0,2088 <_vfprintf_r+0x1a4>
    2974:	00094883          	lbu	x17,0(x18)
    2978:	001ded93          	ori	x27,x27,1
    297c:	f0cff06f          	jal	x0,2088 <_vfprintf_r+0x1a4>
    2980:	0a714783          	lbu	x15,167(x2)
    2984:	00094883          	lbu	x17,0(x18)
    2988:	f0079063          	bne	x15,x0,2088 <_vfprintf_r+0x1a4>
    298c:	02000793          	addi	x15,x0,32
    2990:	0af103a3          	sb	x15,167(x2)
    2994:	ef4ff06f          	jal	x0,2088 <_vfprintf_r+0x1a4>
    2998:	00094883          	lbu	x17,0(x18)
    299c:	080ded93          	ori	x27,x27,128
    29a0:	ee8ff06f          	jal	x0,2088 <_vfprintf_r+0x1a4>
    29a4:	00094883          	lbu	x17,0(x18)
    29a8:	02a00793          	addi	x15,x0,42
    29ac:	00190693          	addi	x13,x18,1
    29b0:	00f89463          	bne	x17,x15,29b8 <_vfprintf_r+0xad4>
    29b4:	56d0106f          	jal	x0,4720 <_vfprintf_r+0x283c>
    29b8:	fd088793          	addi	x15,x17,-48
    29bc:	00900713          	addi	x14,x0,9
    29c0:	00000a13          	addi	x20,x0,0
    29c4:	00900613          	addi	x12,x0,9
    29c8:	02f76463          	bltu	x14,x15,29f0 <_vfprintf_r+0xb0c>
    29cc:	0006c883          	lbu	x17,0(x13)
    29d0:	002a1713          	slli	x14,x20,0x2
    29d4:	01470a33          	add	x20,x14,x20
    29d8:	001a1a13          	slli	x20,x20,0x1
    29dc:	00fa0a33          	add	x20,x20,x15
    29e0:	fd088793          	addi	x15,x17,-48
    29e4:	00168693          	addi	x13,x13,1
    29e8:	fef672e3          	bgeu	x12,x15,29cc <_vfprintf_r+0xae8>
    29ec:	0c0a48e3          	blt	x20,x0,32bc <_vfprintf_r+0x13d8>
    29f0:	00068913          	addi	x18,x13,0
    29f4:	e98ff06f          	jal	x0,208c <_vfprintf_r+0x1a8>
    29f8:	06500713          	addi	x14,x0,101
    29fc:	b91750e3          	bge	x14,x17,257c <_vfprintf_r+0x698>
    2a00:	0d012703          	lw	x14,208(x2)
    2a04:	08010593          	addi	x11,x2,128
    2a08:	09010513          	addi	x10,x2,144
    2a0c:	08e12823          	sw	x14,144(x2)
    2a10:	0d412703          	lw	x14,212(x2)
    2a14:	02c12a23          	sw	x12,52(x2)
    2a18:	08012023          	sw	x0,128(x2)
    2a1c:	08e12a23          	sw	x14,148(x2)
    2a20:	0d812703          	lw	x14,216(x2)
    2a24:	08012223          	sw	x0,132(x2)
    2a28:	08012423          	sw	x0,136(x2)
    2a2c:	08e12c23          	sw	x14,152(x2)
    2a30:	0dc12703          	lw	x14,220(x2)
    2a34:	08012623          	sw	x0,140(x2)
    2a38:	08e12e23          	sw	x14,156(x2)
    2a3c:	03c0c0ef          	jal	x1,ea78 <__eqtf2>
    2a40:	03412603          	lw	x12,52(x2)
    2a44:	54051463          	bne	x10,x0,2f8c <_vfprintf_r+0x10a8>
    2a48:	0c812783          	lw	x15,200(x2)
    2a4c:	00012737          	lui	x14,0x12
    2a50:	f1470713          	addi	x14,x14,-236 # 11f14 <__clzsi2+0x324>
    2a54:	00e42023          	sw	x14,0(x8)
    2a58:	00160613          	addi	x12,x12,1
    2a5c:	00100713          	addi	x14,x0,1
    2a60:	00178793          	addi	x15,x15,1
    2a64:	00e42223          	sw	x14,4(x8)
    2a68:	0cc12623          	sw	x12,204(x2)
    2a6c:	0cf12423          	sw	x15,200(x2)
    2a70:	00700713          	addi	x14,x0,7
    2a74:	00840413          	addi	x8,x8,8
    2a78:	5ef744e3          	blt	x14,x15,3860 <_vfprintf_r+0x197c>
    2a7c:	0ac12783          	lw	x15,172(x2)
    2a80:	01812703          	lw	x14,24(x2)
    2a84:	74e7dc63          	bge	x15,x14,31dc <_vfprintf_r+0x12f8>
    2a88:	02c12783          	lw	x15,44(x2)
    2a8c:	02812703          	lw	x14,40(x2)
    2a90:	00840413          	addi	x8,x8,8
    2a94:	fef42c23          	sw	x15,-8(x8)
    2a98:	0c812783          	lw	x15,200(x2)
    2a9c:	00e60633          	add	x12,x12,x14
    2aa0:	fee42e23          	sw	x14,-4(x8)
    2aa4:	00178793          	addi	x15,x15,1
    2aa8:	0cc12623          	sw	x12,204(x2)
    2aac:	0cf12423          	sw	x15,200(x2)
    2ab0:	00700713          	addi	x14,x0,7
    2ab4:	08f744e3          	blt	x14,x15,333c <_vfprintf_r+0x1458>
    2ab8:	01812783          	lw	x15,24(x2)
    2abc:	fff78a13          	addi	x20,x15,-1
    2ac0:	f1405a63          	bge	x0,x20,21d4 <_vfprintf_r+0x2f0>
    2ac4:	00012837          	lui	x16,0x12
    2ac8:	01000713          	addi	x14,x0,16
    2acc:	0c812783          	lw	x15,200(x2)
    2ad0:	36080813          	addi	x16,x16,864 # 12360 <zeroes.0>
    2ad4:	5b475ae3          	bge	x14,x20,3888 <_vfprintf_r+0x19a4>
    2ad8:	01212a23          	sw	x18,20(x2)
    2adc:	01000b13          	addi	x22,x0,16
    2ae0:	00700d13          	addi	x26,x0,7
    2ae4:	00080913          	addi	x18,x16,0
    2ae8:	00c0006f          	jal	x0,2af4 <_vfprintf_r+0xc10>
    2aec:	ff0a0a13          	addi	x20,x20,-16
    2af0:	594b58e3          	bge	x22,x20,3880 <_vfprintf_r+0x199c>
    2af4:	01060613          	addi	x12,x12,16
    2af8:	00178793          	addi	x15,x15,1
    2afc:	01242023          	sw	x18,0(x8)
    2b00:	01642223          	sw	x22,4(x8)
    2b04:	0cc12623          	sw	x12,204(x2)
    2b08:	0cf12423          	sw	x15,200(x2)
    2b0c:	00840413          	addi	x8,x8,8
    2b10:	fcfd5ee3          	bge	x26,x15,2aec <_vfprintf_r+0xc08>
    2b14:	0c410613          	addi	x12,x2,196
    2b18:	00048593          	addi	x11,x9,0
    2b1c:	000b8513          	addi	x10,x23,0
    2b20:	655010ef          	jal	x1,4974 <__sprint_r>
    2b24:	24051e63          	bne	x10,x0,2d80 <_vfprintf_r+0xe9c>
    2b28:	0cc12603          	lw	x12,204(x2)
    2b2c:	0c812783          	lw	x15,200(x2)
    2b30:	00098413          	addi	x8,x19,0
    2b34:	fb9ff06f          	jal	x0,2aec <_vfprintf_r+0xc08>
    2b38:	00100693          	addi	x13,x0,1
    2b3c:	00d79463          	bne	x15,x13,2b44 <_vfprintf_r+0xc60>
    2b40:	1f90106f          	jal	x0,4538 <_vfprintf_r+0x2654>
    2b44:	00200693          	addi	x13,x0,2
    2b48:	000d8613          	addi	x12,x27,0
    2b4c:	bed79ce3          	bne	x15,x13,2744 <_vfprintf_r+0x860>
    2b50:	03012683          	lw	x13,48(x2)
    2b54:	19010d13          	addi	x26,x2,400
    2b58:	00fb7793          	andi	x15,x22,15
    2b5c:	00f687b3          	add	x15,x13,x15
    2b60:	0007c703          	lbu	x14,0(x15)
    2b64:	004b5b13          	srli	x22,x22,0x4
    2b68:	01c81793          	slli	x15,x16,0x1c
    2b6c:	0167eb33          	or	x22,x15,x22
    2b70:	00485813          	srli	x16,x16,0x4
    2b74:	feed0fa3          	sb	x14,-1(x26)
    2b78:	010b67b3          	or	x15,x22,x16
    2b7c:	fffd0d13          	addi	x26,x26,-1
    2b80:	fc079ce3          	bne	x15,x0,2b58 <_vfprintf_r+0xc74>
    2b84:	19010793          	addi	x15,x2,400
    2b88:	41a78b33          	sub	x22,x15,x26
    2b8c:	00060d93          	addi	x27,x12,0
    2b90:	fdcff06f          	jal	x0,236c <_vfprintf_r+0x488>
    2b94:	418c8733          	sub	x14,x25,x24
    2b98:	e0e05263          	bge	x0,x14,219c <_vfprintf_r+0x2b8>
    2b9c:	00012837          	lui	x16,0x12
    2ba0:	01000513          	addi	x10,x0,16
    2ba4:	0c812583          	lw	x11,200(x2)
    2ba8:	36080813          	addi	x16,x16,864 # 12360 <zeroes.0>
    2bac:	08e55863          	bge	x10,x14,2c3c <_vfprintf_r+0xd58>
    2bb0:	03212a23          	sw	x18,52(x2)
    2bb4:	00040793          	addi	x15,x8,0
    2bb8:	01000e93          	addi	x29,x0,16
    2bbc:	00700f93          	addi	x31,x0,7
    2bc0:	05112423          	sw	x17,72(x2)
    2bc4:	00070413          	addi	x8,x14,0
    2bc8:	00080913          	addi	x18,x16,0
    2bcc:	00c0006f          	jal	x0,2bd8 <_vfprintf_r+0xcf4>
    2bd0:	ff040413          	addi	x8,x8,-16
    2bd4:	048eda63          	bge	x29,x8,2c28 <_vfprintf_r+0xd44>
    2bd8:	01060613          	addi	x12,x12,16
    2bdc:	00158593          	addi	x11,x11,1 # 2001 <_vfprintf_r+0x11d>
    2be0:	0127a023          	sw	x18,0(x15)
    2be4:	01d7a223          	sw	x29,4(x15)
    2be8:	0cc12623          	sw	x12,204(x2)
    2bec:	0cb12423          	sw	x11,200(x2)
    2bf0:	00878793          	addi	x15,x15,8
    2bf4:	fcbfdee3          	bge	x31,x11,2bd0 <_vfprintf_r+0xcec>
    2bf8:	0c410613          	addi	x12,x2,196
    2bfc:	00048593          	addi	x11,x9,0
    2c00:	000b8513          	addi	x10,x23,0
    2c04:	571010ef          	jal	x1,4974 <__sprint_r>
    2c08:	16051c63          	bne	x10,x0,2d80 <_vfprintf_r+0xe9c>
    2c0c:	01000e93          	addi	x29,x0,16
    2c10:	ff040413          	addi	x8,x8,-16
    2c14:	0cc12603          	lw	x12,204(x2)
    2c18:	0c812583          	lw	x11,200(x2)
    2c1c:	00098793          	addi	x15,x19,0
    2c20:	00700f93          	addi	x31,x0,7
    2c24:	fa8ecae3          	blt	x29,x8,2bd8 <_vfprintf_r+0xcf4>
    2c28:	00090813          	addi	x16,x18,0
    2c2c:	04812883          	lw	x17,72(x2)
    2c30:	03412903          	lw	x18,52(x2)
    2c34:	00040713          	addi	x14,x8,0
    2c38:	00078413          	addi	x8,x15,0
    2c3c:	00e60633          	add	x12,x12,x14
    2c40:	00158593          	addi	x11,x11,1
    2c44:	00e42223          	sw	x14,4(x8)
    2c48:	01042023          	sw	x16,0(x8)
    2c4c:	0cc12623          	sw	x12,204(x2)
    2c50:	0cb12423          	sw	x11,200(x2)
    2c54:	00700713          	addi	x14,x0,7
    2c58:	00840413          	addi	x8,x8,8
    2c5c:	d4b75063          	bge	x14,x11,219c <_vfprintf_r+0x2b8>
    2c60:	0c410613          	addi	x12,x2,196
    2c64:	00048593          	addi	x11,x9,0
    2c68:	000b8513          	addi	x10,x23,0
    2c6c:	03112a23          	sw	x17,52(x2)
    2c70:	505010ef          	jal	x1,4974 <__sprint_r>
    2c74:	10051663          	bne	x10,x0,2d80 <_vfprintf_r+0xe9c>
    2c78:	0cc12603          	lw	x12,204(x2)
    2c7c:	03412883          	lw	x17,52(x2)
    2c80:	00098413          	addi	x8,x19,0
    2c84:	d18ff06f          	jal	x0,219c <_vfprintf_r+0x2b8>
    2c88:	00012837          	lui	x16,0x12
    2c8c:	01000713          	addi	x14,x0,16
    2c90:	0c812583          	lw	x11,200(x2)
    2c94:	36080813          	addi	x16,x16,864 # 12360 <zeroes.0>
    2c98:	09475463          	bge	x14,x20,2d20 <_vfprintf_r+0xe3c>
    2c9c:	00040793          	addi	x15,x8,0
    2ca0:	01000713          	addi	x14,x0,16
    2ca4:	000a0413          	addi	x8,x20,0
    2ca8:	00700e93          	addi	x29,x0,7
    2cac:	03112a23          	sw	x17,52(x2)
    2cb0:	000a8a13          	addi	x20,x21,0
    2cb4:	00c0006f          	jal	x0,2cc0 <_vfprintf_r+0xddc>
    2cb8:	ff040413          	addi	x8,x8,-16
    2cbc:	04875a63          	bge	x14,x8,2d10 <_vfprintf_r+0xe2c>
    2cc0:	01060613          	addi	x12,x12,16
    2cc4:	00158593          	addi	x11,x11,1
    2cc8:	0157a023          	sw	x21,0(x15)
    2ccc:	00e7a223          	sw	x14,4(x15)
    2cd0:	0cc12623          	sw	x12,204(x2)
    2cd4:	0cb12423          	sw	x11,200(x2)
    2cd8:	00878793          	addi	x15,x15,8
    2cdc:	fcbedee3          	bge	x29,x11,2cb8 <_vfprintf_r+0xdd4>
    2ce0:	0c410613          	addi	x12,x2,196
    2ce4:	00048593          	addi	x11,x9,0
    2ce8:	000b8513          	addi	x10,x23,0
    2cec:	489010ef          	jal	x1,4974 <__sprint_r>
    2cf0:	08051863          	bne	x10,x0,2d80 <_vfprintf_r+0xe9c>
    2cf4:	01000713          	addi	x14,x0,16
    2cf8:	ff040413          	addi	x8,x8,-16
    2cfc:	0cc12603          	lw	x12,204(x2)
    2d00:	0c812583          	lw	x11,200(x2)
    2d04:	00098793          	addi	x15,x19,0
    2d08:	00700e93          	addi	x29,x0,7
    2d0c:	fa874ae3          	blt	x14,x8,2cc0 <_vfprintf_r+0xddc>
    2d10:	03412883          	lw	x17,52(x2)
    2d14:	000a0813          	addi	x16,x20,0
    2d18:	00040a13          	addi	x20,x8,0
    2d1c:	00078413          	addi	x8,x15,0
    2d20:	01460633          	add	x12,x12,x20
    2d24:	00158593          	addi	x11,x11,1
    2d28:	01042023          	sw	x16,0(x8)
    2d2c:	01442223          	sw	x20,4(x8)
    2d30:	0cc12623          	sw	x12,204(x2)
    2d34:	0cb12423          	sw	x11,200(x2)
    2d38:	00700713          	addi	x14,x0,7
    2d3c:	00840413          	addi	x8,x8,8
    2d40:	c6b75263          	bge	x14,x11,21a4 <_vfprintf_r+0x2c0>
    2d44:	0c410613          	addi	x12,x2,196
    2d48:	00048593          	addi	x11,x9,0
    2d4c:	000b8513          	addi	x10,x23,0
    2d50:	03112a23          	sw	x17,52(x2)
    2d54:	421010ef          	jal	x1,4974 <__sprint_r>
    2d58:	02051463          	bne	x10,x0,2d80 <_vfprintf_r+0xe9c>
    2d5c:	0cc12603          	lw	x12,204(x2)
    2d60:	03412883          	lw	x17,52(x2)
    2d64:	00098413          	addi	x8,x19,0
    2d68:	c3cff06f          	jal	x0,21a4 <_vfprintf_r+0x2c0>
    2d6c:	0c410613          	addi	x12,x2,196
    2d70:	00048593          	addi	x11,x9,0
    2d74:	000b8513          	addi	x10,x23,0
    2d78:	3fd010ef          	jal	x1,4974 <__sprint_r>
    2d7c:	c8050263          	beq	x10,x0,2200 <_vfprintf_r+0x31c>
    2d80:	00812583          	lw	x11,8(x2)
    2d84:	ca058863          	beq	x11,x0,2234 <_vfprintf_r+0x350>
    2d88:	02412503          	lw	x10,36(x2)
    2d8c:	e90fe0ef          	jal	x1,141c <_free_r>
    2d90:	ca4ff06f          	jal	x0,2234 <_vfprintf_r+0x350>
    2d94:	000d8613          	addi	x12,x27,0
    2d98:	99dff06f          	jal	x0,2734 <_vfprintf_r+0x850>
    2d9c:	00012837          	lui	x16,0x12
    2da0:	01000513          	addi	x10,x0,16
    2da4:	0c812583          	lw	x11,200(x2)
    2da8:	37080813          	addi	x16,x16,880 # 12370 <blanks.1>
    2dac:	0ae55063          	bge	x10,x14,2e4c <_vfprintf_r+0xf68>
    2db0:	05212623          	sw	x18,76(x2)
    2db4:	00040793          	addi	x15,x8,0
    2db8:	01000e93          	addi	x29,x0,16
    2dbc:	00700393          	addi	x7,x0,7
    2dc0:	02512a23          	sw	x5,52(x2)
    2dc4:	05f12423          	sw	x31,72(x2)
    2dc8:	05112823          	sw	x17,80(x2)
    2dcc:	00070413          	addi	x8,x14,0
    2dd0:	00080913          	addi	x18,x16,0
    2dd4:	00c0006f          	jal	x0,2de0 <_vfprintf_r+0xefc>
    2dd8:	ff040413          	addi	x8,x8,-16
    2ddc:	048eda63          	bge	x29,x8,2e30 <_vfprintf_r+0xf4c>
    2de0:	01060613          	addi	x12,x12,16
    2de4:	00158593          	addi	x11,x11,1
    2de8:	0127a023          	sw	x18,0(x15)
    2dec:	01d7a223          	sw	x29,4(x15)
    2df0:	0cc12623          	sw	x12,204(x2)
    2df4:	0cb12423          	sw	x11,200(x2)
    2df8:	00878793          	addi	x15,x15,8
    2dfc:	fcb3dee3          	bge	x7,x11,2dd8 <_vfprintf_r+0xef4>
    2e00:	0c410613          	addi	x12,x2,196
    2e04:	00048593          	addi	x11,x9,0
    2e08:	000b8513          	addi	x10,x23,0
    2e0c:	369010ef          	jal	x1,4974 <__sprint_r>
    2e10:	f60518e3          	bne	x10,x0,2d80 <_vfprintf_r+0xe9c>
    2e14:	01000e93          	addi	x29,x0,16
    2e18:	ff040413          	addi	x8,x8,-16
    2e1c:	0cc12603          	lw	x12,204(x2)
    2e20:	0c812583          	lw	x11,200(x2)
    2e24:	00098793          	addi	x15,x19,0
    2e28:	00700393          	addi	x7,x0,7
    2e2c:	fa8ecae3          	blt	x29,x8,2de0 <_vfprintf_r+0xefc>
    2e30:	00090813          	addi	x16,x18,0
    2e34:	03412283          	lw	x5,52(x2)
    2e38:	04812f83          	lw	x31,72(x2)
    2e3c:	05012883          	lw	x17,80(x2)
    2e40:	04c12903          	lw	x18,76(x2)
    2e44:	00040713          	addi	x14,x8,0
    2e48:	00078413          	addi	x8,x15,0
    2e4c:	00e60633          	add	x12,x12,x14
    2e50:	00158593          	addi	x11,x11,1
    2e54:	00e42223          	sw	x14,4(x8)
    2e58:	01042023          	sw	x16,0(x8)
    2e5c:	0cc12623          	sw	x12,204(x2)
    2e60:	0cb12423          	sw	x11,200(x2)
    2e64:	00700713          	addi	x14,x0,7
    2e68:	00840413          	addi	x8,x8,8
    2e6c:	aab75e63          	bge	x14,x11,2128 <_vfprintf_r+0x244>
    2e70:	0c410613          	addi	x12,x2,196
    2e74:	00048593          	addi	x11,x9,0
    2e78:	000b8513          	addi	x10,x23,0
    2e7c:	05112623          	sw	x17,76(x2)
    2e80:	05f12423          	sw	x31,72(x2)
    2e84:	02512a23          	sw	x5,52(x2)
    2e88:	2ed010ef          	jal	x1,4974 <__sprint_r>
    2e8c:	ee051ae3          	bne	x10,x0,2d80 <_vfprintf_r+0xe9c>
    2e90:	0cc12603          	lw	x12,204(x2)
    2e94:	04c12883          	lw	x17,76(x2)
    2e98:	04812f83          	lw	x31,72(x2)
    2e9c:	03412283          	lw	x5,52(x2)
    2ea0:	00098413          	addi	x8,x19,0
    2ea4:	a84ff06f          	jal	x0,2128 <_vfprintf_r+0x244>
    2ea8:	0c410613          	addi	x12,x2,196
    2eac:	00048593          	addi	x11,x9,0
    2eb0:	000b8513          	addi	x10,x23,0
    2eb4:	05112423          	sw	x17,72(x2)
    2eb8:	03f12a23          	sw	x31,52(x2)
    2ebc:	2b9010ef          	jal	x1,4974 <__sprint_r>
    2ec0:	ec0510e3          	bne	x10,x0,2d80 <_vfprintf_r+0xe9c>
    2ec4:	0cc12603          	lw	x12,204(x2)
    2ec8:	04812883          	lw	x17,72(x2)
    2ecc:	03412f83          	lw	x31,52(x2)
    2ed0:	00098413          	addi	x8,x19,0
    2ed4:	ac0ff06f          	jal	x0,2194 <_vfprintf_r+0x2b0>
    2ed8:	00012837          	lui	x16,0x12
    2edc:	37080813          	addi	x16,x16,880 # 12370 <blanks.1>
    2ee0:	01000713          	addi	x14,x0,16
    2ee4:	0c812783          	lw	x15,200(x2)
    2ee8:	01000b13          	addi	x22,x0,16
    2eec:	00700d13          	addi	x26,x0,7
    2ef0:	00080d93          	addi	x27,x16,0
    2ef4:	01474863          	blt	x14,x20,2f04 <_vfprintf_r+0x1020>
    2ef8:	0580006f          	jal	x0,2f50 <_vfprintf_r+0x106c>
    2efc:	ff0a0a13          	addi	x20,x20,-16
    2f00:	054b5663          	bge	x22,x20,2f4c <_vfprintf_r+0x1068>
    2f04:	01060613          	addi	x12,x12,16
    2f08:	00178793          	addi	x15,x15,1
    2f0c:	01b42023          	sw	x27,0(x8)
    2f10:	01642223          	sw	x22,4(x8)
    2f14:	0cc12623          	sw	x12,204(x2)
    2f18:	0cf12423          	sw	x15,200(x2)
    2f1c:	00840413          	addi	x8,x8,8
    2f20:	fcfd5ee3          	bge	x26,x15,2efc <_vfprintf_r+0x1018>
    2f24:	0c410613          	addi	x12,x2,196
    2f28:	00048593          	addi	x11,x9,0
    2f2c:	000b8513          	addi	x10,x23,0
    2f30:	245010ef          	jal	x1,4974 <__sprint_r>
    2f34:	e40516e3          	bne	x10,x0,2d80 <_vfprintf_r+0xe9c>
    2f38:	ff0a0a13          	addi	x20,x20,-16
    2f3c:	0cc12603          	lw	x12,204(x2)
    2f40:	0c812783          	lw	x15,200(x2)
    2f44:	00098413          	addi	x8,x19,0
    2f48:	fb4b4ee3          	blt	x22,x20,2f04 <_vfprintf_r+0x1020>
    2f4c:	000d8813          	addi	x16,x27,0
    2f50:	01460633          	add	x12,x12,x20
    2f54:	00178793          	addi	x15,x15,1
    2f58:	01042023          	sw	x16,0(x8)
    2f5c:	01442223          	sw	x20,4(x8)
    2f60:	0cc12623          	sw	x12,204(x2)
    2f64:	0cf12423          	sw	x15,200(x2)
    2f68:	00700713          	addi	x14,x0,7
    2f6c:	a6f75c63          	bge	x14,x15,21e4 <_vfprintf_r+0x300>
    2f70:	0c410613          	addi	x12,x2,196
    2f74:	00048593          	addi	x11,x9,0
    2f78:	000b8513          	addi	x10,x23,0
    2f7c:	1f9010ef          	jal	x1,4974 <__sprint_r>
    2f80:	e00510e3          	bne	x10,x0,2d80 <_vfprintf_r+0xe9c>
    2f84:	0cc12603          	lw	x12,204(x2)
    2f88:	a5cff06f          	jal	x0,21e4 <_vfprintf_r+0x300>
    2f8c:	0ac12503          	lw	x10,172(x2)
    2f90:	04a052e3          	bge	x0,x10,37d4 <_vfprintf_r+0x18f0>
    2f94:	01412783          	lw	x15,20(x2)
    2f98:	01812703          	lw	x14,24(x2)
    2f9c:	00078a13          	addi	x20,x15,0
    2fa0:	30f74863          	blt	x14,x15,32b0 <_vfprintf_r+0x13cc>
    2fa4:	03405663          	bge	x0,x20,2fd0 <_vfprintf_r+0x10ec>
    2fa8:	0c812703          	lw	x14,200(x2)
    2fac:	01460633          	add	x12,x12,x20
    2fb0:	01a42023          	sw	x26,0(x8)
    2fb4:	00170713          	addi	x14,x14,1
    2fb8:	01442223          	sw	x20,4(x8)
    2fbc:	0cc12623          	sw	x12,204(x2)
    2fc0:	0ce12423          	sw	x14,200(x2)
    2fc4:	00700593          	addi	x11,x0,7
    2fc8:	00840413          	addi	x8,x8,8
    2fcc:	56e5c0e3          	blt	x11,x14,3d2c <_vfprintf_r+0x1e48>
    2fd0:	fffa4713          	xori	x14,x20,-1
    2fd4:	01412783          	lw	x15,20(x2)
    2fd8:	41f75713          	srai	x14,x14,0x1f
    2fdc:	00ea7a33          	and	x20,x20,x14
    2fe0:	41478a33          	sub	x20,x15,x20
    2fe4:	3b404c63          	blt	x0,x20,339c <_vfprintf_r+0x14b8>
    2fe8:	01412783          	lw	x15,20(x2)
    2fec:	400df713          	andi	x14,x27,1024
    2ff0:	00fd0a33          	add	x20,x26,x15
    2ff4:	280714e3          	bne	x14,x0,3a7c <_vfprintf_r+0x1b98>
    2ff8:	0ac12583          	lw	x11,172(x2)
    2ffc:	01812783          	lw	x15,24(x2)
    3000:	40f5ca63          	blt	x11,x15,3414 <_vfprintf_r+0x1530>
    3004:	001df713          	andi	x14,x27,1
    3008:	40071663          	bne	x14,x0,3414 <_vfprintf_r+0x1530>
    300c:	01812703          	lw	x14,24(x2)
    3010:	00ed07b3          	add	x15,x26,x14
    3014:	40b705b3          	sub	x11,x14,x11
    3018:	41478b33          	sub	x22,x15,x20
    301c:	0165d463          	bge	x11,x22,3024 <_vfprintf_r+0x1140>
    3020:	00058b13          	addi	x22,x11,0
    3024:	03605863          	bge	x0,x22,3054 <_vfprintf_r+0x1170>
    3028:	0c812703          	lw	x14,200(x2)
    302c:	01660633          	add	x12,x12,x22
    3030:	01442023          	sw	x20,0(x8)
    3034:	00170713          	addi	x14,x14,1
    3038:	01642223          	sw	x22,4(x8)
    303c:	0cc12623          	sw	x12,204(x2)
    3040:	0ce12423          	sw	x14,200(x2)
    3044:	00700793          	addi	x15,x0,7
    3048:	00840413          	addi	x8,x8,8
    304c:	00e7d463          	bge	x15,x14,3054 <_vfprintf_r+0x1170>
    3050:	3380106f          	jal	x0,4388 <_vfprintf_r+0x24a4>
    3054:	fffb4713          	xori	x14,x22,-1
    3058:	41f75713          	srai	x14,x14,0x1f
    305c:	00eb77b3          	and	x15,x22,x14
    3060:	40f58a33          	sub	x20,x11,x15
    3064:	97405863          	bge	x0,x20,21d4 <_vfprintf_r+0x2f0>
    3068:	00012837          	lui	x16,0x12
    306c:	01000713          	addi	x14,x0,16
    3070:	0c812783          	lw	x15,200(x2)
    3074:	36080813          	addi	x16,x16,864 # 12360 <zeroes.0>
    3078:	014758e3          	bge	x14,x20,3888 <_vfprintf_r+0x19a4>
    307c:	01212a23          	sw	x18,20(x2)
    3080:	01000b13          	addi	x22,x0,16
    3084:	00700d13          	addi	x26,x0,7
    3088:	00080913          	addi	x18,x16,0
    308c:	00c0006f          	jal	x0,3098 <_vfprintf_r+0x11b4>
    3090:	ff0a0a13          	addi	x20,x20,-16
    3094:	7f4b5663          	bge	x22,x20,3880 <_vfprintf_r+0x199c>
    3098:	01060613          	addi	x12,x12,16
    309c:	00178793          	addi	x15,x15,1
    30a0:	01242023          	sw	x18,0(x8)
    30a4:	01642223          	sw	x22,4(x8)
    30a8:	0cc12623          	sw	x12,204(x2)
    30ac:	0cf12423          	sw	x15,200(x2)
    30b0:	00840413          	addi	x8,x8,8
    30b4:	fcfd5ee3          	bge	x26,x15,3090 <_vfprintf_r+0x11ac>
    30b8:	0c410613          	addi	x12,x2,196
    30bc:	00048593          	addi	x11,x9,0
    30c0:	000b8513          	addi	x10,x23,0
    30c4:	0b1010ef          	jal	x1,4974 <__sprint_r>
    30c8:	ca051ce3          	bne	x10,x0,2d80 <_vfprintf_r+0xe9c>
    30cc:	0cc12603          	lw	x12,204(x2)
    30d0:	0c812783          	lw	x15,200(x2)
    30d4:	00098413          	addi	x8,x19,0
    30d8:	fb9ff06f          	jal	x0,3090 <_vfprintf_r+0x11ac>
    30dc:	001df593          	andi	x11,x27,1
    30e0:	ca059e63          	bne	x11,x0,259c <_vfprintf_r+0x6b8>
    30e4:	00e42223          	sw	x14,4(x8)
    30e8:	0cc12623          	sw	x12,204(x2)
    30ec:	0d412423          	sw	x20,200(x2)
    30f0:	00700793          	addi	x15,x0,7
    30f4:	d747d663          	bge	x15,x20,2660 <_vfprintf_r+0x77c>
    30f8:	0c410613          	addi	x12,x2,196
    30fc:	00048593          	addi	x11,x9,0
    3100:	000b8513          	addi	x10,x23,0
    3104:	071010ef          	jal	x1,4974 <__sprint_r>
    3108:	c6051ce3          	bne	x10,x0,2d80 <_vfprintf_r+0xe9c>
    310c:	0cc12603          	lw	x12,204(x2)
    3110:	0c812a03          	lw	x20,200(x2)
    3114:	00098b13          	addi	x22,x19,0
    3118:	d48ff06f          	jal	x0,2660 <_vfprintf_r+0x77c>
    311c:	01812703          	lw	x14,24(x2)
    3120:	00100793          	addi	x15,x0,1
    3124:	d2e7de63          	bge	x15,x14,2660 <_vfprintf_r+0x77c>
    3128:	00012837          	lui	x16,0x12
    312c:	01100793          	addi	x15,x0,17
    3130:	36080813          	addi	x16,x16,864 # 12360 <zeroes.0>
    3134:	0ce7d6e3          	bge	x15,x14,3a00 <_vfprintf_r+0x1b1c>
    3138:	01212a23          	sw	x18,20(x2)
    313c:	01000793          	addi	x15,x0,16
    3140:	00700d13          	addi	x26,x0,7
    3144:	00080913          	addi	x18,x16,0
    3148:	00c0006f          	jal	x0,3154 <_vfprintf_r+0x1270>
    314c:	ff040413          	addi	x8,x8,-16
    3150:	0a87d4e3          	bge	x15,x8,39f8 <_vfprintf_r+0x1b14>
    3154:	01060613          	addi	x12,x12,16
    3158:	001a0a13          	addi	x20,x20,1
    315c:	012b2023          	sw	x18,0(x22)
    3160:	00fb2223          	sw	x15,4(x22)
    3164:	0cc12623          	sw	x12,204(x2)
    3168:	0d412423          	sw	x20,200(x2)
    316c:	008b0b13          	addi	x22,x22,8
    3170:	fd4d5ee3          	bge	x26,x20,314c <_vfprintf_r+0x1268>
    3174:	0c410613          	addi	x12,x2,196
    3178:	00048593          	addi	x11,x9,0
    317c:	000b8513          	addi	x10,x23,0
    3180:	7f4010ef          	jal	x1,4974 <__sprint_r>
    3184:	be051ee3          	bne	x10,x0,2d80 <_vfprintf_r+0xe9c>
    3188:	0cc12603          	lw	x12,204(x2)
    318c:	0c812a03          	lw	x20,200(x2)
    3190:	00098b13          	addi	x22,x19,0
    3194:	01000793          	addi	x15,x0,16
    3198:	fb5ff06f          	jal	x0,314c <_vfprintf_r+0x1268>
    319c:	00c12683          	lw	x13,12(x2)
    31a0:	01067793          	andi	x15,x12,16
    31a4:	0006a703          	lw	x14,0(x13)
    31a8:	00468693          	addi	x13,x13,4
    31ac:	00d12623          	sw	x13,12(x2)
    31b0:	04079863          	bne	x15,x0,3200 <_vfprintf_r+0x131c>
    31b4:	04067793          	andi	x15,x12,64
    31b8:	04078063          	beq	x15,x0,31f8 <_vfprintf_r+0x1314>
    31bc:	01071b13          	slli	x22,x14,0x10
    31c0:	010b5b13          	srli	x22,x22,0x10
    31c4:	00000813          	addi	x16,x0,0
    31c8:	00100793          	addi	x15,x0,1
    31cc:	9fcff06f          	jal	x0,23c8 <_vfprintf_r+0x4e4>
    31d0:	00000b13          	addi	x22,x0,0
    31d4:	19010d13          	addi	x26,x2,400
    31d8:	994ff06f          	jal	x0,236c <_vfprintf_r+0x488>
    31dc:	001df793          	andi	x15,x27,1
    31e0:	00079463          	bne	x15,x0,31e8 <_vfprintf_r+0x1304>
    31e4:	ff1fe06f          	jal	x0,21d4 <_vfprintf_r+0x2f0>
    31e8:	8a1ff06f          	jal	x0,2a88 <_vfprintf_r+0xba4>
    31ec:	00094883          	lbu	x17,0(x18)
    31f0:	00f12623          	sw	x15,12(x2)
    31f4:	e95fe06f          	jal	x0,2088 <_vfprintf_r+0x1a4>
    31f8:	20067793          	andi	x15,x12,512
    31fc:	360798e3          	bne	x15,x0,3d6c <_vfprintf_r+0x1e88>
    3200:	00070b13          	addi	x22,x14,0
    3204:	00000813          	addi	x16,x0,0
    3208:	00100793          	addi	x15,x0,1
    320c:	9bcff06f          	jal	x0,23c8 <_vfprintf_r+0x4e4>
    3210:	200df793          	andi	x15,x27,512
    3214:	360794e3          	bne	x15,x0,3d7c <_vfprintf_r+0x1e98>
    3218:	41f75813          	srai	x16,x14,0x1f
    321c:	00070b13          	addi	x22,x14,0
    3220:	00080793          	addi	x15,x16,0
    3224:	920ff06f          	jal	x0,2344 <_vfprintf_r+0x460>
    3228:	200df793          	andi	x15,x27,512
    322c:	360798e3          	bne	x15,x0,3d9c <_vfprintf_r+0x1eb8>
    3230:	00070b13          	addi	x22,x14,0
    3234:	00000813          	addi	x16,x0,0
    3238:	988ff06f          	jal	x0,23c0 <_vfprintf_r+0x4dc>
    323c:	00c12783          	lw	x15,12(x2)
    3240:	0007a703          	lw	x14,0(x15)
    3244:	00478793          	addi	x15,x15,4
    3248:	00f12623          	sw	x15,12(x2)
    324c:	00072583          	lw	x11,0(x14)
    3250:	00472603          	lw	x12,4(x14)
    3254:	00872683          	lw	x13,8(x14)
    3258:	00c72703          	lw	x14,12(x14)
    325c:	a18ff06f          	jal	x0,2474 <_vfprintf_r+0x590>
    3260:	03812783          	lw	x15,56(x2)
    3264:	00094883          	lbu	x17,0(x18)
    3268:	00079463          	bne	x15,x0,3270 <_vfprintf_r+0x138c>
    326c:	e1dfe06f          	jal	x0,2088 <_vfprintf_r+0x1a4>
    3270:	0007c783          	lbu	x15,0(x15)
    3274:	00079463          	bne	x15,x0,327c <_vfprintf_r+0x1398>
    3278:	e11fe06f          	jal	x0,2088 <_vfprintf_r+0x1a4>
    327c:	400ded93          	ori	x27,x27,1024
    3280:	e09fe06f          	jal	x0,2088 <_vfprintf_r+0x1a4>
    3284:	010df793          	andi	x15,x27,16
    3288:	6a079663          	bne	x15,x0,3934 <_vfprintf_r+0x1a50>
    328c:	040df793          	andi	x15,x27,64
    3290:	2c0794e3          	bne	x15,x0,3d58 <_vfprintf_r+0x1e74>
    3294:	200dfe13          	andi	x28,x27,512
    3298:	680e0e63          	beq	x28,x0,3934 <_vfprintf_r+0x1a50>
    329c:	00c12783          	lw	x15,12(x2)
    32a0:	00412703          	lw	x14,4(x2)
    32a4:	0007a783          	lw	x15,0(x15)
    32a8:	00e78023          	sb	x14,0(x15)
    32ac:	e80ff06f          	jal	x0,292c <_vfprintf_r+0xa48>
    32b0:	00070a13          	addi	x20,x14,0
    32b4:	cf404ae3          	blt	x0,x20,2fa8 <_vfprintf_r+0x10c4>
    32b8:	d19ff06f          	jal	x0,2fd0 <_vfprintf_r+0x10ec>
    32bc:	fff00a13          	addi	x20,x0,-1
    32c0:	00068913          	addi	x18,x13,0
    32c4:	dc9fe06f          	jal	x0,208c <_vfprintf_r+0x1a8>
    32c8:	000127b7          	lui	x15,0x12
    32cc:	ef878793          	addi	x15,x15,-264 # 11ef8 <__clzsi2+0x308>
    32d0:	02f12823          	sw	x15,48(x2)
    32d4:	020df793          	andi	x15,x27,32
    32d8:	3a078463          	beq	x15,x0,3680 <_vfprintf_r+0x179c>
    32dc:	00c12783          	lw	x15,12(x2)
    32e0:	00778c13          	addi	x24,x15,7
    32e4:	ff8c7c13          	andi	x24,x24,-8
    32e8:	000c2b03          	lw	x22,0(x24)
    32ec:	004c2803          	lw	x16,4(x24)
    32f0:	008c0793          	addi	x15,x24,8
    32f4:	00f12623          	sw	x15,12(x2)
    32f8:	001df793          	andi	x15,x27,1
    32fc:	00078e63          	beq	x15,x0,3318 <_vfprintf_r+0x1434>
    3300:	010b67b3          	or	x15,x22,x16
    3304:	00078a63          	beq	x15,x0,3318 <_vfprintf_r+0x1434>
    3308:	03000793          	addi	x15,x0,48
    330c:	0af10423          	sb	x15,168(x2)
    3310:	0b1104a3          	sb	x17,169(x2)
    3314:	002ded93          	ori	x27,x27,2
    3318:	bffdf613          	andi	x12,x27,-1025
    331c:	00200793          	addi	x15,x0,2
    3320:	8a8ff06f          	jal	x0,23c8 <_vfprintf_r+0x4e4>
    3324:	000d8613          	addi	x12,x27,0
    3328:	d6cff06f          	jal	x0,2894 <_vfprintf_r+0x9b0>
    332c:	000127b7          	lui	x15,0x12
    3330:	ee478793          	addi	x15,x15,-284 # 11ee4 <__clzsi2+0x2f4>
    3334:	02f12823          	sw	x15,48(x2)
    3338:	f9dff06f          	jal	x0,32d4 <_vfprintf_r+0x13f0>
    333c:	0c410613          	addi	x12,x2,196
    3340:	00048593          	addi	x11,x9,0
    3344:	000b8513          	addi	x10,x23,0
    3348:	62c010ef          	jal	x1,4974 <__sprint_r>
    334c:	a2051ae3          	bne	x10,x0,2d80 <_vfprintf_r+0xe9c>
    3350:	0cc12603          	lw	x12,204(x2)
    3354:	00098413          	addi	x8,x19,0
    3358:	f60ff06f          	jal	x0,2ab8 <_vfprintf_r+0xbd4>
    335c:	00194883          	lbu	x17,1(x18)
    3360:	200ded93          	ori	x27,x27,512
    3364:	00190913          	addi	x18,x18,1
    3368:	d21fe06f          	jal	x0,2088 <_vfprintf_r+0x1a4>
    336c:	00194883          	lbu	x17,1(x18)
    3370:	020ded93          	ori	x27,x27,32
    3374:	00190913          	addi	x18,x18,1
    3378:	d11fe06f          	jal	x0,2088 <_vfprintf_r+0x1a4>
    337c:	00600793          	addi	x15,x0,6
    3380:	000a0b13          	addi	x22,x20,0
    3384:	1d47e6e3          	bltu	x15,x20,3d50 <_vfprintf_r+0x1e6c>
    3388:	000127b7          	lui	x15,0x12
    338c:	000b0c13          	addi	x24,x22,0
    3390:	01012623          	sw	x16,12(x2)
    3394:	f0c78d13          	addi	x26,x15,-244 # 11f0c <__clzsi2+0x31c>
    3398:	d5dfe06f          	jal	x0,20f4 <_vfprintf_r+0x210>
    339c:	00012837          	lui	x16,0x12
    33a0:	01000593          	addi	x11,x0,16
    33a4:	0c812703          	lw	x14,200(x2)
    33a8:	36080813          	addi	x16,x16,864 # 12360 <zeroes.0>
    33ac:	6945d663          	bge	x11,x20,3a38 <_vfprintf_r+0x1b54>
    33b0:	03212a23          	sw	x18,52(x2)
    33b4:	01000893          	addi	x17,x0,16
    33b8:	00700b13          	addi	x22,x0,7
    33bc:	00080913          	addi	x18,x16,0
    33c0:	00c0006f          	jal	x0,33cc <_vfprintf_r+0x14e8>
    33c4:	ff0a0a13          	addi	x20,x20,-16
    33c8:	6748d463          	bge	x17,x20,3a30 <_vfprintf_r+0x1b4c>
    33cc:	01060613          	addi	x12,x12,16
    33d0:	00170713          	addi	x14,x14,1
    33d4:	01242023          	sw	x18,0(x8)
    33d8:	01142223          	sw	x17,4(x8)
    33dc:	0cc12623          	sw	x12,204(x2)
    33e0:	0ce12423          	sw	x14,200(x2)
    33e4:	00840413          	addi	x8,x8,8
    33e8:	fceb5ee3          	bge	x22,x14,33c4 <_vfprintf_r+0x14e0>
    33ec:	0c410613          	addi	x12,x2,196
    33f0:	00048593          	addi	x11,x9,0
    33f4:	000b8513          	addi	x10,x23,0
    33f8:	57c010ef          	jal	x1,4974 <__sprint_r>
    33fc:	980512e3          	bne	x10,x0,2d80 <_vfprintf_r+0xe9c>
    3400:	0cc12603          	lw	x12,204(x2)
    3404:	0c812703          	lw	x14,200(x2)
    3408:	00098413          	addi	x8,x19,0
    340c:	01000893          	addi	x17,x0,16
    3410:	fb5ff06f          	jal	x0,33c4 <_vfprintf_r+0x14e0>
    3414:	02c12703          	lw	x14,44(x2)
    3418:	02812783          	lw	x15,40(x2)
    341c:	00700513          	addi	x10,x0,7
    3420:	00e42023          	sw	x14,0(x8)
    3424:	0c812703          	lw	x14,200(x2)
    3428:	00f60633          	add	x12,x12,x15
    342c:	00f42223          	sw	x15,4(x8)
    3430:	00170713          	addi	x14,x14,1
    3434:	0cc12623          	sw	x12,204(x2)
    3438:	0ce12423          	sw	x14,200(x2)
    343c:	00840413          	addi	x8,x8,8
    3440:	bce556e3          	bge	x10,x14,300c <_vfprintf_r+0x1128>
    3444:	0c410613          	addi	x12,x2,196
    3448:	00048593          	addi	x11,x9,0
    344c:	000b8513          	addi	x10,x23,0
    3450:	524010ef          	jal	x1,4974 <__sprint_r>
    3454:	920516e3          	bne	x10,x0,2d80 <_vfprintf_r+0xe9c>
    3458:	0ac12583          	lw	x11,172(x2)
    345c:	0cc12603          	lw	x12,204(x2)
    3460:	00098413          	addi	x8,x19,0
    3464:	ba9ff06f          	jal	x0,300c <_vfprintf_r+0x1128>
    3468:	07800793          	addi	x15,x0,120
    346c:	03000713          	addi	x14,x0,48
    3470:	0ae10423          	sb	x14,168(x2)
    3474:	0af104a3          	sb	x15,169(x2)
    3478:	06300713          	addi	x14,x0,99
    347c:	00012423          	sw	x0,8(x2)
    3480:	002ded93          	ori	x27,x27,2
    3484:	12c10d13          	addi	x26,x2,300
    3488:	87475463          	bge	x14,x20,24f0 <_vfprintf_r+0x60c>
    348c:	001a0593          	addi	x11,x20,1
    3490:	000b8513          	addi	x10,x23,0
    3494:	01112423          	sw	x17,8(x2)
    3498:	a88fe0ef          	jal	x1,1720 <_malloc_r>
    349c:	00812883          	lw	x17,8(x2)
    34a0:	00050d13          	addi	x26,x10,0
    34a4:	00051463          	bne	x10,x0,34ac <_vfprintf_r+0x15c8>
    34a8:	2b40106f          	jal	x0,475c <_vfprintf_r+0x2878>
    34ac:	00a12423          	sw	x10,8(x2)
    34b0:	840ff06f          	jal	x0,24f0 <_vfprintf_r+0x60c>
    34b4:	09010b13          	addi	x22,x2,144
    34b8:	0ac10713          	addi	x14,x2,172
    34bc:	0bc10813          	addi	x16,x2,188
    34c0:	0b010793          	addi	x15,x2,176
    34c4:	000a0693          	addi	x13,x20,0
    34c8:	00200613          	addi	x12,x0,2
    34cc:	000b0593          	addi	x11,x22,0
    34d0:	000b8513          	addi	x10,x23,0
    34d4:	03112023          	sw	x17,32(x2)
    34d8:	09f12823          	sw	x31,144(x2)
    34dc:	01f12e23          	sw	x31,28(x2)
    34e0:	09e12a23          	sw	x30,148(x2)
    34e4:	01e12c23          	sw	x30,24(x2)
    34e8:	09d12c23          	sw	x29,152(x2)
    34ec:	01d12a23          	sw	x29,20(x2)
    34f0:	09812e23          	sw	x24,156(x2)
    34f4:	004040ef          	jal	x1,74f8 <_ldtoa_r>
    34f8:	001df713          	andi	x14,x27,1
    34fc:	01412e83          	lw	x29,20(x2)
    3500:	01812f03          	lw	x30,24(x2)
    3504:	01c12f83          	lw	x31,28(x2)
    3508:	02012883          	lw	x17,32(x2)
    350c:	00050d13          	addi	x26,x10,0
    3510:	0e0714e3          	bne	x14,x0,3df8 <_vfprintf_r+0x1f14>
    3514:	0ac12783          	lw	x15,172(x2)
    3518:	00f12a23          	sw	x15,20(x2)
    351c:	0bc12783          	lw	x15,188(x2)
    3520:	40a787b3          	sub	x15,x15,x10
    3524:	00f12c23          	sw	x15,24(x2)
    3528:	01412783          	lw	x15,20(x2)
    352c:	ffd00713          	addi	x14,x0,-3
    3530:	00e7c463          	blt	x15,x14,3538 <_vfprintf_r+0x1654>
    3534:	56fa5ae3          	bge	x20,x15,42a8 <_vfprintf_r+0x23c4>
    3538:	01412783          	lw	x15,20(x2)
    353c:	ffe88893          	addi	x17,x17,-2
    3540:	fff78a13          	addi	x20,x15,-1
    3544:	0b412623          	sw	x20,172(x2)
    3548:	0ff8f693          	andi	x13,x17,255
    354c:	00000613          	addi	x12,x0,0
    3550:	0ad10a23          	sb	x13,180(x2)
    3554:	02b00693          	addi	x13,x0,43
    3558:	000a5a63          	bge	x20,x0,356c <_vfprintf_r+0x1688>
    355c:	01412783          	lw	x15,20(x2)
    3560:	00100713          	addi	x14,x0,1
    3564:	02d00693          	addi	x13,x0,45
    3568:	40f70a33          	sub	x20,x14,x15
    356c:	0ad10aa3          	sb	x13,181(x2)
    3570:	00900693          	addi	x13,x0,9
    3574:	0146c463          	blt	x13,x20,357c <_vfprintf_r+0x1698>
    3578:	0180106f          	jal	x0,4590 <_vfprintf_r+0x26ac>
    357c:	0c310613          	addi	x12,x2,195
    3580:	00812a23          	sw	x8,20(x2)
    3584:	00088b13          	addi	x22,x17,0
    3588:	00060413          	addi	x8,x12,0
    358c:	00912e23          	sw	x9,28(x2)
    3590:	00a00593          	addi	x11,x0,10
    3594:	000a0513          	addi	x10,x20,0
    3598:	6280e0ef          	jal	x1,11bc0 <__modsi3>
    359c:	03050793          	addi	x15,x10,48
    35a0:	00040c13          	addi	x24,x8,0
    35a4:	fefc0fa3          	sb	x15,-1(x24)
    35a8:	000a0513          	addi	x10,x20,0
    35ac:	00a00593          	addi	x11,x0,10
    35b0:	58c0e0ef          	jal	x1,11b3c <__divsi3>
    35b4:	000a0493          	addi	x9,x20,0
    35b8:	06300793          	addi	x15,x0,99
    35bc:	fff40413          	addi	x8,x8,-1
    35c0:	00050a13          	addi	x20,x10,0
    35c4:	fc97c6e3          	blt	x15,x9,3590 <_vfprintf_r+0x16ac>
    35c8:	00040613          	addi	x12,x8,0
    35cc:	03050713          	addi	x14,x10,48
    35d0:	ffec0693          	addi	x13,x24,-2
    35d4:	fee60fa3          	sb	x14,-1(x12)
    35d8:	0c310793          	addi	x15,x2,195
    35dc:	01412403          	lw	x8,20(x2)
    35e0:	01c12483          	lw	x9,28(x2)
    35e4:	000b0893          	addi	x17,x22,0
    35e8:	00f6e463          	bltu	x13,x15,35f0 <_vfprintf_r+0x170c>
    35ec:	1280106f          	jal	x0,4714 <_vfprintf_r+0x2830>
    35f0:	0b610613          	addi	x12,x2,182
    35f4:	0006c783          	lbu	x15,0(x13)
    35f8:	00168693          	addi	x13,x13,1
    35fc:	00160613          	addi	x12,x12,1
    3600:	fef60fa3          	sb	x15,-1(x12)
    3604:	0c310793          	addi	x15,x2,195
    3608:	fef696e3          	bne	x13,x15,35f4 <_vfprintf_r+0x1710>
    360c:	19010793          	addi	x15,x2,400
    3610:	41878733          	sub	x14,x15,x24
    3614:	f3770793          	addi	x15,x14,-201
    3618:	02f12e23          	sw	x15,60(x2)
    361c:	01812783          	lw	x15,24(x2)
    3620:	03c12683          	lw	x13,60(x2)
    3624:	00100713          	addi	x14,x0,1
    3628:	00d78b33          	add	x22,x15,x13
    362c:	00f74463          	blt	x14,x15,3634 <_vfprintf_r+0x1750>
    3630:	79d0006f          	jal	x0,45cc <_vfprintf_r+0x26e8>
    3634:	02812783          	lw	x15,40(x2)
    3638:	00fb0b33          	add	x22,x22,x15
    363c:	fffb4693          	xori	x13,x22,-1
    3640:	bffdfe13          	andi	x28,x27,-1025
    3644:	41f6d693          	srai	x13,x13,0x1f
    3648:	100e6793          	ori	x15,x28,256
    364c:	04f12423          	sw	x15,72(x2)
    3650:	00db7c33          	and	x24,x22,x13
    3654:	02012023          	sw	x0,32(x2)
    3658:	00012e23          	sw	x0,28(x2)
    365c:	00012a23          	sw	x0,20(x2)
    3660:	03412783          	lw	x15,52(x2)
    3664:	420786e3          	beq	x15,x0,4290 <_vfprintf_r+0x23ac>
    3668:	02d00713          	addi	x14,x0,45
    366c:	04812d83          	lw	x27,72(x2)
    3670:	0ae103a3          	sb	x14,167(x2)
    3674:	00000a13          	addi	x20,x0,0
    3678:	001c0c13          	addi	x24,x24,1
    367c:	a8dfe06f          	jal	x0,2108 <_vfprintf_r+0x224>
    3680:	00c12683          	lw	x13,12(x2)
    3684:	010df793          	andi	x15,x27,16
    3688:	0006a703          	lw	x14,0(x13)
    368c:	00468693          	addi	x13,x13,4
    3690:	00d12623          	sw	x13,12(x2)
    3694:	06079663          	bne	x15,x0,3700 <_vfprintf_r+0x181c>
    3698:	040df793          	andi	x15,x27,64
    369c:	04078e63          	beq	x15,x0,36f8 <_vfprintf_r+0x1814>
    36a0:	01071b13          	slli	x22,x14,0x10
    36a4:	010b5b13          	srli	x22,x22,0x10
    36a8:	00000813          	addi	x16,x0,0
    36ac:	c4dff06f          	jal	x0,32f8 <_vfprintf_r+0x1414>
    36b0:	0c410613          	addi	x12,x2,196
    36b4:	00048593          	addi	x11,x9,0
    36b8:	000b8513          	addi	x10,x23,0
    36bc:	2b8010ef          	jal	x1,4974 <__sprint_r>
    36c0:	ec051063          	bne	x10,x0,2d80 <_vfprintf_r+0xe9c>
    36c4:	0cc12603          	lw	x12,204(x2)
    36c8:	0c812a03          	lw	x20,200(x2)
    36cc:	00098b13          	addi	x22,x19,0
    36d0:	ee9fe06f          	jal	x0,25b8 <_vfprintf_r+0x6d4>
    36d4:	0c410613          	addi	x12,x2,196
    36d8:	00048593          	addi	x11,x9,0
    36dc:	000b8513          	addi	x10,x23,0
    36e0:	294010ef          	jal	x1,4974 <__sprint_r>
    36e4:	e8051e63          	bne	x10,x0,2d80 <_vfprintf_r+0xe9c>
    36e8:	0cc12603          	lw	x12,204(x2)
    36ec:	0c812a03          	lw	x20,200(x2)
    36f0:	00098b13          	addi	x22,x19,0
    36f4:	ef5fe06f          	jal	x0,25e8 <_vfprintf_r+0x704>
    36f8:	200df793          	andi	x15,x27,512
    36fc:	68079a63          	bne	x15,x0,3d90 <_vfprintf_r+0x1eac>
    3700:	00070b13          	addi	x22,x14,0
    3704:	00000813          	addi	x16,x0,0
    3708:	bf1ff06f          	jal	x0,32f8 <_vfprintf_r+0x1414>
    370c:	19010c13          	addi	x24,x2,400
    3710:	01212423          	sw	x18,8(x2)
    3714:	02812023          	sw	x8,32(x2)
    3718:	02912a23          	sw	x9,52(x2)
    371c:	03812403          	lw	x8,56(x2)
    3720:	40067d93          	andi	x27,x12,1024
    3724:	00000d13          	addi	x26,x0,0
    3728:	01112a23          	sw	x17,20(x2)
    372c:	00c12e23          	sw	x12,28(x2)
    3730:	000c0493          	addi	x9,x24,0
    3734:	00080913          	addi	x18,x16,0
    3738:	0280006f          	jal	x0,3760 <_vfprintf_r+0x187c>
    373c:	00a00613          	addi	x12,x0,10
    3740:	00000693          	addi	x13,x0,0
    3744:	000b0513          	addi	x10,x22,0
    3748:	00090593          	addi	x11,x18,0
    374c:	760080ef          	jal	x1,beac <__udivdi3>
    3750:	3e0902e3          	beq	x18,x0,4334 <_vfprintf_r+0x2450>
    3754:	00050b13          	addi	x22,x10,0
    3758:	00058913          	addi	x18,x11,0
    375c:	000c0493          	addi	x9,x24,0
    3760:	00a00613          	addi	x12,x0,10
    3764:	00000693          	addi	x13,x0,0
    3768:	000b0513          	addi	x10,x22,0
    376c:	00090593          	addi	x11,x18,0
    3770:	501080ef          	jal	x1,c470 <__umoddi3>
    3774:	03050513          	addi	x10,x10,48
    3778:	fea48fa3          	sb	x10,-1(x9)
    377c:	fff48c13          	addi	x24,x9,-1
    3780:	001d0d13          	addi	x26,x26,1
    3784:	fa0d8ce3          	beq	x27,x0,373c <_vfprintf_r+0x1858>
    3788:	00044783          	lbu	x15,0(x8)
    378c:	fafd18e3          	bne	x26,x15,373c <_vfprintf_r+0x1858>
    3790:	0ff00793          	addi	x15,x0,255
    3794:	fafd04e3          	beq	x26,x15,373c <_vfprintf_r+0x1858>
    3798:	52091063          	bne	x18,x0,3cb8 <_vfprintf_r+0x1dd4>
    379c:	00900793          	addi	x15,x0,9
    37a0:	5167ec63          	bltu	x15,x22,3cb8 <_vfprintf_r+0x1dd4>
    37a4:	01c12603          	lw	x12,28(x2)
    37a8:	01a12c23          	sw	x26,24(x2)
    37ac:	19010793          	addi	x15,x2,400
    37b0:	000c0d13          	addi	x26,x24,0
    37b4:	02812c23          	sw	x8,56(x2)
    37b8:	00812903          	lw	x18,8(x2)
    37bc:	01412883          	lw	x17,20(x2)
    37c0:	02012403          	lw	x8,32(x2)
    37c4:	03412483          	lw	x9,52(x2)
    37c8:	41a78b33          	sub	x22,x15,x26
    37cc:	00060d93          	addi	x27,x12,0
    37d0:	b9dfe06f          	jal	x0,236c <_vfprintf_r+0x488>
    37d4:	0c812703          	lw	x14,200(x2)
    37d8:	000125b7          	lui	x11,0x12
    37dc:	f1458593          	addi	x11,x11,-236 # 11f14 <__clzsi2+0x324>
    37e0:	00b42023          	sw	x11,0(x8)
    37e4:	00160613          	addi	x12,x12,1
    37e8:	00100593          	addi	x11,x0,1
    37ec:	00170713          	addi	x14,x14,1
    37f0:	00b42223          	sw	x11,4(x8)
    37f4:	0cc12623          	sw	x12,204(x2)
    37f8:	0ce12423          	sw	x14,200(x2)
    37fc:	00700593          	addi	x11,x0,7
    3800:	00840413          	addi	x8,x8,8
    3804:	4ee5ca63          	blt	x11,x14,3cf8 <_vfprintf_r+0x1e14>
    3808:	14051063          	bne	x10,x0,3948 <_vfprintf_r+0x1a64>
    380c:	01812783          	lw	x15,24(x2)
    3810:	001df713          	andi	x14,x27,1
    3814:	00f76733          	or	x14,x14,x15
    3818:	00071463          	bne	x14,x0,3820 <_vfprintf_r+0x193c>
    381c:	9b9fe06f          	jal	x0,21d4 <_vfprintf_r+0x2f0>
    3820:	02c12703          	lw	x14,44(x2)
    3824:	02812783          	lw	x15,40(x2)
    3828:	00700593          	addi	x11,x0,7
    382c:	00e42023          	sw	x14,0(x8)
    3830:	0c812703          	lw	x14,200(x2)
    3834:	00c78633          	add	x12,x15,x12
    3838:	00f42223          	sw	x15,4(x8)
    383c:	00170713          	addi	x14,x14,1
    3840:	0cc12623          	sw	x12,204(x2)
    3844:	0ce12423          	sw	x14,200(x2)
    3848:	58e5c263          	blt	x11,x14,3dcc <_vfprintf_r+0x1ee8>
    384c:	00840413          	addi	x8,x8,8
    3850:	12c0006f          	jal	x0,397c <_vfprintf_r+0x1a98>
    3854:	02412503          	lw	x10,36(x2)
    3858:	814fd0ef          	jal	x1,86c <__sinit>
    385c:	ee8fe06f          	jal	x0,1f44 <_vfprintf_r+0x60>
    3860:	0c410613          	addi	x12,x2,196
    3864:	00048593          	addi	x11,x9,0
    3868:	000b8513          	addi	x10,x23,0
    386c:	108010ef          	jal	x1,4974 <__sprint_r>
    3870:	d0051863          	bne	x10,x0,2d80 <_vfprintf_r+0xe9c>
    3874:	0cc12603          	lw	x12,204(x2)
    3878:	00098413          	addi	x8,x19,0
    387c:	a00ff06f          	jal	x0,2a7c <_vfprintf_r+0xb98>
    3880:	00090813          	addi	x16,x18,0
    3884:	01412903          	lw	x18,20(x2)
    3888:	01042023          	sw	x16,0(x8)
    388c:	01442223          	sw	x20,4(x8)
    3890:	01460633          	add	x12,x12,x20
    3894:	00178793          	addi	x15,x15,1
    3898:	0cc12623          	sw	x12,204(x2)
    389c:	0cf12423          	sw	x15,200(x2)
    38a0:	00700713          	addi	x14,x0,7
    38a4:	00f74463          	blt	x14,x15,38ac <_vfprintf_r+0x19c8>
    38a8:	929fe06f          	jal	x0,21d0 <_vfprintf_r+0x2ec>
    38ac:	de1fe06f          	jal	x0,268c <_vfprintf_r+0x7a8>
    38b0:	0d012783          	lw	x15,208(x2)
    38b4:	08010593          	addi	x11,x2,128
    38b8:	09010513          	addi	x10,x2,144
    38bc:	08f12823          	sw	x15,144(x2)
    38c0:	0d412783          	lw	x15,212(x2)
    38c4:	08012023          	sw	x0,128(x2)
    38c8:	08012223          	sw	x0,132(x2)
    38cc:	08f12a23          	sw	x15,148(x2)
    38d0:	0d812783          	lw	x15,216(x2)
    38d4:	08012423          	sw	x0,136(x2)
    38d8:	08012623          	sw	x0,140(x2)
    38dc:	08f12c23          	sw	x15,152(x2)
    38e0:	0dc12783          	lw	x15,220(x2)
    38e4:	08f12e23          	sw	x15,156(x2)
    38e8:	38c0b0ef          	jal	x1,ec74 <__letf2>
    38ec:	00812883          	lw	x17,8(x2)
    38f0:	240548e3          	blt	x10,x0,4340 <_vfprintf_r+0x245c>
    38f4:	0a714703          	lbu	x14,167(x2)
    38f8:	04700793          	addi	x15,x0,71
    38fc:	4317d263          	bge	x15,x17,3d20 <_vfprintf_r+0x1e3c>
    3900:	000127b7          	lui	x15,0x12
    3904:	ed878d13          	addi	x26,x15,-296 # 11ed8 <__clzsi2+0x2e8>
    3908:	00012423          	sw	x0,8(x2)
    390c:	02012023          	sw	x0,32(x2)
    3910:	00012e23          	sw	x0,28(x2)
    3914:	00012a23          	sw	x0,20(x2)
    3918:	f7fdfd93          	andi	x27,x27,-129
    391c:	00300c13          	addi	x24,x0,3
    3920:	00300b13          	addi	x22,x0,3
    3924:	00000a13          	addi	x20,x0,0
    3928:	00070463          	beq	x14,x0,3930 <_vfprintf_r+0x1a4c>
    392c:	a65fe06f          	jal	x0,2390 <_vfprintf_r+0x4ac>
    3930:	fd8fe06f          	jal	x0,2108 <_vfprintf_r+0x224>
    3934:	00c12783          	lw	x15,12(x2)
    3938:	00412703          	lw	x14,4(x2)
    393c:	0007a783          	lw	x15,0(x15)
    3940:	00e7a023          	sw	x14,0(x15)
    3944:	fe9fe06f          	jal	x0,292c <_vfprintf_r+0xa48>
    3948:	02c12703          	lw	x14,44(x2)
    394c:	02812783          	lw	x15,40(x2)
    3950:	00700593          	addi	x11,x0,7
    3954:	00e42023          	sw	x14,0(x8)
    3958:	0c812703          	lw	x14,200(x2)
    395c:	00c78633          	add	x12,x15,x12
    3960:	00f42223          	sw	x15,4(x8)
    3964:	00170713          	addi	x14,x14,1
    3968:	0cc12623          	sw	x12,204(x2)
    396c:	0ce12423          	sw	x14,200(x2)
    3970:	00840413          	addi	x8,x8,8
    3974:	44e5cc63          	blt	x11,x14,3dcc <_vfprintf_r+0x1ee8>
    3978:	340542e3          	blt	x10,x0,44bc <_vfprintf_r+0x25d8>
    397c:	01812783          	lw	x15,24(x2)
    3980:	00170713          	addi	x14,x14,1
    3984:	01a42023          	sw	x26,0(x8)
    3988:	00c78633          	add	x12,x15,x12
    398c:	00f42223          	sw	x15,4(x8)
    3990:	0cc12623          	sw	x12,204(x2)
    3994:	0ce12423          	sw	x14,200(x2)
    3998:	00700793          	addi	x15,x0,7
    399c:	00e7c463          	blt	x15,x14,39a4 <_vfprintf_r+0x1ac0>
    39a0:	831fe06f          	jal	x0,21d0 <_vfprintf_r+0x2ec>
    39a4:	ce9fe06f          	jal	x0,268c <_vfprintf_r+0x7a8>
    39a8:	000d0513          	addi	x10,x26,0
    39ac:	01012423          	sw	x16,8(x2)
    39b0:	03112a23          	sw	x17,52(x2)
    39b4:	ed8fd0ef          	jal	x1,108c <strlen>
    39b8:	00812803          	lw	x16,8(x2)
    39bc:	0a714703          	lbu	x14,167(x2)
    39c0:	fff54693          	xori	x13,x10,-1
    39c4:	41f6d693          	srai	x13,x13,0x1f
    39c8:	01012623          	sw	x16,12(x2)
    39cc:	00012423          	sw	x0,8(x2)
    39d0:	02012023          	sw	x0,32(x2)
    39d4:	00012e23          	sw	x0,28(x2)
    39d8:	00012a23          	sw	x0,20(x2)
    39dc:	03412883          	lw	x17,52(x2)
    39e0:	00050b13          	addi	x22,x10,0
    39e4:	00d57c33          	and	x24,x10,x13
    39e8:	00000a13          	addi	x20,x0,0
    39ec:	00070463          	beq	x14,x0,39f4 <_vfprintf_r+0x1b10>
    39f0:	9a1fe06f          	jal	x0,2390 <_vfprintf_r+0x4ac>
    39f4:	f14fe06f          	jal	x0,2108 <_vfprintf_r+0x224>
    39f8:	00090813          	addi	x16,x18,0
    39fc:	01412903          	lw	x18,20(x2)
    3a00:	00860633          	add	x12,x12,x8
    3a04:	001a0a13          	addi	x20,x20,1
    3a08:	010b2023          	sw	x16,0(x22)
    3a0c:	c3dfe06f          	jal	x0,2648 <_vfprintf_r+0x764>
    3a10:	0dc12783          	lw	x15,220(x2)
    3a14:	3807ca63          	blt	x15,x0,3da8 <_vfprintf_r+0x1ec4>
    3a18:	0a714703          	lbu	x14,167(x2)
    3a1c:	04700793          	addi	x15,x0,71
    3a20:	1517cee3          	blt	x15,x17,437c <_vfprintf_r+0x2498>
    3a24:	000127b7          	lui	x15,0x12
    3a28:	edc78d13          	addi	x26,x15,-292 # 11edc <__clzsi2+0x2ec>
    3a2c:	eddff06f          	jal	x0,3908 <_vfprintf_r+0x1a24>
    3a30:	00090813          	addi	x16,x18,0
    3a34:	03412903          	lw	x18,52(x2)
    3a38:	01460633          	add	x12,x12,x20
    3a3c:	00170713          	addi	x14,x14,1
    3a40:	01042023          	sw	x16,0(x8)
    3a44:	01442223          	sw	x20,4(x8)
    3a48:	0cc12623          	sw	x12,204(x2)
    3a4c:	0ce12423          	sw	x14,200(x2)
    3a50:	00700593          	addi	x11,x0,7
    3a54:	00840413          	addi	x8,x8,8
    3a58:	d8e5d863          	bge	x11,x14,2fe8 <_vfprintf_r+0x1104>
    3a5c:	0c410613          	addi	x12,x2,196
    3a60:	00048593          	addi	x11,x9,0
    3a64:	000b8513          	addi	x10,x23,0
    3a68:	70d000ef          	jal	x1,4974 <__sprint_r>
    3a6c:	b0051a63          	bne	x10,x0,2d80 <_vfprintf_r+0xe9c>
    3a70:	0cc12603          	lw	x12,204(x2)
    3a74:	00098413          	addi	x8,x19,0
    3a78:	d70ff06f          	jal	x0,2fe8 <_vfprintf_r+0x1104>
    3a7c:	01812783          	lw	x15,24(x2)
    3a80:	01c12b03          	lw	x22,28(x2)
    3a84:	000128b7          	lui	x17,0x12
    3a88:	00fd07b3          	add	x15,x26,x15
    3a8c:	03212a23          	sw	x18,52(x2)
    3a90:	05912623          	sw	x25,76(x2)
    3a94:	01812e23          	sw	x24,28(x2)
    3a98:	05a12823          	sw	x26,80(x2)
    3a9c:	05b12423          	sw	x27,72(x2)
    3aa0:	000a0c93          	addi	x25,x20,0
    3aa4:	00040693          	addi	x13,x8,0
    3aa8:	04012a03          	lw	x20,64(x2)
    3aac:	04412403          	lw	x8,68(x2)
    3ab0:	03812c03          	lw	x24,56(x2)
    3ab4:	02012d03          	lw	x26,32(x2)
    3ab8:	00700813          	addi	x16,x0,7
    3abc:	01000713          	addi	x14,x0,16
    3ac0:	36088893          	addi	x17,x17,864 # 12360 <zeroes.0>
    3ac4:	00078913          	addi	x18,x15,0
    3ac8:	09605463          	bge	x0,x22,3b50 <_vfprintf_r+0x1c6c>
    3acc:	17a05e63          	bge	x0,x26,3c48 <_vfprintf_r+0x1d64>
    3ad0:	fffd0d13          	addi	x26,x26,-1
    3ad4:	0c812783          	lw	x15,200(x2)
    3ad8:	01460633          	add	x12,x12,x20
    3adc:	0086a023          	sw	x8,0(x13)
    3ae0:	00178793          	addi	x15,x15,1
    3ae4:	0146a223          	sw	x20,4(x13)
    3ae8:	0cc12623          	sw	x12,204(x2)
    3aec:	0cf12423          	sw	x15,200(x2)
    3af0:	00868693          	addi	x13,x13,8
    3af4:	16f84063          	blt	x16,x15,3c54 <_vfprintf_r+0x1d70>
    3af8:	000c4583          	lbu	x11,0(x24)
    3afc:	41990db3          	sub	x27,x18,x25
    3b00:	01b5d463          	bge	x11,x27,3b08 <_vfprintf_r+0x1c24>
    3b04:	00058d93          	addi	x27,x11,0
    3b08:	03b05663          	bge	x0,x27,3b34 <_vfprintf_r+0x1c50>
    3b0c:	0c812583          	lw	x11,200(x2)
    3b10:	01b60633          	add	x12,x12,x27
    3b14:	0196a023          	sw	x25,0(x13)
    3b18:	00158593          	addi	x11,x11,1
    3b1c:	01b6a223          	sw	x27,4(x13)
    3b20:	0cc12623          	sw	x12,204(x2)
    3b24:	0cb12423          	sw	x11,200(x2)
    3b28:	14b84e63          	blt	x16,x11,3c84 <_vfprintf_r+0x1da0>
    3b2c:	000c4583          	lbu	x11,0(x24)
    3b30:	00868693          	addi	x13,x13,8
    3b34:	fffdc513          	xori	x10,x27,-1
    3b38:	41f55513          	srai	x10,x10,0x1f
    3b3c:	00adf7b3          	and	x15,x27,x10
    3b40:	40f58db3          	sub	x27,x11,x15
    3b44:	05b04263          	blt	x0,x27,3b88 <_vfprintf_r+0x1ca4>
    3b48:	00bc8cb3          	add	x25,x25,x11
    3b4c:	f96040e3          	blt	x0,x22,3acc <_vfprintf_r+0x1be8>
    3b50:	f9a040e3          	blt	x0,x26,3ad0 <_vfprintf_r+0x1bec>
    3b54:	05012d03          	lw	x26,80(x2)
    3b58:	01812783          	lw	x15,24(x2)
    3b5c:	03812c23          	sw	x24,56(x2)
    3b60:	000c8a13          	addi	x20,x25,0
    3b64:	00fd0733          	add	x14,x26,x15
    3b68:	03412903          	lw	x18,52(x2)
    3b6c:	04812d83          	lw	x27,72(x2)
    3b70:	04c12c83          	lw	x25,76(x2)
    3b74:	01c12c03          	lw	x24,28(x2)
    3b78:	00068413          	addi	x8,x13,0
    3b7c:	c7477e63          	bgeu	x14,x20,2ff8 <_vfprintf_r+0x1114>
    3b80:	00070a13          	addi	x20,x14,0
    3b84:	c74ff06f          	jal	x0,2ff8 <_vfprintf_r+0x1114>
    3b88:	00012fb7          	lui	x31,0x12
    3b8c:	0c812583          	lw	x11,200(x2)
    3b90:	360f8f93          	addi	x31,x31,864 # 12360 <zeroes.0>
    3b94:	09b75463          	bge	x14,x27,3c1c <_vfprintf_r+0x1d38>
    3b98:	00812a23          	sw	x8,20(x2)
    3b9c:	000d8413          	addi	x8,x27,0
    3ba0:	00090d93          	addi	x27,x18,0
    3ba4:	00088913          	addi	x18,x17,0
    3ba8:	00c0006f          	jal	x0,3bb4 <_vfprintf_r+0x1cd0>
    3bac:	ff040413          	addi	x8,x8,-16
    3bb0:	04875e63          	bge	x14,x8,3c0c <_vfprintf_r+0x1d28>
    3bb4:	01060613          	addi	x12,x12,16
    3bb8:	00158593          	addi	x11,x11,1
    3bbc:	0116a023          	sw	x17,0(x13)
    3bc0:	00e6a223          	sw	x14,4(x13)
    3bc4:	0cc12623          	sw	x12,204(x2)
    3bc8:	0cb12423          	sw	x11,200(x2)
    3bcc:	00868693          	addi	x13,x13,8
    3bd0:	fcb85ee3          	bge	x16,x11,3bac <_vfprintf_r+0x1cc8>
    3bd4:	0c410613          	addi	x12,x2,196
    3bd8:	00048593          	addi	x11,x9,0
    3bdc:	000b8513          	addi	x10,x23,0
    3be0:	595000ef          	jal	x1,4974 <__sprint_r>
    3be4:	98051e63          	bne	x10,x0,2d80 <_vfprintf_r+0xe9c>
    3be8:	000127b7          	lui	x15,0x12
    3bec:	01000713          	addi	x14,x0,16
    3bf0:	ff040413          	addi	x8,x8,-16
    3bf4:	0cc12603          	lw	x12,204(x2)
    3bf8:	0c812583          	lw	x11,200(x2)
    3bfc:	00098693          	addi	x13,x19,0
    3c00:	36078893          	addi	x17,x15,864 # 12360 <zeroes.0>
    3c04:	00700813          	addi	x16,x0,7
    3c08:	fa8746e3          	blt	x14,x8,3bb4 <_vfprintf_r+0x1cd0>
    3c0c:	00090f93          	addi	x31,x18,0
    3c10:	000d8913          	addi	x18,x27,0
    3c14:	00040d93          	addi	x27,x8,0
    3c18:	01412403          	lw	x8,20(x2)
    3c1c:	01b60633          	add	x12,x12,x27
    3c20:	00158593          	addi	x11,x11,1
    3c24:	01f6a023          	sw	x31,0(x13)
    3c28:	01b6a223          	sw	x27,4(x13)
    3c2c:	0cc12623          	sw	x12,204(x2)
    3c30:	0cb12423          	sw	x11,200(x2)
    3c34:	6cb84263          	blt	x16,x11,42f8 <_vfprintf_r+0x2414>
    3c38:	000c4583          	lbu	x11,0(x24)
    3c3c:	00868693          	addi	x13,x13,8
    3c40:	00bc8cb3          	add	x25,x25,x11
    3c44:	f09ff06f          	jal	x0,3b4c <_vfprintf_r+0x1c68>
    3c48:	fffc0c13          	addi	x24,x24,-1
    3c4c:	fffb0b13          	addi	x22,x22,-1
    3c50:	e85ff06f          	jal	x0,3ad4 <_vfprintf_r+0x1bf0>
    3c54:	0c410613          	addi	x12,x2,196
    3c58:	00048593          	addi	x11,x9,0
    3c5c:	000b8513          	addi	x10,x23,0
    3c60:	515000ef          	jal	x1,4974 <__sprint_r>
    3c64:	90051e63          	bne	x10,x0,2d80 <_vfprintf_r+0xe9c>
    3c68:	000127b7          	lui	x15,0x12
    3c6c:	0cc12603          	lw	x12,204(x2)
    3c70:	00098693          	addi	x13,x19,0
    3c74:	36078893          	addi	x17,x15,864 # 12360 <zeroes.0>
    3c78:	01000713          	addi	x14,x0,16
    3c7c:	00700813          	addi	x16,x0,7
    3c80:	e79ff06f          	jal	x0,3af8 <_vfprintf_r+0x1c14>
    3c84:	0c410613          	addi	x12,x2,196
    3c88:	00048593          	addi	x11,x9,0
    3c8c:	000b8513          	addi	x10,x23,0
    3c90:	4e5000ef          	jal	x1,4974 <__sprint_r>
    3c94:	8e051663          	bne	x10,x0,2d80 <_vfprintf_r+0xe9c>
    3c98:	000127b7          	lui	x15,0x12
    3c9c:	000c4583          	lbu	x11,0(x24)
    3ca0:	0cc12603          	lw	x12,204(x2)
    3ca4:	00098693          	addi	x13,x19,0
    3ca8:	36078893          	addi	x17,x15,864 # 12360 <zeroes.0>
    3cac:	01000713          	addi	x14,x0,16
    3cb0:	00700813          	addi	x16,x0,7
    3cb4:	e81ff06f          	jal	x0,3b34 <_vfprintf_r+0x1c50>
    3cb8:	04012783          	lw	x15,64(x2)
    3cbc:	04412583          	lw	x11,68(x2)
    3cc0:	00000d13          	addi	x26,x0,0
    3cc4:	40fc0c33          	sub	x24,x24,x15
    3cc8:	00078613          	addi	x12,x15,0
    3ccc:	000c0513          	addi	x10,x24,0
    3cd0:	050030ef          	jal	x1,6d20 <strncpy>
    3cd4:	00144783          	lbu	x15,1(x8)
    3cd8:	00a00613          	addi	x12,x0,10
    3cdc:	00000693          	addi	x13,x0,0
    3ce0:	00f037b3          	sltu	x15,x0,x15
    3ce4:	000b0513          	addi	x10,x22,0
    3ce8:	00090593          	addi	x11,x18,0
    3cec:	00f40433          	add	x8,x8,x15
    3cf0:	1bc080ef          	jal	x1,beac <__udivdi3>
    3cf4:	a61ff06f          	jal	x0,3754 <_vfprintf_r+0x1870>
    3cf8:	0c410613          	addi	x12,x2,196
    3cfc:	00048593          	addi	x11,x9,0
    3d00:	000b8513          	addi	x10,x23,0
    3d04:	471000ef          	jal	x1,4974 <__sprint_r>
    3d08:	00050463          	beq	x10,x0,3d10 <_vfprintf_r+0x1e2c>
    3d0c:	874ff06f          	jal	x0,2d80 <_vfprintf_r+0xe9c>
    3d10:	0ac12503          	lw	x10,172(x2)
    3d14:	0cc12603          	lw	x12,204(x2)
    3d18:	00098413          	addi	x8,x19,0
    3d1c:	aedff06f          	jal	x0,3808 <_vfprintf_r+0x1924>
    3d20:	000127b7          	lui	x15,0x12
    3d24:	ed478d13          	addi	x26,x15,-300 # 11ed4 <__clzsi2+0x2e4>
    3d28:	be1ff06f          	jal	x0,3908 <_vfprintf_r+0x1a24>
    3d2c:	0c410613          	addi	x12,x2,196
    3d30:	00048593          	addi	x11,x9,0
    3d34:	000b8513          	addi	x10,x23,0
    3d38:	43d000ef          	jal	x1,4974 <__sprint_r>
    3d3c:	00050463          	beq	x10,x0,3d44 <_vfprintf_r+0x1e60>
    3d40:	840ff06f          	jal	x0,2d80 <_vfprintf_r+0xe9c>
    3d44:	0cc12603          	lw	x12,204(x2)
    3d48:	00098413          	addi	x8,x19,0
    3d4c:	a84ff06f          	jal	x0,2fd0 <_vfprintf_r+0x10ec>
    3d50:	00600b13          	addi	x22,x0,6
    3d54:	e34ff06f          	jal	x0,3388 <_vfprintf_r+0x14a4>
    3d58:	00c12783          	lw	x15,12(x2)
    3d5c:	00412703          	lw	x14,4(x2)
    3d60:	0007a783          	lw	x15,0(x15)
    3d64:	00e79023          	sh	x14,0(x15)
    3d68:	bc5fe06f          	jal	x0,292c <_vfprintf_r+0xa48>
    3d6c:	0ff77b13          	andi	x22,x14,255
    3d70:	00000813          	addi	x16,x0,0
    3d74:	00100793          	addi	x15,x0,1
    3d78:	e50fe06f          	jal	x0,23c8 <_vfprintf_r+0x4e4>
    3d7c:	01871b13          	slli	x22,x14,0x18
    3d80:	418b5b13          	srai	x22,x22,0x18
    3d84:	41fb5813          	srai	x16,x22,0x1f
    3d88:	00080793          	addi	x15,x16,0
    3d8c:	db8fe06f          	jal	x0,2344 <_vfprintf_r+0x460>
    3d90:	0ff77b13          	andi	x22,x14,255
    3d94:	00000813          	addi	x16,x0,0
    3d98:	d60ff06f          	jal	x0,32f8 <_vfprintf_r+0x1414>
    3d9c:	0ff77b13          	andi	x22,x14,255
    3da0:	00000813          	addi	x16,x0,0
    3da4:	e1cfe06f          	jal	x0,23c0 <_vfprintf_r+0x4dc>
    3da8:	02d00793          	addi	x15,x0,45
    3dac:	0af103a3          	sb	x15,167(x2)
    3db0:	02d00713          	addi	x14,x0,45
    3db4:	c69ff06f          	jal	x0,3a1c <_vfprintf_r+0x1b38>
    3db8:	02412503          	lw	x10,36(x2)
    3dbc:	0c410613          	addi	x12,x2,196
    3dc0:	00048593          	addi	x11,x9,0
    3dc4:	3b1000ef          	jal	x1,4974 <__sprint_r>
    3dc8:	c6cfe06f          	jal	x0,2234 <_vfprintf_r+0x350>
    3dcc:	0c410613          	addi	x12,x2,196
    3dd0:	00048593          	addi	x11,x9,0
    3dd4:	000b8513          	addi	x10,x23,0
    3dd8:	39d000ef          	jal	x1,4974 <__sprint_r>
    3ddc:	00050463          	beq	x10,x0,3de4 <_vfprintf_r+0x1f00>
    3de0:	fa1fe06f          	jal	x0,2d80 <_vfprintf_r+0xe9c>
    3de4:	0ac12503          	lw	x10,172(x2)
    3de8:	0cc12603          	lw	x12,204(x2)
    3dec:	0c812703          	lw	x14,200(x2)
    3df0:	00098413          	addi	x8,x19,0
    3df4:	b85ff06f          	jal	x0,3978 <_vfprintf_r+0x1a94>
    3df8:	01450733          	add	x14,x10,x20
    3dfc:	04700613          	addi	x12,x0,71
    3e00:	08010593          	addi	x11,x2,128
    3e04:	000b0513          	addi	x10,x22,0
    3e08:	00e12e23          	sw	x14,28(x2)
    3e0c:	00c12c23          	sw	x12,24(x2)
    3e10:	01112a23          	sw	x17,20(x2)
    3e14:	09f12823          	sw	x31,144(x2)
    3e18:	09e12a23          	sw	x30,148(x2)
    3e1c:	09d12c23          	sw	x29,152(x2)
    3e20:	09812e23          	sw	x24,156(x2)
    3e24:	08012023          	sw	x0,128(x2)
    3e28:	08012223          	sw	x0,132(x2)
    3e2c:	08012423          	sw	x0,136(x2)
    3e30:	08012623          	sw	x0,140(x2)
    3e34:	4450a0ef          	jal	x1,ea78 <__eqtf2>
    3e38:	01412883          	lw	x17,20(x2)
    3e3c:	01812603          	lw	x12,24(x2)
    3e40:	01c12703          	lw	x14,28(x2)
    3e44:	56050a63          	beq	x10,x0,43b8 <_vfprintf_r+0x24d4>
    3e48:	0bc12783          	lw	x15,188(x2)
    3e4c:	00e7fe63          	bgeu	x15,x14,3e68 <_vfprintf_r+0x1f84>
    3e50:	03000593          	addi	x11,x0,48
    3e54:	00178693          	addi	x13,x15,1
    3e58:	0ad12e23          	sw	x13,188(x2)
    3e5c:	00b78023          	sb	x11,0(x15)
    3e60:	0bc12783          	lw	x15,188(x2)
    3e64:	fee7e8e3          	bltu	x15,x14,3e54 <_vfprintf_r+0x1f70>
    3e68:	0ac12703          	lw	x14,172(x2)
    3e6c:	00e12a23          	sw	x14,20(x2)
    3e70:	41a787b3          	sub	x15,x15,x26
    3e74:	04700713          	addi	x14,x0,71
    3e78:	00f12c23          	sw	x15,24(x2)
    3e7c:	eae60663          	beq	x12,x14,3528 <_vfprintf_r+0x1644>
    3e80:	04600713          	addi	x14,x0,70
    3e84:	5ce60a63          	beq	x12,x14,4458 <_vfprintf_r+0x2574>
    3e88:	01412783          	lw	x15,20(x2)
    3e8c:	fff78a13          	addi	x20,x15,-1
    3e90:	eb4ff06f          	jal	x0,3544 <_vfprintf_r+0x1660>
    3e94:	001a0693          	addi	x13,x20,1
    3e98:	00200613          	addi	x12,x0,2
    3e9c:	09010b13          	addi	x22,x2,144
    3ea0:	0ac10713          	addi	x14,x2,172
    3ea4:	000b0593          	addi	x11,x22,0
    3ea8:	0bc10813          	addi	x16,x2,188
    3eac:	0b010793          	addi	x15,x2,176
    3eb0:	000b8513          	addi	x10,x23,0
    3eb4:	05112623          	sw	x17,76(x2)
    3eb8:	02d12023          	sw	x13,32(x2)
    3ebc:	09f12823          	sw	x31,144(x2)
    3ec0:	01f12e23          	sw	x31,28(x2)
    3ec4:	09e12a23          	sw	x30,148(x2)
    3ec8:	01e12c23          	sw	x30,24(x2)
    3ecc:	09d12c23          	sw	x29,152(x2)
    3ed0:	01d12a23          	sw	x29,20(x2)
    3ed4:	09812e23          	sw	x24,156(x2)
    3ed8:	620030ef          	jal	x1,74f8 <_ldtoa_r>
    3edc:	04c12883          	lw	x17,76(x2)
    3ee0:	02012683          	lw	x13,32(x2)
    3ee4:	04600593          	addi	x11,x0,70
    3ee8:	fdf8f613          	andi	x12,x17,-33
    3eec:	01412e83          	lw	x29,20(x2)
    3ef0:	01812f03          	lw	x30,24(x2)
    3ef4:	01c12f83          	lw	x31,28(x2)
    3ef8:	00050d13          	addi	x26,x10,0
    3efc:	00d50733          	add	x14,x10,x13
    3f00:	04b618e3          	bne	x12,x11,4750 <_vfprintf_r+0x286c>
    3f04:	000d4503          	lbu	x10,0(x26)
    3f08:	03000593          	addi	x11,x0,48
    3f0c:	4cb50463          	beq	x10,x11,43d4 <_vfprintf_r+0x24f0>
    3f10:	0ac12683          	lw	x13,172(x2)
    3f14:	08010593          	addi	x11,x2,128
    3f18:	00d70733          	add	x14,x14,x13
    3f1c:	ee9ff06f          	jal	x0,3e04 <_vfprintf_r+0x1f20>
    3f20:	09010b13          	addi	x22,x2,144
    3f24:	08010593          	addi	x11,x2,128
    3f28:	0ac10613          	addi	x12,x2,172
    3f2c:	000b0513          	addi	x10,x22,0
    3f30:	05112423          	sw	x17,72(x2)
    3f34:	09f12023          	sw	x31,128(x2)
    3f38:	09e12223          	sw	x30,132(x2)
    3f3c:	09d12423          	sw	x29,136(x2)
    3f40:	00b12a23          	sw	x11,20(x2)
    3f44:	09812623          	sw	x24,140(x2)
    3f48:	42c030ef          	jal	x1,7374 <frexpl>
    3f4c:	09012703          	lw	x14,144(x2)
    3f50:	01412583          	lw	x11,20(x2)
    3f54:	07010613          	addi	x12,x2,112
    3f58:	08e12023          	sw	x14,128(x2)
    3f5c:	09412703          	lw	x14,148(x2)
    3f60:	000b0513          	addi	x10,x22,0
    3f64:	06012823          	sw	x0,112(x2)
    3f68:	08e12223          	sw	x14,132(x2)
    3f6c:	09812703          	lw	x14,152(x2)
    3f70:	06012a23          	sw	x0,116(x2)
    3f74:	06012c23          	sw	x0,120(x2)
    3f78:	08e12423          	sw	x14,136(x2)
    3f7c:	09c12703          	lw	x14,156(x2)
    3f80:	08e12623          	sw	x14,140(x2)
    3f84:	3ffc0737          	lui	x14,0x3ffc0
    3f88:	06e12e23          	sw	x14,124(x2)
    3f8c:	6190a0ef          	jal	x1,eda4 <__multf3>
    3f90:	01412583          	lw	x11,20(x2)
    3f94:	09012f03          	lw	x30,144(x2)
    3f98:	09412e83          	lw	x29,148(x2)
    3f9c:	09812803          	lw	x16,152(x2)
    3fa0:	09c12603          	lw	x12,156(x2)
    3fa4:	000b0513          	addi	x10,x22,0
    3fa8:	02b12e23          	sw	x11,60(x2)
    3fac:	03e12023          	sw	x30,32(x2)
    3fb0:	01d12e23          	sw	x29,28(x2)
    3fb4:	01012c23          	sw	x16,24(x2)
    3fb8:	00c12a23          	sw	x12,20(x2)
    3fbc:	08012023          	sw	x0,128(x2)
    3fc0:	08012223          	sw	x0,132(x2)
    3fc4:	08012423          	sw	x0,136(x2)
    3fc8:	08012623          	sw	x0,140(x2)
    3fcc:	2ad0a0ef          	jal	x1,ea78 <__eqtf2>
    3fd0:	01412603          	lw	x12,20(x2)
    3fd4:	01812803          	lw	x16,24(x2)
    3fd8:	01c12e83          	lw	x29,28(x2)
    3fdc:	02012f03          	lw	x30,32(x2)
    3fe0:	03c12583          	lw	x11,60(x2)
    3fe4:	04812883          	lw	x17,72(x2)
    3fe8:	00051663          	bne	x10,x0,3ff4 <_vfprintf_r+0x2110>
    3fec:	00100713          	addi	x14,x0,1
    3ff0:	0ae12623          	sw	x14,172(x2)
    3ff4:	06100713          	addi	x14,x0,97
    3ff8:	6ce88263          	beq	x17,x14,46bc <_vfprintf_r+0x27d8>
    3ffc:	00012737          	lui	x14,0x12
    4000:	ef870793          	addi	x15,x14,-264 # 11ef8 <__clzsi2+0x308>
    4004:	00f12a23          	sw	x15,20(x2)
    4008:	01212c23          	sw	x18,24(x2)
    400c:	03912e23          	sw	x25,60(x2)
    4010:	04812423          	sw	x8,72(x2)
    4014:	000d0913          	addi	x18,x26,0
    4018:	05712623          	sw	x23,76(x2)
    401c:	04912823          	sw	x9,80(x2)
    4020:	05a12a23          	sw	x26,84(x2)
    4024:	01412483          	lw	x9,20(x2)
    4028:	fffa0a13          	addi	x20,x20,-1
    402c:	01112e23          	sw	x17,28(x2)
    4030:	03b12023          	sw	x27,32(x2)
    4034:	000f0b93          	addi	x23,x30,0
    4038:	000e8c13          	addi	x24,x29,0
    403c:	00080c93          	addi	x25,x16,0
    4040:	00060d13          	addi	x26,x12,0
    4044:	00058413          	addi	x8,x11,0
    4048:	03c0006f          	jal	x0,4084 <_vfprintf_r+0x21a0>
    404c:	00040593          	addi	x11,x8,0
    4050:	000b0513          	addi	x10,x22,0
    4054:	09712823          	sw	x23,144(x2)
    4058:	09812a23          	sw	x24,148(x2)
    405c:	09912c23          	sw	x25,152(x2)
    4060:	09a12e23          	sw	x26,156(x2)
    4064:	08012023          	sw	x0,128(x2)
    4068:	08012223          	sw	x0,132(x2)
    406c:	08012423          	sw	x0,136(x2)
    4070:	08012623          	sw	x0,140(x2)
    4074:	fffa0d93          	addi	x27,x20,-1
    4078:	2010a0ef          	jal	x1,ea78 <__eqtf2>
    407c:	5e050463          	beq	x10,x0,4664 <_vfprintf_r+0x2780>
    4080:	000d8a13          	addi	x20,x27,0
    4084:	400307b7          	lui	x15,0x40030
    4088:	07010613          	addi	x12,x2,112
    408c:	00040593          	addi	x11,x8,0
    4090:	000b0513          	addi	x10,x22,0
    4094:	06f12e23          	sw	x15,124(x2)
    4098:	09712023          	sw	x23,128(x2)
    409c:	09812223          	sw	x24,132(x2)
    40a0:	09912423          	sw	x25,136(x2)
    40a4:	09a12623          	sw	x26,140(x2)
    40a8:	06012823          	sw	x0,112(x2)
    40ac:	06012a23          	sw	x0,116(x2)
    40b0:	06012c23          	sw	x0,120(x2)
    40b4:	4f10a0ef          	jal	x1,eda4 <__multf3>
    40b8:	000b0513          	addi	x10,x22,0
    40bc:	6080d0ef          	jal	x1,116c4 <__fixtfsi>
    40c0:	00050593          	addi	x11,x10,0
    40c4:	00050d93          	addi	x27,x10,0
    40c8:	000b0513          	addi	x10,x22,0
    40cc:	09012d03          	lw	x26,144(x2)
    40d0:	09412c83          	lw	x25,148(x2)
    40d4:	09812c03          	lw	x24,152(x2)
    40d8:	09c12b83          	lw	x23,156(x2)
    40dc:	6e00d0ef          	jal	x1,117bc <__floatsitf>
    40e0:	09012683          	lw	x13,144(x2)
    40e4:	06010613          	addi	x12,x2,96
    40e8:	07010593          	addi	x11,x2,112
    40ec:	06d12023          	sw	x13,96(x2)
    40f0:	09412683          	lw	x13,148(x2)
    40f4:	00040513          	addi	x10,x8,0
    40f8:	07a12823          	sw	x26,112(x2)
    40fc:	06d12223          	sw	x13,100(x2)
    4100:	09812683          	lw	x13,152(x2)
    4104:	07912a23          	sw	x25,116(x2)
    4108:	07812c23          	sw	x24,120(x2)
    410c:	06d12423          	sw	x13,104(x2)
    4110:	09c12683          	lw	x13,156(x2)
    4114:	07712e23          	sw	x23,124(x2)
    4118:	06d12623          	sw	x13,108(x2)
    411c:	03c0c0ef          	jal	x1,10158 <__subtf3>
    4120:	01b486b3          	add	x13,x9,x27
    4124:	0006c683          	lbu	x13,0(x13)
    4128:	00090f93          	addi	x31,x18,0
    412c:	00190913          	addi	x18,x18,1
    4130:	08012b83          	lw	x23,128(x2)
    4134:	08412c03          	lw	x24,132(x2)
    4138:	08812c83          	lw	x25,136(x2)
    413c:	08c12d03          	lw	x26,140(x2)
    4140:	fff00793          	addi	x15,x0,-1
    4144:	fed90fa3          	sb	x13,-1(x18)
    4148:	f0fa12e3          	bne	x20,x15,404c <_vfprintf_r+0x2168>
    414c:	000b8f13          	addi	x30,x23,0
    4150:	000c0e93          	addi	x29,x24,0
    4154:	000c8813          	addi	x16,x25,0
    4158:	000d0613          	addi	x12,x26,0
    415c:	00040593          	addi	x11,x8,0
    4160:	3ffe0a37          	lui	x20,0x3ffe0
    4164:	000b0513          	addi	x10,x22,0
    4168:	05f12e23          	sw	x31,92(x2)
    416c:	05b12c23          	sw	x27,88(x2)
    4170:	05012483          	lw	x9,80(x2)
    4174:	02012d83          	lw	x27,32(x2)
    4178:	04c12b83          	lw	x23,76(x2)
    417c:	03c12c83          	lw	x25,60(x2)
    4180:	04812403          	lw	x8,72(x2)
    4184:	09e12823          	sw	x30,144(x2)
    4188:	05e12823          	sw	x30,80(x2)
    418c:	09d12a23          	sw	x29,148(x2)
    4190:	05d12623          	sw	x29,76(x2)
    4194:	09012c23          	sw	x16,152(x2)
    4198:	05012423          	sw	x16,72(x2)
    419c:	08c12e23          	sw	x12,156(x2)
    41a0:	02c12e23          	sw	x12,60(x2)
    41a4:	08012023          	sw	x0,128(x2)
    41a8:	08012223          	sw	x0,132(x2)
    41ac:	08012423          	sw	x0,136(x2)
    41b0:	09412623          	sw	x20,140(x2)
    41b4:	02b12023          	sw	x11,32(x2)
    41b8:	18d0a0ef          	jal	x1,eb44 <__getf2>
    41bc:	00090c13          	addi	x24,x18,0
    41c0:	05412d03          	lw	x26,84(x2)
    41c4:	01812903          	lw	x18,24(x2)
    41c8:	01c12883          	lw	x17,28(x2)
    41cc:	05c12f83          	lw	x31,92(x2)
    41d0:	02a04663          	blt	x0,x10,41fc <_vfprintf_r+0x2318>
    41d4:	02012583          	lw	x11,32(x2)
    41d8:	000b0513          	addi	x10,x22,0
    41dc:	01f12c23          	sw	x31,24(x2)
    41e0:	0990a0ef          	jal	x1,ea78 <__eqtf2>
    41e4:	01c12883          	lw	x17,28(x2)
    41e8:	04051e63          	bne	x10,x0,4244 <_vfprintf_r+0x2360>
    41ec:	05812783          	lw	x15,88(x2)
    41f0:	01812f83          	lw	x31,24(x2)
    41f4:	0017f693          	andi	x13,x15,1
    41f8:	04068663          	beq	x13,x0,4244 <_vfprintf_r+0x2360>
    41fc:	01412783          	lw	x15,20(x2)
    4200:	0bf12e23          	sw	x31,188(x2)
    4204:	fffc4603          	lbu	x12,-1(x24)
    4208:	00f7c583          	lbu	x11,15(x15) # 4003000f <__heap_end+0x3fc3000f>
    420c:	000c0693          	addi	x13,x24,0
    4210:	02b61063          	bne	x12,x11,4230 <_vfprintf_r+0x234c>
    4214:	03000513          	addi	x10,x0,48
    4218:	fea68fa3          	sb	x10,-1(x13)
    421c:	0bc12683          	lw	x13,188(x2)
    4220:	fff68793          	addi	x15,x13,-1
    4224:	0af12e23          	sw	x15,188(x2)
    4228:	fff6c603          	lbu	x12,-1(x13)
    422c:	fec586e3          	beq	x11,x12,4218 <_vfprintf_r+0x2334>
    4230:	00160593          	addi	x11,x12,1
    4234:	03900513          	addi	x10,x0,57
    4238:	0ff5f593          	andi	x11,x11,255
    423c:	04a60463          	beq	x12,x10,4284 <_vfprintf_r+0x23a0>
    4240:	feb68fa3          	sb	x11,-1(x13)
    4244:	0ac12783          	lw	x15,172(x2)
    4248:	41ac0733          	sub	x14,x24,x26
    424c:	06100613          	addi	x12,x0,97
    4250:	fff78a13          	addi	x20,x15,-1
    4254:	00f12a23          	sw	x15,20(x2)
    4258:	00e12c23          	sw	x14,24(x2)
    425c:	0b412623          	sw	x20,172(x2)
    4260:	07000693          	addi	x13,x0,112
    4264:	00c88663          	beq	x17,x12,4270 <_vfprintf_r+0x238c>
    4268:	05000693          	addi	x13,x0,80
    426c:	04100893          	addi	x17,x0,65
    4270:	00100613          	addi	x12,x0,1
    4274:	adcff06f          	jal	x0,3550 <_vfprintf_r+0x166c>
    4278:	000a0693          	addi	x13,x20,0 # 3ffe0000 <__heap_end+0x3fbe0000>
    427c:	00300613          	addi	x12,x0,3
    4280:	c1dff06f          	jal	x0,3e9c <_vfprintf_r+0x1fb8>
    4284:	01412783          	lw	x15,20(x2)
    4288:	00a7c583          	lbu	x11,10(x15)
    428c:	fb5ff06f          	jal	x0,4240 <_vfprintf_r+0x235c>
    4290:	0a714703          	lbu	x14,167(x2)
    4294:	04812d83          	lw	x27,72(x2)
    4298:	00000a13          	addi	x20,x0,0
    429c:	00070463          	beq	x14,x0,42a4 <_vfprintf_r+0x23c0>
    42a0:	8f0fe06f          	jal	x0,2390 <_vfprintf_r+0x4ac>
    42a4:	e65fd06f          	jal	x0,2108 <_vfprintf_r+0x224>
    42a8:	01812783          	lw	x15,24(x2)
    42ac:	01412703          	lw	x14,20(x2)
    42b0:	1cf74e63          	blt	x14,x15,448c <_vfprintf_r+0x25a8>
    42b4:	01412783          	lw	x15,20(x2)
    42b8:	001df713          	andi	x14,x27,1
    42bc:	00078b13          	addi	x22,x15,0
    42c0:	00070663          	beq	x14,x0,42cc <_vfprintf_r+0x23e8>
    42c4:	02812703          	lw	x14,40(x2)
    42c8:	00e78b33          	add	x22,x15,x14
    42cc:	400dfe13          	andi	x28,x27,1024
    42d0:	000e0663          	beq	x28,x0,42dc <_vfprintf_r+0x23f8>
    42d4:	01412783          	lw	x15,20(x2)
    42d8:	30f04263          	blt	x0,x15,45dc <_vfprintf_r+0x26f8>
    42dc:	fffb4693          	xori	x13,x22,-1
    42e0:	41f6d693          	srai	x13,x13,0x1f
    42e4:	00db7c33          	and	x24,x22,x13
    42e8:	06700893          	addi	x17,x0,103
    42ec:	02012023          	sw	x0,32(x2)
    42f0:	00012e23          	sw	x0,28(x2)
    42f4:	b6cff06f          	jal	x0,3660 <_vfprintf_r+0x177c>
    42f8:	0c410613          	addi	x12,x2,196
    42fc:	00048593          	addi	x11,x9,0
    4300:	000b8513          	addi	x10,x23,0
    4304:	670000ef          	jal	x1,4974 <__sprint_r>
    4308:	00050463          	beq	x10,x0,4310 <_vfprintf_r+0x242c>
    430c:	a75fe06f          	jal	x0,2d80 <_vfprintf_r+0xe9c>
    4310:	000c4583          	lbu	x11,0(x24)
    4314:	000127b7          	lui	x15,0x12
    4318:	0cc12603          	lw	x12,204(x2)
    431c:	00098693          	addi	x13,x19,0
    4320:	36078893          	addi	x17,x15,864 # 12360 <zeroes.0>
    4324:	01000713          	addi	x14,x0,16
    4328:	00700813          	addi	x16,x0,7
    432c:	00bc8cb3          	add	x25,x25,x11
    4330:	81dff06f          	jal	x0,3b4c <_vfprintf_r+0x1c68>
    4334:	00900793          	addi	x15,x0,9
    4338:	c167ee63          	bltu	x15,x22,3754 <_vfprintf_r+0x1870>
    433c:	c68ff06f          	jal	x0,37a4 <_vfprintf_r+0x18c0>
    4340:	02d00793          	addi	x15,x0,45
    4344:	0af103a3          	sb	x15,167(x2)
    4348:	02d00713          	addi	x14,x0,45
    434c:	dacff06f          	jal	x0,38f8 <_vfprintf_r+0x1a14>
    4350:	0a714703          	lbu	x14,167(x2)
    4354:	01012623          	sw	x16,12(x2)
    4358:	02012023          	sw	x0,32(x2)
    435c:	00012e23          	sw	x0,28(x2)
    4360:	00012a23          	sw	x0,20(x2)
    4364:	000a0c13          	addi	x24,x20,0
    4368:	000a0b13          	addi	x22,x20,0
    436c:	00000a13          	addi	x20,x0,0
    4370:	00070463          	beq	x14,x0,4378 <_vfprintf_r+0x2494>
    4374:	81cfe06f          	jal	x0,2390 <_vfprintf_r+0x4ac>
    4378:	d91fd06f          	jal	x0,2108 <_vfprintf_r+0x224>
    437c:	000127b7          	lui	x15,0x12
    4380:	ee078d13          	addi	x26,x15,-288 # 11ee0 <__clzsi2+0x2f0>
    4384:	d84ff06f          	jal	x0,3908 <_vfprintf_r+0x1a24>
    4388:	0c410613          	addi	x12,x2,196
    438c:	00048593          	addi	x11,x9,0
    4390:	000b8513          	addi	x10,x23,0
    4394:	5e0000ef          	jal	x1,4974 <__sprint_r>
    4398:	00050463          	beq	x10,x0,43a0 <_vfprintf_r+0x24bc>
    439c:	9e5fe06f          	jal	x0,2d80 <_vfprintf_r+0xe9c>
    43a0:	0ac12583          	lw	x11,172(x2)
    43a4:	01812783          	lw	x15,24(x2)
    43a8:	0cc12603          	lw	x12,204(x2)
    43ac:	00098413          	addi	x8,x19,0
    43b0:	40b785b3          	sub	x11,x15,x11
    43b4:	ca1fe06f          	jal	x0,3054 <_vfprintf_r+0x1170>
    43b8:	0ac12783          	lw	x15,172(x2)
    43bc:	00f12a23          	sw	x15,20(x2)
    43c0:	00070793          	addi	x15,x14,0
    43c4:	aadff06f          	jal	x0,3e70 <_vfprintf_r+0x1f8c>
    43c8:	fff00793          	addi	x15,x0,-1
    43cc:	00f12223          	sw	x15,4(x2)
    43d0:	e99fd06f          	jal	x0,2268 <_vfprintf_r+0x384>
    43d4:	08010593          	addi	x11,x2,128
    43d8:	000b0513          	addi	x10,x22,0
    43dc:	04e12c23          	sw	x14,88(x2)
    43e0:	04c12a23          	sw	x12,84(x2)
    43e4:	05112823          	sw	x17,80(x2)
    43e8:	04d12623          	sw	x13,76(x2)
    43ec:	09f12823          	sw	x31,144(x2)
    43f0:	03f12023          	sw	x31,32(x2)
    43f4:	09e12a23          	sw	x30,148(x2)
    43f8:	01e12e23          	sw	x30,28(x2)
    43fc:	09d12c23          	sw	x29,152(x2)
    4400:	01d12c23          	sw	x29,24(x2)
    4404:	00b12a23          	sw	x11,20(x2)
    4408:	09812e23          	sw	x24,156(x2)
    440c:	08012023          	sw	x0,128(x2)
    4410:	08012223          	sw	x0,132(x2)
    4414:	08012423          	sw	x0,136(x2)
    4418:	08012623          	sw	x0,140(x2)
    441c:	65c0a0ef          	jal	x1,ea78 <__eqtf2>
    4420:	01412583          	lw	x11,20(x2)
    4424:	01812e83          	lw	x29,24(x2)
    4428:	01c12f03          	lw	x30,28(x2)
    442c:	02012f83          	lw	x31,32(x2)
    4430:	04c12683          	lw	x13,76(x2)
    4434:	05012883          	lw	x17,80(x2)
    4438:	05412603          	lw	x12,84(x2)
    443c:	05812703          	lw	x14,88(x2)
    4440:	28051663          	bne	x10,x0,46cc <_vfprintf_r+0x27e8>
    4444:	0ac12783          	lw	x15,172(x2)
    4448:	00f70733          	add	x14,x14,x15
    444c:	00f12a23          	sw	x15,20(x2)
    4450:	41a707b3          	sub	x15,x14,x26
    4454:	00f12c23          	sw	x15,24(x2)
    4458:	01412783          	lw	x15,20(x2)
    445c:	001df713          	andi	x14,x27,1
    4460:	01476733          	or	x14,x14,x20
    4464:	26f05e63          	bge	x0,x15,46e0 <_vfprintf_r+0x27fc>
    4468:	24071063          	bne	x14,x0,46a8 <_vfprintf_r+0x27c4>
    446c:	01412b03          	lw	x22,20(x2)
    4470:	06600893          	addi	x17,x0,102
    4474:	400dfe13          	andi	x28,x27,1024
    4478:	160e1463          	bne	x28,x0,45e0 <_vfprintf_r+0x26fc>
    447c:	fffb4693          	xori	x13,x22,-1
    4480:	41f6d693          	srai	x13,x13,0x1f
    4484:	00db7c33          	and	x24,x22,x13
    4488:	e65ff06f          	jal	x0,42ec <_vfprintf_r+0x2408>
    448c:	01812783          	lw	x15,24(x2)
    4490:	02812703          	lw	x14,40(x2)
    4494:	06700893          	addi	x17,x0,103
    4498:	00e78b33          	add	x22,x15,x14
    449c:	01412783          	lw	x15,20(x2)
    44a0:	fcf04ae3          	blt	x0,x15,4474 <_vfprintf_r+0x2590>
    44a4:	40fb0f33          	sub	x30,x22,x15
    44a8:	001f0b13          	addi	x22,x30,1
    44ac:	fffb4693          	xori	x13,x22,-1
    44b0:	41f6d693          	srai	x13,x13,0x1f
    44b4:	00db7c33          	and	x24,x22,x13
    44b8:	e35ff06f          	jal	x0,42ec <_vfprintf_r+0x2408>
    44bc:	00012837          	lui	x16,0x12
    44c0:	ff000593          	addi	x11,x0,-16
    44c4:	40a00a33          	sub	x20,x0,x10
    44c8:	36080813          	addi	x16,x16,864 # 12360 <zeroes.0>
    44cc:	06b55e63          	bge	x10,x11,4548 <_vfprintf_r+0x2664>
    44d0:	01212a23          	sw	x18,20(x2)
    44d4:	01000b13          	addi	x22,x0,16
    44d8:	00700893          	addi	x17,x0,7
    44dc:	00080913          	addi	x18,x16,0
    44e0:	00c0006f          	jal	x0,44ec <_vfprintf_r+0x2608>
    44e4:	ff0a0a13          	addi	x20,x20,-16
    44e8:	054b5c63          	bge	x22,x20,4540 <_vfprintf_r+0x265c>
    44ec:	01060613          	addi	x12,x12,16
    44f0:	00170713          	addi	x14,x14,1
    44f4:	01242023          	sw	x18,0(x8)
    44f8:	01642223          	sw	x22,4(x8)
    44fc:	0cc12623          	sw	x12,204(x2)
    4500:	0ce12423          	sw	x14,200(x2)
    4504:	00840413          	addi	x8,x8,8
    4508:	fce8dee3          	bge	x17,x14,44e4 <_vfprintf_r+0x2600>
    450c:	0c410613          	addi	x12,x2,196
    4510:	00048593          	addi	x11,x9,0
    4514:	000b8513          	addi	x10,x23,0
    4518:	45c000ef          	jal	x1,4974 <__sprint_r>
    451c:	00050463          	beq	x10,x0,4524 <_vfprintf_r+0x2640>
    4520:	861fe06f          	jal	x0,2d80 <_vfprintf_r+0xe9c>
    4524:	0cc12603          	lw	x12,204(x2)
    4528:	0c812703          	lw	x14,200(x2)
    452c:	00098413          	addi	x8,x19,0
    4530:	00700893          	addi	x17,x0,7
    4534:	fb1ff06f          	jal	x0,44e4 <_vfprintf_r+0x2600>
    4538:	000d8613          	addi	x12,x27,0
    453c:	b18fe06f          	jal	x0,2854 <_vfprintf_r+0x970>
    4540:	00090813          	addi	x16,x18,0
    4544:	01412903          	lw	x18,20(x2)
    4548:	01460633          	add	x12,x12,x20
    454c:	00170713          	addi	x14,x14,1
    4550:	01042023          	sw	x16,0(x8)
    4554:	01442223          	sw	x20,4(x8)
    4558:	0cc12623          	sw	x12,204(x2)
    455c:	0ce12423          	sw	x14,200(x2)
    4560:	00700593          	addi	x11,x0,7
    4564:	aee5d463          	bge	x11,x14,384c <_vfprintf_r+0x1968>
    4568:	0c410613          	addi	x12,x2,196
    456c:	00048593          	addi	x11,x9,0
    4570:	000b8513          	addi	x10,x23,0
    4574:	400000ef          	jal	x1,4974 <__sprint_r>
    4578:	00050463          	beq	x10,x0,4580 <_vfprintf_r+0x269c>
    457c:	805fe06f          	jal	x0,2d80 <_vfprintf_r+0xe9c>
    4580:	0cc12603          	lw	x12,204(x2)
    4584:	0c812703          	lw	x14,200(x2)
    4588:	00098413          	addi	x8,x19,0
    458c:	bf0ff06f          	jal	x0,397c <_vfprintf_r+0x1a98>
    4590:	0b610693          	addi	x13,x2,182
    4594:	00061863          	bne	x12,x0,45a4 <_vfprintf_r+0x26c0>
    4598:	03000693          	addi	x13,x0,48
    459c:	0ad10b23          	sb	x13,182(x2)
    45a0:	0b710693          	addi	x13,x2,183
    45a4:	19010793          	addi	x15,x2,400
    45a8:	40f68633          	sub	x12,x13,x15
    45ac:	030a0713          	addi	x14,x20,48
    45b0:	0dd60793          	addi	x15,x12,221
    45b4:	00e68023          	sb	x14,0(x13)
    45b8:	02f12e23          	sw	x15,60(x2)
    45bc:	860ff06f          	jal	x0,361c <_vfprintf_r+0x1738>
    45c0:	00012423          	sw	x0,8(x2)
    45c4:	00600a13          	addi	x20,x0,6
    45c8:	f29fd06f          	jal	x0,24f0 <_vfprintf_r+0x60c>
    45cc:	001df713          	andi	x14,x27,1
    45d0:	00071463          	bne	x14,x0,45d8 <_vfprintf_r+0x26f4>
    45d4:	868ff06f          	jal	x0,363c <_vfprintf_r+0x1758>
    45d8:	85cff06f          	jal	x0,3634 <_vfprintf_r+0x1750>
    45dc:	06700893          	addi	x17,x0,103
    45e0:	03812603          	lw	x12,56(x2)
    45e4:	0ff00693          	addi	x13,x0,255
    45e8:	00064703          	lbu	x14,0(x12)
    45ec:	14d70c63          	beq	x14,x13,4744 <_vfprintf_r+0x2860>
    45f0:	01412783          	lw	x15,20(x2)
    45f4:	00000513          	addi	x10,x0,0
    45f8:	00000593          	addi	x11,x0,0
    45fc:	00f75e63          	bge	x14,x15,4618 <_vfprintf_r+0x2734>
    4600:	40e787b3          	sub	x15,x15,x14
    4604:	00164703          	lbu	x14,1(x12)
    4608:	04070863          	beq	x14,x0,4658 <_vfprintf_r+0x2774>
    460c:	00158593          	addi	x11,x11,1
    4610:	00160613          	addi	x12,x12,1
    4614:	fed714e3          	bne	x14,x13,45fc <_vfprintf_r+0x2718>
    4618:	02c12c23          	sw	x12,56(x2)
    461c:	00b12e23          	sw	x11,28(x2)
    4620:	02a12023          	sw	x10,32(x2)
    4624:	00f12a23          	sw	x15,20(x2)
    4628:	02012783          	lw	x15,32(x2)
    462c:	01c12703          	lw	x14,28(x2)
    4630:	04012583          	lw	x11,64(x2)
    4634:	05112623          	sw	x17,76(x2)
    4638:	00e78533          	add	x10,x15,x14
    463c:	4dc0d0ef          	jal	x1,11b18 <__mulsi3>
    4640:	01650b33          	add	x22,x10,x22
    4644:	fffb4693          	xori	x13,x22,-1
    4648:	41f6d693          	srai	x13,x13,0x1f
    464c:	04c12883          	lw	x17,76(x2)
    4650:	00db7c33          	and	x24,x22,x13
    4654:	80cff06f          	jal	x0,3660 <_vfprintf_r+0x177c>
    4658:	00064703          	lbu	x14,0(x12)
    465c:	00150513          	addi	x10,x10,1
    4660:	fb5ff06f          	jal	x0,4614 <_vfprintf_r+0x2730>
    4664:	00090c13          	addi	x24,x18,0
    4668:	001a0693          	addi	x13,x20,1
    466c:	01c12883          	lw	x17,28(x2)
    4670:	02012d83          	lw	x27,32(x2)
    4674:	03c12c83          	lw	x25,60(x2)
    4678:	04812403          	lw	x8,72(x2)
    467c:	01812903          	lw	x18,24(x2)
    4680:	04c12b83          	lw	x23,76(x2)
    4684:	05012483          	lw	x9,80(x2)
    4688:	05412d03          	lw	x26,84(x2)
    468c:	00dc06b3          	add	x13,x24,x13
    4690:	03000613          	addi	x12,x0,48
    4694:	ba0a48e3          	blt	x20,x0,4244 <_vfprintf_r+0x2360>
    4698:	001c0c13          	addi	x24,x24,1
    469c:	fecc0fa3          	sb	x12,-1(x24)
    46a0:	ff869ce3          	bne	x13,x24,4698 <_vfprintf_r+0x27b4>
    46a4:	ba1ff06f          	jal	x0,4244 <_vfprintf_r+0x2360>
    46a8:	02812703          	lw	x14,40(x2)
    46ac:	06600893          	addi	x17,x0,102
    46b0:	00ea0f33          	add	x30,x20,x14
    46b4:	00ff0b33          	add	x22,x30,x15
    46b8:	dbdff06f          	jal	x0,4474 <_vfprintf_r+0x2590>
    46bc:	00012737          	lui	x14,0x12
    46c0:	ee470793          	addi	x15,x14,-284 # 11ee4 <__clzsi2+0x2f4>
    46c4:	00f12a23          	sw	x15,20(x2)
    46c8:	941ff06f          	jal	x0,4008 <_vfprintf_r+0x2124>
    46cc:	00100513          	addi	x10,x0,1
    46d0:	40d506b3          	sub	x13,x10,x13
    46d4:	0ad12623          	sw	x13,172(x2)
    46d8:	00d70733          	add	x14,x14,x13
    46dc:	f28ff06f          	jal	x0,3e04 <_vfprintf_r+0x1f20>
    46e0:	00071a63          	bne	x14,x0,46f4 <_vfprintf_r+0x2810>
    46e4:	00100c13          	addi	x24,x0,1
    46e8:	06600893          	addi	x17,x0,102
    46ec:	00100b13          	addi	x22,x0,1
    46f0:	bfdff06f          	jal	x0,42ec <_vfprintf_r+0x2408>
    46f4:	02812783          	lw	x15,40(x2)
    46f8:	06600893          	addi	x17,x0,102
    46fc:	00178f13          	addi	x30,x15,1
    4700:	014f0b33          	add	x22,x30,x20
    4704:	fffb4693          	xori	x13,x22,-1
    4708:	41f6d693          	srai	x13,x13,0x1f
    470c:	00db7c33          	and	x24,x22,x13
    4710:	bddff06f          	jal	x0,42ec <_vfprintf_r+0x2408>
    4714:	00200793          	addi	x15,x0,2
    4718:	02f12e23          	sw	x15,60(x2)
    471c:	f01fe06f          	jal	x0,361c <_vfprintf_r+0x1738>
    4720:	00c12783          	lw	x15,12(x2)
    4724:	0007aa03          	lw	x20,0(x15)
    4728:	00478793          	addi	x15,x15,4
    472c:	000a5463          	bge	x20,x0,4734 <_vfprintf_r+0x2850>
    4730:	fff00a13          	addi	x20,x0,-1
    4734:	00194883          	lbu	x17,1(x18)
    4738:	00f12623          	sw	x15,12(x2)
    473c:	00068913          	addi	x18,x13,0
    4740:	949fd06f          	jal	x0,2088 <_vfprintf_r+0x1a4>
    4744:	02012023          	sw	x0,32(x2)
    4748:	00012e23          	sw	x0,28(x2)
    474c:	eddff06f          	jal	x0,4628 <_vfprintf_r+0x2744>
    4750:	04500613          	addi	x12,x0,69
    4754:	08010593          	addi	x11,x2,128
    4758:	eacff06f          	jal	x0,3e04 <_vfprintf_r+0x1f20>
    475c:	00c4d783          	lhu	x15,12(x9)
    4760:	0407e793          	ori	x15,x15,64
    4764:	00f49623          	sh	x15,12(x9)
    4768:	acdfd06f          	jal	x0,2234 <_vfprintf_r+0x350>

0000476c <vfprintf>:
    476c:	00050793          	addi	x15,x10,0
    4770:	f0c1a503          	lw	x10,-244(x3) # 1304c <_impure_ptr>
    4774:	00060693          	addi	x13,x12,0
    4778:	00058613          	addi	x12,x11,0
    477c:	00078593          	addi	x11,x15,0
    4780:	f64fd06f          	jal	x0,1ee4 <_vfprintf_r>

00004784 <__sbprintf>:
    4784:	b8010113          	addi	x2,x2,-1152
    4788:	00c59783          	lh	x15,12(x11)
    478c:	00e5d703          	lhu	x14,14(x11)
    4790:	46812c23          	sw	x8,1144(x2)
    4794:	00058413          	addi	x8,x11,0
    4798:	000105b7          	lui	x11,0x10
    479c:	ffd58593          	addi	x11,x11,-3 # fffd <__multf3+0x1259>
    47a0:	06442e03          	lw	x28,100(x8)
    47a4:	01c42303          	lw	x6,28(x8)
    47a8:	02442883          	lw	x17,36(x8)
    47ac:	01071713          	slli	x14,x14,0x10
    47b0:	00b7f7b3          	and	x15,x15,x11
    47b4:	00e7e7b3          	or	x15,x15,x14
    47b8:	40000813          	addi	x16,x0,1024
    47bc:	00f12a23          	sw	x15,20(x2)
    47c0:	00810593          	addi	x11,x2,8
    47c4:	07010793          	addi	x15,x2,112
    47c8:	46912a23          	sw	x9,1140(x2)
    47cc:	47212823          	sw	x18,1136(x2)
    47d0:	46112e23          	sw	x1,1148(x2)
    47d4:	00050913          	addi	x18,x10,0
    47d8:	07c12623          	sw	x28,108(x2)
    47dc:	02612223          	sw	x6,36(x2)
    47e0:	03112623          	sw	x17,44(x2)
    47e4:	00f12423          	sw	x15,8(x2)
    47e8:	00f12c23          	sw	x15,24(x2)
    47ec:	01012823          	sw	x16,16(x2)
    47f0:	01012e23          	sw	x16,28(x2)
    47f4:	02012023          	sw	x0,32(x2)
    47f8:	eecfd0ef          	jal	x1,1ee4 <_vfprintf_r>
    47fc:	00050493          	addi	x9,x10,0
    4800:	02055c63          	bge	x10,x0,4838 <__sbprintf+0xb4>
    4804:	01415783          	lhu	x15,20(x2)
    4808:	0407f793          	andi	x15,x15,64
    480c:	00078863          	beq	x15,x0,481c <__sbprintf+0x98>
    4810:	00c45783          	lhu	x15,12(x8)
    4814:	0407e793          	ori	x15,x15,64
    4818:	00f41623          	sh	x15,12(x8)
    481c:	47c12083          	lw	x1,1148(x2)
    4820:	47812403          	lw	x8,1144(x2)
    4824:	47012903          	lw	x18,1136(x2)
    4828:	00048513          	addi	x10,x9,0
    482c:	47412483          	lw	x9,1140(x2)
    4830:	48010113          	addi	x2,x2,1152
    4834:	00008067          	jalr	x0,0(x1)
    4838:	00810593          	addi	x11,x2,8
    483c:	00090513          	addi	x10,x18,0
    4840:	071010ef          	jal	x1,60b0 <_fflush_r>
    4844:	fc0500e3          	beq	x10,x0,4804 <__sbprintf+0x80>
    4848:	fff00493          	addi	x9,x0,-1
    484c:	fb9ff06f          	jal	x0,4804 <__sbprintf+0x80>

00004850 <__sprint_r.part.0>:
    4850:	0645a783          	lw	x15,100(x11)
    4854:	fd010113          	addi	x2,x2,-48
    4858:	01612823          	sw	x22,16(x2)
    485c:	02112623          	sw	x1,44(x2)
    4860:	01279713          	slli	x14,x15,0x12
    4864:	00060b13          	addi	x22,x12,0
    4868:	0e075863          	bge	x14,x0,4958 <__sprint_r.part.0+0x108>
    486c:	00862783          	lw	x15,8(x12)
    4870:	03212023          	sw	x18,32(x2)
    4874:	01312e23          	sw	x19,28(x2)
    4878:	01512a23          	sw	x21,20(x2)
    487c:	01712623          	sw	x23,12(x2)
    4880:	00058913          	addi	x18,x11,0
    4884:	00062b83          	lw	x23,0(x12)
    4888:	00050993          	addi	x19,x10,0
    488c:	fff00a93          	addi	x21,x0,-1
    4890:	0a078863          	beq	x15,x0,4940 <__sprint_r.part.0+0xf0>
    4894:	02812423          	sw	x8,40(x2)
    4898:	02912223          	sw	x9,36(x2)
    489c:	01412c23          	sw	x20,24(x2)
    48a0:	01812423          	sw	x24,8(x2)
    48a4:	004bac03          	lw	x24,4(x23)
    48a8:	000ba403          	lw	x8,0(x23)
    48ac:	002c5a13          	srli	x20,x24,0x2
    48b0:	060a0663          	beq	x20,x0,491c <__sprint_r.part.0+0xcc>
    48b4:	00000493          	addi	x9,x0,0
    48b8:	00c0006f          	jal	x0,48c4 <__sprint_r.part.0+0x74>
    48bc:	00440413          	addi	x8,x8,4
    48c0:	049a0c63          	beq	x20,x9,4918 <__sprint_r.part.0+0xc8>
    48c4:	00042583          	lw	x11,0(x8)
    48c8:	00090613          	addi	x12,x18,0
    48cc:	00098513          	addi	x10,x19,0
    48d0:	2e4020ef          	jal	x1,6bb4 <_fputwc_r>
    48d4:	00148493          	addi	x9,x9,1
    48d8:	ff5512e3          	bne	x10,x21,48bc <__sprint_r.part.0+0x6c>
    48dc:	02812403          	lw	x8,40(x2)
    48e0:	02412483          	lw	x9,36(x2)
    48e4:	02012903          	lw	x18,32(x2)
    48e8:	01c12983          	lw	x19,28(x2)
    48ec:	01812a03          	lw	x20,24(x2)
    48f0:	01412a83          	lw	x21,20(x2)
    48f4:	00c12b83          	lw	x23,12(x2)
    48f8:	00812c03          	lw	x24,8(x2)
    48fc:	fff00513          	addi	x10,x0,-1
    4900:	02c12083          	lw	x1,44(x2)
    4904:	000b2423          	sw	x0,8(x22)
    4908:	000b2223          	sw	x0,4(x22)
    490c:	01012b03          	lw	x22,16(x2)
    4910:	03010113          	addi	x2,x2,48
    4914:	00008067          	jalr	x0,0(x1)
    4918:	008b2783          	lw	x15,8(x22)
    491c:	ffcc7c13          	andi	x24,x24,-4
    4920:	418787b3          	sub	x15,x15,x24
    4924:	00fb2423          	sw	x15,8(x22)
    4928:	008b8b93          	addi	x23,x23,8
    492c:	f6079ce3          	bne	x15,x0,48a4 <__sprint_r.part.0+0x54>
    4930:	02812403          	lw	x8,40(x2)
    4934:	02412483          	lw	x9,36(x2)
    4938:	01812a03          	lw	x20,24(x2)
    493c:	00812c03          	lw	x24,8(x2)
    4940:	02012903          	lw	x18,32(x2)
    4944:	01c12983          	lw	x19,28(x2)
    4948:	01412a83          	lw	x21,20(x2)
    494c:	00c12b83          	lw	x23,12(x2)
    4950:	00000513          	addi	x10,x0,0
    4954:	fadff06f          	jal	x0,4900 <__sprint_r.part.0+0xb0>
    4958:	03d010ef          	jal	x1,6194 <__sfvwrite_r>
    495c:	02c12083          	lw	x1,44(x2)
    4960:	000b2423          	sw	x0,8(x22)
    4964:	000b2223          	sw	x0,4(x22)
    4968:	01012b03          	lw	x22,16(x2)
    496c:	03010113          	addi	x2,x2,48
    4970:	00008067          	jalr	x0,0(x1)

00004974 <__sprint_r>:
    4974:	00862703          	lw	x14,8(x12)
    4978:	00070463          	beq	x14,x0,4980 <__sprint_r+0xc>
    497c:	ed5ff06f          	jal	x0,4850 <__sprint_r.part.0>
    4980:	00062223          	sw	x0,4(x12)
    4984:	00000513          	addi	x10,x0,0
    4988:	00008067          	jalr	x0,0(x1)

0000498c <_vfiprintf_r>:
    498c:	ed010113          	addi	x2,x2,-304
    4990:	13212023          	sw	x18,288(x2)
    4994:	11312e23          	sw	x19,284(x2)
    4998:	11412c23          	sw	x20,280(x2)
    499c:	11812423          	sw	x24,264(x2)
    49a0:	12112623          	sw	x1,300(x2)
    49a4:	11612823          	sw	x22,272(x2)
    49a8:	00050a13          	addi	x20,x10,0
    49ac:	00058913          	addi	x18,x11,0
    49b0:	00060c13          	addi	x24,x12,0
    49b4:	00068993          	addi	x19,x13,0
    49b8:	00050863          	beq	x10,x0,49c8 <_vfiprintf_r+0x3c>
    49bc:	03452783          	lw	x15,52(x10)
    49c0:	00079463          	bne	x15,x0,49c8 <_vfiprintf_r+0x3c>
    49c4:	16c0106f          	jal	x0,5b30 <_vfiprintf_r+0x11a4>
    49c8:	00c91783          	lh	x15,12(x18)
    49cc:	01279713          	slli	x14,x15,0x12
    49d0:	02074663          	blt	x14,x0,49fc <_vfiprintf_r+0x70>
    49d4:	06492703          	lw	x14,100(x18)
    49d8:	00002637          	lui	x12,0x2
    49dc:	ffffe6b7          	lui	x13,0xffffe
    49e0:	00c7e7b3          	or	x15,x15,x12
    49e4:	fff68693          	addi	x13,x13,-1 # ffffdfff <__heap_end+0xffbfdfff>
    49e8:	01079793          	slli	x15,x15,0x10
    49ec:	4107d793          	srai	x15,x15,0x10
    49f0:	00d77733          	and	x14,x14,x13
    49f4:	00f91623          	sh	x15,12(x18)
    49f8:	06e92223          	sw	x14,100(x18)
    49fc:	0087f713          	andi	x14,x15,8
    4a00:	14070463          	beq	x14,x0,4b48 <_vfiprintf_r+0x1bc>
    4a04:	01092703          	lw	x14,16(x18)
    4a08:	14070063          	beq	x14,x0,4b48 <_vfiprintf_r+0x1bc>
    4a0c:	01a7f793          	andi	x15,x15,26
    4a10:	00a00713          	addi	x14,x0,10
    4a14:	14e78c63          	beq	x15,x14,4b6c <_vfiprintf_r+0x1e0>
    4a18:	000127b7          	lui	x15,0x12
    4a1c:	12912223          	sw	x9,292(x2)
    4a20:	11512a23          	sw	x21,276(x2)
    4a24:	04c10493          	addi	x9,x2,76
    4a28:	00000b13          	addi	x22,x0,0
    4a2c:	38078793          	addi	x15,x15,896 # 12380 <blanks.1+0x10>
    4a30:	00012ab7          	lui	x21,0x12
    4a34:	12812423          	sw	x8,296(x2)
    4a38:	11912223          	sw	x25,260(x2)
    4a3c:	11712623          	sw	x23,268(x2)
    4a40:	11a12023          	sw	x26,256(x2)
    4a44:	0fb12e23          	sw	x27,252(x2)
    4a48:	04912023          	sw	x9,64(x2)
    4a4c:	04012423          	sw	x0,72(x2)
    4a50:	04012223          	sw	x0,68(x2)
    4a54:	00048713          	addi	x14,x9,0
    4a58:	00012223          	sw	x0,4(x2)
    4a5c:	00012c23          	sw	x0,24(x2)
    4a60:	00012e23          	sw	x0,28(x2)
    4a64:	02012023          	sw	x0,32(x2)
    4a68:	00f12023          	sw	x15,0(x2)
    4a6c:	01000413          	addi	x8,x0,16
    4a70:	4eca8a93          	addi	x21,x21,1260 # 124ec <zeroes.0>
    4a74:	000b0c93          	addi	x25,x22,0
    4a78:	00098813          	addi	x16,x19,0
    4a7c:	000c4783          	lbu	x15,0(x24)
    4a80:	34078263          	beq	x15,x0,4dc4 <_vfiprintf_r+0x438>
    4a84:	000c0b93          	addi	x23,x24,0
    4a88:	02500693          	addi	x13,x0,37
    4a8c:	36d78c63          	beq	x15,x13,4e04 <_vfiprintf_r+0x478>
    4a90:	001bc783          	lbu	x15,1(x23)
    4a94:	001b8b93          	addi	x23,x23,1
    4a98:	fe079ae3          	bne	x15,x0,4a8c <_vfiprintf_r+0x100>
    4a9c:	418b89b3          	sub	x19,x23,x24
    4aa0:	338b8263          	beq	x23,x24,4dc4 <_vfiprintf_r+0x438>
    4aa4:	04812683          	lw	x13,72(x2)
    4aa8:	04412783          	lw	x15,68(x2)
    4aac:	01872023          	sw	x24,0(x14)
    4ab0:	00d986b3          	add	x13,x19,x13
    4ab4:	00178793          	addi	x15,x15,1
    4ab8:	01372223          	sw	x19,4(x14)
    4abc:	04d12423          	sw	x13,72(x2)
    4ac0:	04f12223          	sw	x15,68(x2)
    4ac4:	00700613          	addi	x12,x0,7
